
build/scheduler.elf:     file format elf64-littleaarch64
build/scheduler.elf
architecture: aarch64, flags 0x00000112:
EXEC_P, HAS_SYMS, D_PAGED
start address 0x0000000000200000

Program Header:
    LOAD off    0x0000000000010000 vaddr 0x0000000000200000 paddr 0x0000000000200000 align 2**16
         filesz 0x0000000000005368 memsz 0x0000000000005368 flags r-x
    LOAD off    0x0000000000016000 vaddr 0x0000000000206000 paddr 0x0000000000206000 align 2**16
         filesz 0x0000000000000010 memsz 0x00000000000000d8 flags rw-
private flags = 0:

Sections:
Idx Name          Size      VMA               LMA               File off  Algn
  0 .text         00004b5d  0000000000200000  0000000000200000  00010000  2**4
                  CONTENTS, ALLOC, LOAD, READONLY, CODE
  1 .eh_frame     000007a0  0000000000204b60  0000000000204b60  00014b60  2**3
                  CONTENTS, ALLOC, LOAD, READONLY, DATA
  2 .rodata.str1.8 00000068  0000000000205300  0000000000205300  00015300  2**3
                  CONTENTS, ALLOC, LOAD, READONLY, DATA
  3 .data         00000010  0000000000206000  0000000000206000  00016000  2**3
                  CONTENTS, ALLOC, LOAD, DATA
  4 .bss          000000c8  0000000000206010  0000000000206010  00016010  2**4
                  ALLOC
  5 .debug_info   000054b1  0000000000000000  0000000000000000  00016010  2**0
                  CONTENTS, READONLY, DEBUGGING
  6 .debug_abbrev 00000fb1  0000000000000000  0000000000000000  0001b4c1  2**0
                  CONTENTS, READONLY, DEBUGGING
  7 .debug_aranges 00000160  0000000000000000  0000000000000000  0001c480  2**4
                  CONTENTS, READONLY, DEBUGGING
  8 .debug_line   000021ad  0000000000000000  0000000000000000  0001c5e0  2**0
                  CONTENTS, READONLY, DEBUGGING
  9 .debug_str    0000155c  0000000000000000  0000000000000000  0001e78d  2**0
                  CONTENTS, READONLY, DEBUGGING
 10 .comment      00000057  0000000000000000  0000000000000000  0001fce9  2**0
                  CONTENTS, READONLY
 11 .debug_loclists 000011de  0000000000000000  0000000000000000  0001fd40  2**0
                  CONTENTS, READONLY, DEBUGGING
 12 .debug_rnglists 000000fb  0000000000000000  0000000000000000  00020f1e  2**0
                  CONTENTS, READONLY, DEBUGGING
 13 .debug_line_str 000002fa  0000000000000000  0000000000000000  00021019  2**0
                  CONTENTS, READONLY, DEBUGGING
 14 .debug_frame  000000d8  0000000000000000  0000000000000000  00021318  2**3
                  CONTENTS, READONLY, DEBUGGING
SYMBOL TABLE:
0000000000200000 l    d  .text	0000000000000000 .text
0000000000204b60 l    d  .eh_frame	0000000000000000 .eh_frame
0000000000205300 l    d  .rodata.str1.8	0000000000000000 .rodata.str1.8
0000000000206000 l    d  .data	0000000000000000 .data
0000000000206010 l    d  .bss	0000000000000000 .bss
0000000000000000 l    d  .debug_info	0000000000000000 .debug_info
0000000000000000 l    d  .debug_abbrev	0000000000000000 .debug_abbrev
0000000000000000 l    d  .debug_aranges	0000000000000000 .debug_aranges
0000000000000000 l    d  .debug_line	0000000000000000 .debug_line
0000000000000000 l    d  .debug_str	0000000000000000 .debug_str
0000000000000000 l    d  .comment	0000000000000000 .comment
0000000000000000 l    d  .debug_loclists	0000000000000000 .debug_loclists
0000000000000000 l    d  .debug_rnglists	0000000000000000 .debug_rnglists
0000000000000000 l    d  .debug_line_str	0000000000000000 .debug_line_str
0000000000000000 l    d  .debug_frame	0000000000000000 .debug_frame
0000000000000000 l    df *ABS*	0000000000000000 crt0.o
0000000000000000 l    df *ABS*	0000000000000000 printf.c
0000000000200004 l     F .text	0000000000000044 _out_buffer
0000000000200048 l     F .text	0000000000000020 _out_null
0000000000200068 l     F .text	0000000000000038 _out_char
00000000002000a0 l     F .text	000000000000004c _out_fct
00000000002000ec l     F .text	000000000000005c _strnlen_s
0000000000200148 l     F .text	000000000000003c _is_digit
0000000000200184 l     F .text	0000000000000070 _atoi
00000000002001f4 l     F .text	0000000000000148 _out_rev
000000000020033c l     F .text	0000000000000334 _ntoa_format
0000000000200670 l     F .text	000000000000015c _ntoa_long
00000000002007cc l     F .text	000000000000015c _ntoa_long_long
0000000000200928 l     F .text	0000000000000648 _ftoa
0000000000200f70 l     F .text	00000000000004e0 _etoa
0000000000204380 l     O .text	0000000000000050 pow10.0
0000000000201450 l     F .text	00000000000012e8 _vsnprintf
0000000000000000 l    df *ABS*	0000000000000000 util.c
0000000000204408 l     O .text	0000000000000004 seL4_AsyncEndpointObject
0000000000202b1c l     F .text	0000000000000110 seL4_MessageInfo_new
0000000000204888 l     O .text	0000000000000015 __func__.0
0000000000202c2c l     F .text	0000000000000020 seL4_MessageInfo_get_label
0000000000202c4c l     F .text	0000000000000020 seL4_MessageInfo_get_length
0000000000202c6c l     F .text	0000000000000010 seL4_GetIPCBuffer
0000000000202c7c l     F .text	000000000000002c seL4_GetMR
0000000000202ca8 l     F .text	0000000000000038 seL4_SetMR
0000000000202ce0 l     F .text	000000000000004c arm_sys_send
0000000000202d2c l     F .text	00000000000000ac arm_sys_send_recv
0000000000202dd8 l     F .text	000000000000007c seL4_Send
0000000000202e54 l     F .text	0000000000000174 seL4_CallWithMRs
0000000000202fc8 l     F .text	0000000000000108 seL4_ARM_VCPU_ReadRegs
00000000002030d0 l     F .text	0000000000000024 microkit_internal_crash
00000000002030f4 l     F .text	0000000000000030 microkit_msginfo_new
0000000000203124 l     F .text	0000000000000028 microkit_mr_set
000000000020314c l     F .text	000000000000001c microkit_mr_get
0000000000203168 l     F .text	0000000000000054 microkit_vcpu_arm_read_reg
00000000002031bc l     F .text	0000000000000020 decchar
00000000002031dc l     F .text	00000000000000ac put8
0000000000203288 l     F .text	0000000000000030 reply_to_fault
00000000002032b8 l     F .text	0000000000000024 get_vmm_id
00000000002032dc l     F .text	0000000000000014 print_tcb_regs
00000000002032f0 l     F .text	00000000000002a8 print_vcpu_regs
0000000000203598 l     F .text	0000000000000068 memcpy
0000000000203600 l     F .text	000000000000005c memset
000000000020365c l     F .text	000000000000003c assert_fail
0000000000000000 l    df *ABS*	0000000000000000 partition.c
0000000000000000 l    df *ABS*	0000000000000000 scheduler.c
00000000002048a0 l     O .text	0000000000000004 seL4_AsyncEndpointObject
0000000000203744 l     F .text	0000000000000110 seL4_MessageInfo_new
0000000000204b48 l     O .text	0000000000000015 __func__.0
0000000000203854 l     F .text	0000000000000010 seL4_GetIPCBuffer
0000000000203864 l     F .text	000000000000002c seL4_GetMR
0000000000203890 l     F .text	0000000000000038 seL4_SetMR
00000000002038c8 l     F .text	000000000000002c arm_sys_send_null
00000000002038f4 l     F .text	00000000000000ac arm_sys_send_recv
00000000002039a0 l     F .text	000000000000003c seL4_Signal
00000000002039dc l     F .text	00000000000000c4 seL4_Call
0000000000203aa0 l     F .text	0000000000000028 microkit_notify
0000000000203ac8 l     F .text	000000000000002c microkit_ppcall
0000000000203af4 l     F .text	0000000000000030 microkit_msginfo_new
0000000000203b24 l     F .text	0000000000000028 microkit_mr_set
0000000000203b4c l     F .text	000000000000001c microkit_mr_get
0000000000203b68 l     F .text	0000000000000040 sddf_timer_set_timeout
0000000000000000 l    df *ABS*	0000000000000000 main.c
0000000000000000 l    df *ABS*	0000000000000000 dbg.c
0000000000206038 g     O .bss	0000000000000008 p3_attr
0000000000203698 g     F .text	0000000000000020 _putchar
0000000000206810 g       .data	0000000000000000 __global_pointer$
0000000000206080 g     O .bss	0000000000000040 microkit_name
00000000002040a0 g     F .text	0000000000000028 microkit_dbg_putc
000000000020297c g     F .text	0000000000000064 vprintf_
0000000000204b5d g       .text	0000000000000000 _text_end
0000000000206030 g     O .bss	0000000000000008 p2_attr
0000000000206020 g     O .bss	0000000000000008 p3_state
0000000000203720 g     F .text	0000000000000024 set_partition_state
00000000002027fc g     F .text	00000000000000c0 sprintf_
00000000002036b8 g     F .text	0000000000000068 __assert_func
0000000000203d50 g     F .text	0000000000000190 notified
0000000000206040 g     O .bss	0000000000000018 partition_state_list
0000000000203f10  w    F .text	000000000000002c fault
00000000002029e0 g     F .text	0000000000000068 vsnprintf_
0000000000203ba8 g     F .text	000000000000002c get_next_partition_idx
00000000002060d8 g       .bss	0000000000000000 _bss_end
0000000000203ee0  w    F .text	000000000000002c protected
0000000000206008 g     O .data	0000000000000008 __sel4_ipc_buffer
0000000000202a48 g     F .text	00000000000000d4 fctprintf
00000000002060d0 g     O .bss	0000000000000008 microkit_signal_cap
0000000000206070 g     O .bss	0000000000000002 curr_init
0000000000206010 g       .bss	0000000000000000 _bss
0000000000200000 g     F .text	0000000000000000 _start
0000000000206018 g     O .bss	0000000000000008 p2_state
00000000002060c8 g     O .bss	0000000000000008 microkit_signal_msg
0000000000206010 g       .data	0000000000000000 _data_end
0000000000203bd4 g     F .text	000000000000017c init
0000000000200000 g       .text	0000000000000000 _text
0000000000203f40 g     F .text	0000000000000154 main
0000000000206010 g     O .bss	0000000000000008 p1_state
0000000000206000 g       .data	0000000000000000 __init_array_end
00000000002060c1 g     O .bss	0000000000000001 microkit_have_signal
0000000000204110 g     F .text	0000000000000148 __assert_fail
0000000000207000 g       .debug_info	0000000000000000 __sel4_ipc_buffer_obj
00000000002028bc g     F .text	00000000000000c0 snprintf_
0000000000206058 g     O .bss	0000000000000018 partition_info_list
0000000000206000 g       .data	0000000000000000 _data
00000000002060c0 g     O .bss	0000000000000001 microkit_passive
0000000000206028 g     O .bss	0000000000000008 p1_attr
0000000000206000 g     O .data	0000000000000004 plist_head
0000000000202738 g     F .text	00000000000000c4 printf_
00000000002040d0 g     F .text	000000000000003c microkit_dbg_puts
0000000000206000 g       .data	0000000000000000 __init_array_start
0000000000206004 g     O .data	0000000000000002 init_decrement



Disassembly of section .text:

0000000000200000 <_start>:
_text():
  200000:	14000fd0 	b	203f40 <main>

0000000000200004 <_out_buffer>:
_out_buffer():
/Users/jd/trustworthy-systems/arinc/ARINC/t1_prototype/microkit_tutorial/prototype_t1/build/../printf.c:134
  200004:	d10083ff 	sub	sp, sp, #0x20
  200008:	39007fe0 	strb	w0, [sp, #31]
  20000c:	f9000be1 	str	x1, [sp, #16]
  200010:	f90007e2 	str	x2, [sp, #8]
  200014:	f90003e3 	str	x3, [sp]
/Users/jd/trustworthy-systems/arinc/ARINC/t1_prototype/microkit_tutorial/prototype_t1/build/../printf.c:135
  200018:	f94007e1 	ldr	x1, [sp, #8]
  20001c:	f94003e0 	ldr	x0, [sp]
  200020:	eb00003f 	cmp	x1, x0
  200024:	540000c2 	b.cs	20003c <_out_buffer+0x38>  // b.hs, b.nlast
/Users/jd/trustworthy-systems/arinc/ARINC/t1_prototype/microkit_tutorial/prototype_t1/build/../printf.c:136
  200028:	f9400be1 	ldr	x1, [sp, #16]
  20002c:	f94007e0 	ldr	x0, [sp, #8]
  200030:	8b000020 	add	x0, x1, x0
  200034:	39407fe1 	ldrb	w1, [sp, #31]
  200038:	39000001 	strb	w1, [x0]
/Users/jd/trustworthy-systems/arinc/ARINC/t1_prototype/microkit_tutorial/prototype_t1/build/../printf.c:138
  20003c:	d503201f 	nop
  200040:	910083ff 	add	sp, sp, #0x20
  200044:	d65f03c0 	ret

0000000000200048 <_out_null>:
_out_null():
/Users/jd/trustworthy-systems/arinc/ARINC/t1_prototype/microkit_tutorial/prototype_t1/build/../printf.c:143
  200048:	d10083ff 	sub	sp, sp, #0x20
  20004c:	39007fe0 	strb	w0, [sp, #31]
  200050:	f9000be1 	str	x1, [sp, #16]
  200054:	f90007e2 	str	x2, [sp, #8]
  200058:	f90003e3 	str	x3, [sp]
/Users/jd/trustworthy-systems/arinc/ARINC/t1_prototype/microkit_tutorial/prototype_t1/build/../printf.c:145
  20005c:	d503201f 	nop
  200060:	910083ff 	add	sp, sp, #0x20
  200064:	d65f03c0 	ret

0000000000200068 <_out_char>:
_out_char():
/Users/jd/trustworthy-systems/arinc/ARINC/t1_prototype/microkit_tutorial/prototype_t1/build/../printf.c:150
  200068:	a9bd7bfd 	stp	x29, x30, [sp, #-48]!
  20006c:	910003fd 	mov	x29, sp
  200070:	3900bfe0 	strb	w0, [sp, #47]
  200074:	f90013e1 	str	x1, [sp, #32]
  200078:	f9000fe2 	str	x2, [sp, #24]
  20007c:	f9000be3 	str	x3, [sp, #16]
/Users/jd/trustworthy-systems/arinc/ARINC/t1_prototype/microkit_tutorial/prototype_t1/build/../printf.c:152
  200080:	3940bfe0 	ldrb	w0, [sp, #47]
  200084:	7100001f 	cmp	w0, #0x0
  200088:	54000060 	b.eq	200094 <_out_char+0x2c>  // b.none
/Users/jd/trustworthy-systems/arinc/ARINC/t1_prototype/microkit_tutorial/prototype_t1/build/../printf.c:153
  20008c:	3940bfe0 	ldrb	w0, [sp, #47]
  200090:	94000d82 	bl	203698 <_putchar>
/Users/jd/trustworthy-systems/arinc/ARINC/t1_prototype/microkit_tutorial/prototype_t1/build/../printf.c:155
  200094:	d503201f 	nop
  200098:	a8c37bfd 	ldp	x29, x30, [sp], #48
  20009c:	d65f03c0 	ret

00000000002000a0 <_out_fct>:
_out_fct():
/Users/jd/trustworthy-systems/arinc/ARINC/t1_prototype/microkit_tutorial/prototype_t1/build/../printf.c:160
  2000a0:	a9bd7bfd 	stp	x29, x30, [sp, #-48]!
  2000a4:	910003fd 	mov	x29, sp
  2000a8:	3900bfe0 	strb	w0, [sp, #47]
  2000ac:	f90013e1 	str	x1, [sp, #32]
  2000b0:	f9000fe2 	str	x2, [sp, #24]
  2000b4:	f9000be3 	str	x3, [sp, #16]
/Users/jd/trustworthy-systems/arinc/ARINC/t1_prototype/microkit_tutorial/prototype_t1/build/../printf.c:162
  2000b8:	3940bfe0 	ldrb	w0, [sp, #47]
  2000bc:	7100001f 	cmp	w0, #0x0
  2000c0:	54000100 	b.eq	2000e0 <_out_fct+0x40>  // b.none
/Users/jd/trustworthy-systems/arinc/ARINC/t1_prototype/microkit_tutorial/prototype_t1/build/../printf.c:164
  2000c4:	f94013e0 	ldr	x0, [sp, #32]
  2000c8:	f9400002 	ldr	x2, [x0]
  2000cc:	f94013e0 	ldr	x0, [sp, #32]
  2000d0:	f9400400 	ldr	x0, [x0, #8]
  2000d4:	aa0003e1 	mov	x1, x0
  2000d8:	3940bfe0 	ldrb	w0, [sp, #47]
  2000dc:	d63f0040 	blr	x2
/Users/jd/trustworthy-systems/arinc/ARINC/t1_prototype/microkit_tutorial/prototype_t1/build/../printf.c:166
  2000e0:	d503201f 	nop
  2000e4:	a8c37bfd 	ldp	x29, x30, [sp], #48
  2000e8:	d65f03c0 	ret

00000000002000ec <_strnlen_s>:
_strnlen_s():
/Users/jd/trustworthy-systems/arinc/ARINC/t1_prototype/microkit_tutorial/prototype_t1/build/../printf.c:172
  2000ec:	d10083ff 	sub	sp, sp, #0x20
  2000f0:	f90007e0 	str	x0, [sp, #8]
  2000f4:	f90003e1 	str	x1, [sp]
/Users/jd/trustworthy-systems/arinc/ARINC/t1_prototype/microkit_tutorial/prototype_t1/build/../printf.c:174
  2000f8:	f94007e0 	ldr	x0, [sp, #8]
  2000fc:	f9000fe0 	str	x0, [sp, #24]
  200100:	14000004 	b	200110 <_strnlen_s+0x24>
/Users/jd/trustworthy-systems/arinc/ARINC/t1_prototype/microkit_tutorial/prototype_t1/build/../printf.c:174 (discriminator 4)
  200104:	f9400fe0 	ldr	x0, [sp, #24]
  200108:	91000400 	add	x0, x0, #0x1
  20010c:	f9000fe0 	str	x0, [sp, #24]
/Users/jd/trustworthy-systems/arinc/ARINC/t1_prototype/microkit_tutorial/prototype_t1/build/../printf.c:174 (discriminator 1)
  200110:	f9400fe0 	ldr	x0, [sp, #24]
  200114:	39400000 	ldrb	w0, [x0]
  200118:	7100001f 	cmp	w0, #0x0
  20011c:	540000c0 	b.eq	200134 <_strnlen_s+0x48>  // b.none
/Users/jd/trustworthy-systems/arinc/ARINC/t1_prototype/microkit_tutorial/prototype_t1/build/../printf.c:174 (discriminator 3)
  200120:	f94003e0 	ldr	x0, [sp]
  200124:	d1000401 	sub	x1, x0, #0x1
  200128:	f90003e1 	str	x1, [sp]
  20012c:	f100001f 	cmp	x0, #0x0
  200130:	54fffea1 	b.ne	200104 <_strnlen_s+0x18>  // b.any
/Users/jd/trustworthy-systems/arinc/ARINC/t1_prototype/microkit_tutorial/prototype_t1/build/../printf.c:175
  200134:	f9400fe1 	ldr	x1, [sp, #24]
  200138:	f94007e0 	ldr	x0, [sp, #8]
  20013c:	cb000020 	sub	x0, x1, x0
/Users/jd/trustworthy-systems/arinc/ARINC/t1_prototype/microkit_tutorial/prototype_t1/build/../printf.c:176
  200140:	910083ff 	add	sp, sp, #0x20
  200144:	d65f03c0 	ret

0000000000200148 <_is_digit>:
_is_digit():
/Users/jd/trustworthy-systems/arinc/ARINC/t1_prototype/microkit_tutorial/prototype_t1/build/../printf.c:182
  200148:	d10043ff 	sub	sp, sp, #0x10
  20014c:	39003fe0 	strb	w0, [sp, #15]
/Users/jd/trustworthy-systems/arinc/ARINC/t1_prototype/microkit_tutorial/prototype_t1/build/../printf.c:183
  200150:	39403fe0 	ldrb	w0, [sp, #15]
  200154:	7100bc1f 	cmp	w0, #0x2f
  200158:	540000c9 	b.ls	200170 <_is_digit+0x28>  // b.plast
/Users/jd/trustworthy-systems/arinc/ARINC/t1_prototype/microkit_tutorial/prototype_t1/build/../printf.c:183 (discriminator 1)
  20015c:	39403fe0 	ldrb	w0, [sp, #15]
  200160:	7100e41f 	cmp	w0, #0x39
  200164:	54000068 	b.hi	200170 <_is_digit+0x28>  // b.pmore
/Users/jd/trustworthy-systems/arinc/ARINC/t1_prototype/microkit_tutorial/prototype_t1/build/../printf.c:183 (discriminator 3)
  200168:	52800020 	mov	w0, #0x1                   	// #1
/Users/jd/trustworthy-systems/arinc/ARINC/t1_prototype/microkit_tutorial/prototype_t1/build/../printf.c:183
  20016c:	14000002 	b	200174 <_is_digit+0x2c>
/Users/jd/trustworthy-systems/arinc/ARINC/t1_prototype/microkit_tutorial/prototype_t1/build/../printf.c:183 (discriminator 4)
  200170:	52800000 	mov	w0, #0x0                   	// #0
/Users/jd/trustworthy-systems/arinc/ARINC/t1_prototype/microkit_tutorial/prototype_t1/build/../printf.c:183 (discriminator 6)
  200174:	12000000 	and	w0, w0, #0x1
  200178:	12001c00 	and	w0, w0, #0xff
/Users/jd/trustworthy-systems/arinc/ARINC/t1_prototype/microkit_tutorial/prototype_t1/build/../printf.c:184
  20017c:	910043ff 	add	sp, sp, #0x10
  200180:	d65f03c0 	ret

0000000000200184 <_atoi>:
_atoi():
/Users/jd/trustworthy-systems/arinc/ARINC/t1_prototype/microkit_tutorial/prototype_t1/build/../printf.c:189
  200184:	a9bd7bfd 	stp	x29, x30, [sp, #-48]!
  200188:	910003fd 	mov	x29, sp
  20018c:	f9000fe0 	str	x0, [sp, #24]
/Users/jd/trustworthy-systems/arinc/ARINC/t1_prototype/microkit_tutorial/prototype_t1/build/../printf.c:190
  200190:	b9002fff 	str	wzr, [sp, #44]
/Users/jd/trustworthy-systems/arinc/ARINC/t1_prototype/microkit_tutorial/prototype_t1/build/../printf.c:191
  200194:	1400000d 	b	2001c8 <_atoi+0x44>
/Users/jd/trustworthy-systems/arinc/ARINC/t1_prototype/microkit_tutorial/prototype_t1/build/../printf.c:192
  200198:	b9402fe1 	ldr	w1, [sp, #44]
  20019c:	52800140 	mov	w0, #0xa                   	// #10
  2001a0:	1b007c21 	mul	w1, w1, w0
  2001a4:	f9400fe0 	ldr	x0, [sp, #24]
  2001a8:	f9400000 	ldr	x0, [x0]
  2001ac:	91000403 	add	x3, x0, #0x1
  2001b0:	f9400fe2 	ldr	x2, [sp, #24]
  2001b4:	f9000043 	str	x3, [x2]
  2001b8:	39400000 	ldrb	w0, [x0]
  2001bc:	0b000020 	add	w0, w1, w0
  2001c0:	5100c000 	sub	w0, w0, #0x30
  2001c4:	b9002fe0 	str	w0, [sp, #44]
/Users/jd/trustworthy-systems/arinc/ARINC/t1_prototype/microkit_tutorial/prototype_t1/build/../printf.c:191
  2001c8:	f9400fe0 	ldr	x0, [sp, #24]
  2001cc:	f9400000 	ldr	x0, [x0]
  2001d0:	39400000 	ldrb	w0, [x0]
  2001d4:	97ffffdd 	bl	200148 <_is_digit>
  2001d8:	12001c00 	and	w0, w0, #0xff
/Users/jd/trustworthy-systems/arinc/ARINC/t1_prototype/microkit_tutorial/prototype_t1/build/../printf.c:191 (discriminator 1)
  2001dc:	12000000 	and	w0, w0, #0x1
  2001e0:	7100001f 	cmp	w0, #0x0
  2001e4:	54fffda1 	b.ne	200198 <_atoi+0x14>  // b.any
/Users/jd/trustworthy-systems/arinc/ARINC/t1_prototype/microkit_tutorial/prototype_t1/build/../printf.c:194
  2001e8:	b9402fe0 	ldr	w0, [sp, #44]
/Users/jd/trustworthy-systems/arinc/ARINC/t1_prototype/microkit_tutorial/prototype_t1/build/../printf.c:195
  2001ec:	a8c37bfd 	ldp	x29, x30, [sp], #48
  2001f0:	d65f03c0 	ret

00000000002001f4 <_out_rev>:
_out_rev():
/Users/jd/trustworthy-systems/arinc/ARINC/t1_prototype/microkit_tutorial/prototype_t1/build/../printf.c:200
  2001f4:	a9ba7bfd 	stp	x29, x30, [sp, #-96]!
  2001f8:	910003fd 	mov	x29, sp
  2001fc:	f90027e0 	str	x0, [sp, #72]
  200200:	f90023e1 	str	x1, [sp, #64]
  200204:	f9001fe2 	str	x2, [sp, #56]
  200208:	f9001be3 	str	x3, [sp, #48]
  20020c:	f90017e4 	str	x4, [sp, #40]
  200210:	f90013e5 	str	x5, [sp, #32]
  200214:	b9001fe6 	str	w6, [sp, #28]
  200218:	b9001be7 	str	w7, [sp, #24]
/Users/jd/trustworthy-systems/arinc/ARINC/t1_prototype/microkit_tutorial/prototype_t1/build/../printf.c:201
  20021c:	f9401fe0 	ldr	x0, [sp, #56]
  200220:	f9002be0 	str	x0, [sp, #80]
/Users/jd/trustworthy-systems/arinc/ARINC/t1_prototype/microkit_tutorial/prototype_t1/build/../printf.c:204
  200224:	b9401be0 	ldr	w0, [sp, #24]
  200228:	121f0000 	and	w0, w0, #0x2
  20022c:	7100001f 	cmp	w0, #0x0
  200230:	54000521 	b.ne	2002d4 <_out_rev+0xe0>  // b.any
/Users/jd/trustworthy-systems/arinc/ARINC/t1_prototype/microkit_tutorial/prototype_t1/build/../printf.c:204 (discriminator 1)
  200234:	b9401be0 	ldr	w0, [sp, #24]
  200238:	12000000 	and	w0, w0, #0x1
  20023c:	7100001f 	cmp	w0, #0x0
  200240:	540004a1 	b.ne	2002d4 <_out_rev+0xe0>  // b.any
/Users/jd/trustworthy-systems/arinc/ARINC/t1_prototype/microkit_tutorial/prototype_t1/build/../printf.c:205
  200244:	f94013e0 	ldr	x0, [sp, #32]
  200248:	f9002fe0 	str	x0, [sp, #88]
  20024c:	1400000d 	b	200280 <_out_rev+0x8c>
/Users/jd/trustworthy-systems/arinc/ARINC/t1_prototype/microkit_tutorial/prototype_t1/build/../printf.c:206
  200250:	f9401fe0 	ldr	x0, [sp, #56]
  200254:	91000401 	add	x1, x0, #0x1
  200258:	f9001fe1 	str	x1, [sp, #56]
  20025c:	f94027e4 	ldr	x4, [sp, #72]
  200260:	f9401be3 	ldr	x3, [sp, #48]
  200264:	aa0003e2 	mov	x2, x0
  200268:	f94023e1 	ldr	x1, [sp, #64]
  20026c:	52800400 	mov	w0, #0x20                  	// #32
  200270:	d63f0080 	blr	x4
/Users/jd/trustworthy-systems/arinc/ARINC/t1_prototype/microkit_tutorial/prototype_t1/build/../printf.c:205 (discriminator 3)
  200274:	f9402fe0 	ldr	x0, [sp, #88]
  200278:	91000400 	add	x0, x0, #0x1
  20027c:	f9002fe0 	str	x0, [sp, #88]
/Users/jd/trustworthy-systems/arinc/ARINC/t1_prototype/microkit_tutorial/prototype_t1/build/../printf.c:205 (discriminator 1)
  200280:	b9401fe0 	ldr	w0, [sp, #28]
  200284:	f9402fe1 	ldr	x1, [sp, #88]
  200288:	eb00003f 	cmp	x1, x0
  20028c:	54fffe23 	b.cc	200250 <_out_rev+0x5c>  // b.lo, b.ul, b.last
/Users/jd/trustworthy-systems/arinc/ARINC/t1_prototype/microkit_tutorial/prototype_t1/build/../printf.c:211
  200290:	14000011 	b	2002d4 <_out_rev+0xe0>
/Users/jd/trustworthy-systems/arinc/ARINC/t1_prototype/microkit_tutorial/prototype_t1/build/../printf.c:212
  200294:	f94013e0 	ldr	x0, [sp, #32]
  200298:	d1000400 	sub	x0, x0, #0x1
  20029c:	f90013e0 	str	x0, [sp, #32]
  2002a0:	f94017e1 	ldr	x1, [sp, #40]
  2002a4:	f94013e0 	ldr	x0, [sp, #32]
  2002a8:	8b000020 	add	x0, x1, x0
  2002ac:	39400005 	ldrb	w5, [x0]
  2002b0:	f9401fe0 	ldr	x0, [sp, #56]
  2002b4:	91000401 	add	x1, x0, #0x1
  2002b8:	f9001fe1 	str	x1, [sp, #56]
  2002bc:	f94027e4 	ldr	x4, [sp, #72]
  2002c0:	f9401be3 	ldr	x3, [sp, #48]
  2002c4:	aa0003e2 	mov	x2, x0
  2002c8:	f94023e1 	ldr	x1, [sp, #64]
  2002cc:	2a0503e0 	mov	w0, w5
  2002d0:	d63f0080 	blr	x4
/Users/jd/trustworthy-systems/arinc/ARINC/t1_prototype/microkit_tutorial/prototype_t1/build/../printf.c:211
  2002d4:	f94013e0 	ldr	x0, [sp, #32]
  2002d8:	f100001f 	cmp	x0, #0x0
  2002dc:	54fffdc1 	b.ne	200294 <_out_rev+0xa0>  // b.any
/Users/jd/trustworthy-systems/arinc/ARINC/t1_prototype/microkit_tutorial/prototype_t1/build/../printf.c:216
  2002e0:	b9401be0 	ldr	w0, [sp, #24]
  2002e4:	121f0000 	and	w0, w0, #0x2
  2002e8:	7100001f 	cmp	w0, #0x0
  2002ec:	54000220 	b.eq	200330 <_out_rev+0x13c>  // b.none
/Users/jd/trustworthy-systems/arinc/ARINC/t1_prototype/microkit_tutorial/prototype_t1/build/../printf.c:217
  2002f0:	1400000a 	b	200318 <_out_rev+0x124>
/Users/jd/trustworthy-systems/arinc/ARINC/t1_prototype/microkit_tutorial/prototype_t1/build/../printf.c:218
  2002f4:	f9401fe0 	ldr	x0, [sp, #56]
  2002f8:	91000401 	add	x1, x0, #0x1
  2002fc:	f9001fe1 	str	x1, [sp, #56]
  200300:	f94027e4 	ldr	x4, [sp, #72]
  200304:	f9401be3 	ldr	x3, [sp, #48]
  200308:	aa0003e2 	mov	x2, x0
  20030c:	f94023e1 	ldr	x1, [sp, #64]
  200310:	52800400 	mov	w0, #0x20                  	// #32
  200314:	d63f0080 	blr	x4
/Users/jd/trustworthy-systems/arinc/ARINC/t1_prototype/microkit_tutorial/prototype_t1/build/../printf.c:217
  200318:	f9401fe1 	ldr	x1, [sp, #56]
  20031c:	f9402be0 	ldr	x0, [sp, #80]
  200320:	cb000021 	sub	x1, x1, x0
  200324:	b9401fe0 	ldr	w0, [sp, #28]
  200328:	eb00003f 	cmp	x1, x0
  20032c:	54fffe43 	b.cc	2002f4 <_out_rev+0x100>  // b.lo, b.ul, b.last
/Users/jd/trustworthy-systems/arinc/ARINC/t1_prototype/microkit_tutorial/prototype_t1/build/../printf.c:222
  200330:	f9401fe0 	ldr	x0, [sp, #56]
/Users/jd/trustworthy-systems/arinc/ARINC/t1_prototype/microkit_tutorial/prototype_t1/build/../printf.c:223
  200334:	a8c67bfd 	ldp	x29, x30, [sp], #96
  200338:	d65f03c0 	ret

000000000020033c <_ntoa_format>:
_ntoa_format():
/Users/jd/trustworthy-systems/arinc/ARINC/t1_prototype/microkit_tutorial/prototype_t1/build/../printf.c:228
  20033c:	a9bb7bfd 	stp	x29, x30, [sp, #-80]!
  200340:	910003fd 	mov	x29, sp
  200344:	f90027e0 	str	x0, [sp, #72]
  200348:	f90023e1 	str	x1, [sp, #64]
  20034c:	f9001fe2 	str	x2, [sp, #56]
  200350:	f9001be3 	str	x3, [sp, #48]
  200354:	f90017e4 	str	x4, [sp, #40]
  200358:	f90013e5 	str	x5, [sp, #32]
  20035c:	39007fe6 	strb	w6, [sp, #31]
  200360:	b9001be7 	str	w7, [sp, #24]
/Users/jd/trustworthy-systems/arinc/ARINC/t1_prototype/microkit_tutorial/prototype_t1/build/../printf.c:230
  200364:	b94063e0 	ldr	w0, [sp, #96]
  200368:	121f0000 	and	w0, w0, #0x2
  20036c:	7100001f 	cmp	w0, #0x0
  200370:	540006a1 	b.ne	200444 <_ntoa_format+0x108>  // b.any
/Users/jd/trustworthy-systems/arinc/ARINC/t1_prototype/microkit_tutorial/prototype_t1/build/../printf.c:231
  200374:	b9405be0 	ldr	w0, [sp, #88]
  200378:	7100001f 	cmp	w0, #0x0
  20037c:	54000300 	b.eq	2003dc <_ntoa_format+0xa0>  // b.none
/Users/jd/trustworthy-systems/arinc/ARINC/t1_prototype/microkit_tutorial/prototype_t1/build/../printf.c:231 (discriminator 1)
  200380:	b94063e0 	ldr	w0, [sp, #96]
  200384:	12000000 	and	w0, w0, #0x1
  200388:	7100001f 	cmp	w0, #0x0
  20038c:	54000280 	b.eq	2003dc <_ntoa_format+0xa0>  // b.none
/Users/jd/trustworthy-systems/arinc/ARINC/t1_prototype/microkit_tutorial/prototype_t1/build/../printf.c:231 (discriminator 2)
  200390:	39407fe0 	ldrb	w0, [sp, #31]
  200394:	12000000 	and	w0, w0, #0x1
  200398:	7100001f 	cmp	w0, #0x0
  20039c:	540000a1 	b.ne	2003b0 <_ntoa_format+0x74>  // b.any
/Users/jd/trustworthy-systems/arinc/ARINC/t1_prototype/microkit_tutorial/prototype_t1/build/../printf.c:231 (discriminator 3)
  2003a0:	b94063e0 	ldr	w0, [sp, #96]
  2003a4:	121e0400 	and	w0, w0, #0xc
  2003a8:	7100001f 	cmp	w0, #0x0
  2003ac:	54000180 	b.eq	2003dc <_ntoa_format+0xa0>  // b.none
/Users/jd/trustworthy-systems/arinc/ARINC/t1_prototype/microkit_tutorial/prototype_t1/build/../printf.c:232
  2003b0:	b9405be0 	ldr	w0, [sp, #88]
  2003b4:	51000400 	sub	w0, w0, #0x1
  2003b8:	b9005be0 	str	w0, [sp, #88]
/Users/jd/trustworthy-systems/arinc/ARINC/t1_prototype/microkit_tutorial/prototype_t1/build/../printf.c:234
  2003bc:	14000008 	b	2003dc <_ntoa_format+0xa0>
/Users/jd/trustworthy-systems/arinc/ARINC/t1_prototype/microkit_tutorial/prototype_t1/build/../printf.c:235
  2003c0:	f94013e0 	ldr	x0, [sp, #32]
  2003c4:	91000401 	add	x1, x0, #0x1
  2003c8:	f90013e1 	str	x1, [sp, #32]
  2003cc:	f94017e1 	ldr	x1, [sp, #40]
  2003d0:	8b000020 	add	x0, x1, x0
  2003d4:	52800601 	mov	w1, #0x30                  	// #48
  2003d8:	39000001 	strb	w1, [x0]
/Users/jd/trustworthy-systems/arinc/ARINC/t1_prototype/microkit_tutorial/prototype_t1/build/../printf.c:234
  2003dc:	b94053e0 	ldr	w0, [sp, #80]
  2003e0:	f94013e1 	ldr	x1, [sp, #32]
  2003e4:	eb00003f 	cmp	x1, x0
  2003e8:	54000182 	b.cs	200418 <_ntoa_format+0xdc>  // b.hs, b.nlast
/Users/jd/trustworthy-systems/arinc/ARINC/t1_prototype/microkit_tutorial/prototype_t1/build/../printf.c:234 (discriminator 1)
  2003ec:	f94013e0 	ldr	x0, [sp, #32]
  2003f0:	f1007c1f 	cmp	x0, #0x1f
  2003f4:	54fffe69 	b.ls	2003c0 <_ntoa_format+0x84>  // b.plast
/Users/jd/trustworthy-systems/arinc/ARINC/t1_prototype/microkit_tutorial/prototype_t1/build/../printf.c:237
  2003f8:	14000008 	b	200418 <_ntoa_format+0xdc>
/Users/jd/trustworthy-systems/arinc/ARINC/t1_prototype/microkit_tutorial/prototype_t1/build/../printf.c:238
  2003fc:	f94013e0 	ldr	x0, [sp, #32]
  200400:	91000401 	add	x1, x0, #0x1
  200404:	f90013e1 	str	x1, [sp, #32]
  200408:	f94017e1 	ldr	x1, [sp, #40]
  20040c:	8b000020 	add	x0, x1, x0
  200410:	52800601 	mov	w1, #0x30                  	// #48
  200414:	39000001 	strb	w1, [x0]
/Users/jd/trustworthy-systems/arinc/ARINC/t1_prototype/microkit_tutorial/prototype_t1/build/../printf.c:237
  200418:	b94063e0 	ldr	w0, [sp, #96]
  20041c:	12000000 	and	w0, w0, #0x1
  200420:	7100001f 	cmp	w0, #0x0
  200424:	54000100 	b.eq	200444 <_ntoa_format+0x108>  // b.none
/Users/jd/trustworthy-systems/arinc/ARINC/t1_prototype/microkit_tutorial/prototype_t1/build/../printf.c:237 (discriminator 1)
  200428:	b9405be0 	ldr	w0, [sp, #88]
  20042c:	f94013e1 	ldr	x1, [sp, #32]
  200430:	eb00003f 	cmp	x1, x0
  200434:	54000082 	b.cs	200444 <_ntoa_format+0x108>  // b.hs, b.nlast
/Users/jd/trustworthy-systems/arinc/ARINC/t1_prototype/microkit_tutorial/prototype_t1/build/../printf.c:237 (discriminator 2)
  200438:	f94013e0 	ldr	x0, [sp, #32]
  20043c:	f1007c1f 	cmp	x0, #0x1f
  200440:	54fffde9 	b.ls	2003fc <_ntoa_format+0xc0>  // b.plast
/Users/jd/trustworthy-systems/arinc/ARINC/t1_prototype/microkit_tutorial/prototype_t1/build/../printf.c:243
  200444:	b94063e0 	ldr	w0, [sp, #96]
  200448:	121c0000 	and	w0, w0, #0x10
  20044c:	7100001f 	cmp	w0, #0x0
  200450:	54000ae0 	b.eq	2005ac <_ntoa_format+0x270>  // b.none
/Users/jd/trustworthy-systems/arinc/ARINC/t1_prototype/microkit_tutorial/prototype_t1/build/../printf.c:244
  200454:	b94063e0 	ldr	w0, [sp, #96]
  200458:	12160000 	and	w0, w0, #0x400
  20045c:	7100001f 	cmp	w0, #0x0
  200460:	54000301 	b.ne	2004c0 <_ntoa_format+0x184>  // b.any
/Users/jd/trustworthy-systems/arinc/ARINC/t1_prototype/microkit_tutorial/prototype_t1/build/../printf.c:244 (discriminator 1)
  200464:	f94013e0 	ldr	x0, [sp, #32]
  200468:	f100001f 	cmp	x0, #0x0
  20046c:	540002a0 	b.eq	2004c0 <_ntoa_format+0x184>  // b.none
/Users/jd/trustworthy-systems/arinc/ARINC/t1_prototype/microkit_tutorial/prototype_t1/build/../printf.c:244 (discriminator 2)
  200470:	b94053e0 	ldr	w0, [sp, #80]
  200474:	f94013e1 	ldr	x1, [sp, #32]
  200478:	eb00003f 	cmp	x1, x0
  20047c:	540000a0 	b.eq	200490 <_ntoa_format+0x154>  // b.none
/Users/jd/trustworthy-systems/arinc/ARINC/t1_prototype/microkit_tutorial/prototype_t1/build/../printf.c:244 (discriminator 3)
  200480:	b9405be0 	ldr	w0, [sp, #88]
  200484:	f94013e1 	ldr	x1, [sp, #32]
  200488:	eb00003f 	cmp	x1, x0
  20048c:	540001a1 	b.ne	2004c0 <_ntoa_format+0x184>  // b.any
/Users/jd/trustworthy-systems/arinc/ARINC/t1_prototype/microkit_tutorial/prototype_t1/build/../printf.c:245
  200490:	f94013e0 	ldr	x0, [sp, #32]
  200494:	d1000400 	sub	x0, x0, #0x1
  200498:	f90013e0 	str	x0, [sp, #32]
/Users/jd/trustworthy-systems/arinc/ARINC/t1_prototype/microkit_tutorial/prototype_t1/build/../printf.c:246
  20049c:	f94013e0 	ldr	x0, [sp, #32]
  2004a0:	f100001f 	cmp	x0, #0x0
  2004a4:	540000e0 	b.eq	2004c0 <_ntoa_format+0x184>  // b.none
/Users/jd/trustworthy-systems/arinc/ARINC/t1_prototype/microkit_tutorial/prototype_t1/build/../printf.c:246 (discriminator 1)
  2004a8:	b9401be0 	ldr	w0, [sp, #24]
  2004ac:	7100401f 	cmp	w0, #0x10
  2004b0:	54000081 	b.ne	2004c0 <_ntoa_format+0x184>  // b.any
/Users/jd/trustworthy-systems/arinc/ARINC/t1_prototype/microkit_tutorial/prototype_t1/build/../printf.c:247
  2004b4:	f94013e0 	ldr	x0, [sp, #32]
  2004b8:	d1000400 	sub	x0, x0, #0x1
  2004bc:	f90013e0 	str	x0, [sp, #32]
/Users/jd/trustworthy-systems/arinc/ARINC/t1_prototype/microkit_tutorial/prototype_t1/build/../printf.c:250
  2004c0:	b9401be0 	ldr	w0, [sp, #24]
  2004c4:	7100401f 	cmp	w0, #0x10
  2004c8:	54000201 	b.ne	200508 <_ntoa_format+0x1cc>  // b.any
/Users/jd/trustworthy-systems/arinc/ARINC/t1_prototype/microkit_tutorial/prototype_t1/build/../printf.c:250 (discriminator 1)
  2004cc:	b94063e0 	ldr	w0, [sp, #96]
  2004d0:	121b0000 	and	w0, w0, #0x20
  2004d4:	7100001f 	cmp	w0, #0x0
  2004d8:	54000181 	b.ne	200508 <_ntoa_format+0x1cc>  // b.any
/Users/jd/trustworthy-systems/arinc/ARINC/t1_prototype/microkit_tutorial/prototype_t1/build/../printf.c:250 (discriminator 2)
  2004dc:	f94013e0 	ldr	x0, [sp, #32]
  2004e0:	f1007c1f 	cmp	x0, #0x1f
  2004e4:	54000128 	b.hi	200508 <_ntoa_format+0x1cc>  // b.pmore
/Users/jd/trustworthy-systems/arinc/ARINC/t1_prototype/microkit_tutorial/prototype_t1/build/../printf.c:251
  2004e8:	f94013e0 	ldr	x0, [sp, #32]
  2004ec:	91000401 	add	x1, x0, #0x1
  2004f0:	f90013e1 	str	x1, [sp, #32]
  2004f4:	f94017e1 	ldr	x1, [sp, #40]
  2004f8:	8b000020 	add	x0, x1, x0
  2004fc:	52800f01 	mov	w1, #0x78                  	// #120
  200500:	39000001 	strb	w1, [x0]
  200504:	14000020 	b	200584 <_ntoa_format+0x248>
/Users/jd/trustworthy-systems/arinc/ARINC/t1_prototype/microkit_tutorial/prototype_t1/build/../printf.c:253
  200508:	b9401be0 	ldr	w0, [sp, #24]
  20050c:	7100401f 	cmp	w0, #0x10
  200510:	54000201 	b.ne	200550 <_ntoa_format+0x214>  // b.any
/Users/jd/trustworthy-systems/arinc/ARINC/t1_prototype/microkit_tutorial/prototype_t1/build/../printf.c:253 (discriminator 1)
  200514:	b94063e0 	ldr	w0, [sp, #96]
  200518:	121b0000 	and	w0, w0, #0x20
  20051c:	7100001f 	cmp	w0, #0x0
  200520:	54000180 	b.eq	200550 <_ntoa_format+0x214>  // b.none
/Users/jd/trustworthy-systems/arinc/ARINC/t1_prototype/microkit_tutorial/prototype_t1/build/../printf.c:253 (discriminator 2)
  200524:	f94013e0 	ldr	x0, [sp, #32]
  200528:	f1007c1f 	cmp	x0, #0x1f
  20052c:	54000128 	b.hi	200550 <_ntoa_format+0x214>  // b.pmore
/Users/jd/trustworthy-systems/arinc/ARINC/t1_prototype/microkit_tutorial/prototype_t1/build/../printf.c:254
  200530:	f94013e0 	ldr	x0, [sp, #32]
  200534:	91000401 	add	x1, x0, #0x1
  200538:	f90013e1 	str	x1, [sp, #32]
  20053c:	f94017e1 	ldr	x1, [sp, #40]
  200540:	8b000020 	add	x0, x1, x0
  200544:	52800b01 	mov	w1, #0x58                  	// #88
  200548:	39000001 	strb	w1, [x0]
  20054c:	1400000e 	b	200584 <_ntoa_format+0x248>
/Users/jd/trustworthy-systems/arinc/ARINC/t1_prototype/microkit_tutorial/prototype_t1/build/../printf.c:256
  200550:	b9401be0 	ldr	w0, [sp, #24]
  200554:	7100081f 	cmp	w0, #0x2
  200558:	54000161 	b.ne	200584 <_ntoa_format+0x248>  // b.any
/Users/jd/trustworthy-systems/arinc/ARINC/t1_prototype/microkit_tutorial/prototype_t1/build/../printf.c:256 (discriminator 1)
  20055c:	f94013e0 	ldr	x0, [sp, #32]
  200560:	f1007c1f 	cmp	x0, #0x1f
  200564:	54000108 	b.hi	200584 <_ntoa_format+0x248>  // b.pmore
/Users/jd/trustworthy-systems/arinc/ARINC/t1_prototype/microkit_tutorial/prototype_t1/build/../printf.c:257
  200568:	f94013e0 	ldr	x0, [sp, #32]
  20056c:	91000401 	add	x1, x0, #0x1
  200570:	f90013e1 	str	x1, [sp, #32]
  200574:	f94017e1 	ldr	x1, [sp, #40]
  200578:	8b000020 	add	x0, x1, x0
  20057c:	52800c41 	mov	w1, #0x62                  	// #98
  200580:	39000001 	strb	w1, [x0]
/Users/jd/trustworthy-systems/arinc/ARINC/t1_prototype/microkit_tutorial/prototype_t1/build/../printf.c:259
  200584:	f94013e0 	ldr	x0, [sp, #32]
  200588:	f1007c1f 	cmp	x0, #0x1f
  20058c:	54000108 	b.hi	2005ac <_ntoa_format+0x270>  // b.pmore
/Users/jd/trustworthy-systems/arinc/ARINC/t1_prototype/microkit_tutorial/prototype_t1/build/../printf.c:260
  200590:	f94013e0 	ldr	x0, [sp, #32]
  200594:	91000401 	add	x1, x0, #0x1
  200598:	f90013e1 	str	x1, [sp, #32]
  20059c:	f94017e1 	ldr	x1, [sp, #40]
  2005a0:	8b000020 	add	x0, x1, x0
  2005a4:	52800601 	mov	w1, #0x30                  	// #48
  2005a8:	39000001 	strb	w1, [x0]
/Users/jd/trustworthy-systems/arinc/ARINC/t1_prototype/microkit_tutorial/prototype_t1/build/../printf.c:264
  2005ac:	f94013e0 	ldr	x0, [sp, #32]
  2005b0:	f1007c1f 	cmp	x0, #0x1f
  2005b4:	54000488 	b.hi	200644 <_ntoa_format+0x308>  // b.pmore
/Users/jd/trustworthy-systems/arinc/ARINC/t1_prototype/microkit_tutorial/prototype_t1/build/../printf.c:265
  2005b8:	39407fe0 	ldrb	w0, [sp, #31]
  2005bc:	12000000 	and	w0, w0, #0x1
  2005c0:	7100001f 	cmp	w0, #0x0
  2005c4:	54000120 	b.eq	2005e8 <_ntoa_format+0x2ac>  // b.none
/Users/jd/trustworthy-systems/arinc/ARINC/t1_prototype/microkit_tutorial/prototype_t1/build/../printf.c:266
  2005c8:	f94013e0 	ldr	x0, [sp, #32]
  2005cc:	91000401 	add	x1, x0, #0x1
  2005d0:	f90013e1 	str	x1, [sp, #32]
  2005d4:	f94017e1 	ldr	x1, [sp, #40]
  2005d8:	8b000020 	add	x0, x1, x0
  2005dc:	528005a1 	mov	w1, #0x2d                  	// #45
  2005e0:	39000001 	strb	w1, [x0]
  2005e4:	14000018 	b	200644 <_ntoa_format+0x308>
/Users/jd/trustworthy-systems/arinc/ARINC/t1_prototype/microkit_tutorial/prototype_t1/build/../printf.c:268
  2005e8:	b94063e0 	ldr	w0, [sp, #96]
  2005ec:	121e0000 	and	w0, w0, #0x4
  2005f0:	7100001f 	cmp	w0, #0x0
  2005f4:	54000120 	b.eq	200618 <_ntoa_format+0x2dc>  // b.none
/Users/jd/trustworthy-systems/arinc/ARINC/t1_prototype/microkit_tutorial/prototype_t1/build/../printf.c:269
  2005f8:	f94013e0 	ldr	x0, [sp, #32]
  2005fc:	91000401 	add	x1, x0, #0x1
  200600:	f90013e1 	str	x1, [sp, #32]
  200604:	f94017e1 	ldr	x1, [sp, #40]
  200608:	8b000020 	add	x0, x1, x0
  20060c:	52800561 	mov	w1, #0x2b                  	// #43
  200610:	39000001 	strb	w1, [x0]
  200614:	1400000c 	b	200644 <_ntoa_format+0x308>
/Users/jd/trustworthy-systems/arinc/ARINC/t1_prototype/microkit_tutorial/prototype_t1/build/../printf.c:271
  200618:	b94063e0 	ldr	w0, [sp, #96]
  20061c:	121d0000 	and	w0, w0, #0x8
  200620:	7100001f 	cmp	w0, #0x0
  200624:	54000100 	b.eq	200644 <_ntoa_format+0x308>  // b.none
/Users/jd/trustworthy-systems/arinc/ARINC/t1_prototype/microkit_tutorial/prototype_t1/build/../printf.c:272
  200628:	f94013e0 	ldr	x0, [sp, #32]
  20062c:	91000401 	add	x1, x0, #0x1
  200630:	f90013e1 	str	x1, [sp, #32]
  200634:	f94017e1 	ldr	x1, [sp, #40]
  200638:	8b000020 	add	x0, x1, x0
  20063c:	52800401 	mov	w1, #0x20                  	// #32
  200640:	39000001 	strb	w1, [x0]
/Users/jd/trustworthy-systems/arinc/ARINC/t1_prototype/microkit_tutorial/prototype_t1/build/../printf.c:276
  200644:	b94063e7 	ldr	w7, [sp, #96]
  200648:	b9405be6 	ldr	w6, [sp, #88]
  20064c:	f94013e5 	ldr	x5, [sp, #32]
  200650:	f94017e4 	ldr	x4, [sp, #40]
  200654:	f9401be3 	ldr	x3, [sp, #48]
  200658:	f9401fe2 	ldr	x2, [sp, #56]
  20065c:	f94023e1 	ldr	x1, [sp, #64]
  200660:	f94027e0 	ldr	x0, [sp, #72]
  200664:	97fffee4 	bl	2001f4 <_out_rev>
/Users/jd/trustworthy-systems/arinc/ARINC/t1_prototype/microkit_tutorial/prototype_t1/build/../printf.c:277
  200668:	a8c57bfd 	ldp	x29, x30, [sp], #80
  20066c:	d65f03c0 	ret

0000000000200670 <_ntoa_long>:
_ntoa_long():
/Users/jd/trustworthy-systems/arinc/ARINC/t1_prototype/microkit_tutorial/prototype_t1/build/../printf.c:282
  200670:	d10283ff 	sub	sp, sp, #0xa0
  200674:	a9027bfd 	stp	x29, x30, [sp, #32]
  200678:	910083fd 	add	x29, sp, #0x20
  20067c:	f90037e0 	str	x0, [sp, #104]
  200680:	f90033e1 	str	x1, [sp, #96]
  200684:	f9002fe2 	str	x2, [sp, #88]
  200688:	f9002be3 	str	x3, [sp, #80]
  20068c:	f90027e4 	str	x4, [sp, #72]
  200690:	39011fe5 	strb	w5, [sp, #71]
  200694:	f9001fe6 	str	x6, [sp, #56]
  200698:	b90043e7 	str	w7, [sp, #64]
/Users/jd/trustworthy-systems/arinc/ARINC/t1_prototype/microkit_tutorial/prototype_t1/build/../printf.c:284
  20069c:	f9004fff 	str	xzr, [sp, #152]
/Users/jd/trustworthy-systems/arinc/ARINC/t1_prototype/microkit_tutorial/prototype_t1/build/../printf.c:287
  2006a0:	f94027e0 	ldr	x0, [sp, #72]
  2006a4:	f100001f 	cmp	x0, #0x0
  2006a8:	54000081 	b.ne	2006b8 <_ntoa_long+0x48>  // b.any
/Users/jd/trustworthy-systems/arinc/ARINC/t1_prototype/microkit_tutorial/prototype_t1/build/../printf.c:288
  2006ac:	b940abe0 	ldr	w0, [sp, #168]
  2006b0:	121b7800 	and	w0, w0, #0xffffffef
  2006b4:	b900abe0 	str	w0, [sp, #168]
/Users/jd/trustworthy-systems/arinc/ARINC/t1_prototype/microkit_tutorial/prototype_t1/build/../printf.c:292
  2006b8:	b940abe0 	ldr	w0, [sp, #168]
  2006bc:	12160000 	and	w0, w0, #0x400
  2006c0:	7100001f 	cmp	w0, #0x0
  2006c4:	54000080 	b.eq	2006d4 <_ntoa_long+0x64>  // b.none
/Users/jd/trustworthy-systems/arinc/ARINC/t1_prototype/microkit_tutorial/prototype_t1/build/../printf.c:292 (discriminator 1)
  2006c8:	f94027e0 	ldr	x0, [sp, #72]
  2006cc:	f100001f 	cmp	x0, #0x0
  2006d0:	54000540 	b.eq	200778 <_ntoa_long+0x108>  // b.none
/Users/jd/trustworthy-systems/arinc/ARINC/t1_prototype/microkit_tutorial/prototype_t1/build/../printf.c:294
  2006d4:	f94027e0 	ldr	x0, [sp, #72]
  2006d8:	f9401fe1 	ldr	x1, [sp, #56]
  2006dc:	9ac10802 	udiv	x2, x0, x1
  2006e0:	f9401fe1 	ldr	x1, [sp, #56]
  2006e4:	9b017c41 	mul	x1, x2, x1
  2006e8:	cb010000 	sub	x0, x0, x1
  2006ec:	39025fe0 	strb	w0, [sp, #151]
/Users/jd/trustworthy-systems/arinc/ARINC/t1_prototype/microkit_tutorial/prototype_t1/build/../printf.c:295
  2006f0:	39425fe0 	ldrb	w0, [sp, #151]
  2006f4:	7100241f 	cmp	w0, #0x9
  2006f8:	540000a8 	b.hi	20070c <_ntoa_long+0x9c>  // b.pmore
/Users/jd/trustworthy-systems/arinc/ARINC/t1_prototype/microkit_tutorial/prototype_t1/build/../printf.c:295 (discriminator 1)
  2006fc:	39425fe0 	ldrb	w0, [sp, #151]
  200700:	1100c000 	add	w0, w0, #0x30
  200704:	12001c01 	and	w1, w0, #0xff
  200708:	1400000d 	b	20073c <_ntoa_long+0xcc>
/Users/jd/trustworthy-systems/arinc/ARINC/t1_prototype/microkit_tutorial/prototype_t1/build/../printf.c:295 (discriminator 2)
  20070c:	b940abe0 	ldr	w0, [sp, #168]
  200710:	121b0000 	and	w0, w0, #0x20
  200714:	7100001f 	cmp	w0, #0x0
  200718:	54000060 	b.eq	200724 <_ntoa_long+0xb4>  // b.none
/Users/jd/trustworthy-systems/arinc/ARINC/t1_prototype/microkit_tutorial/prototype_t1/build/../printf.c:295 (discriminator 4)
  20071c:	52800820 	mov	w0, #0x41                  	// #65
  200720:	14000002 	b	200728 <_ntoa_long+0xb8>
/Users/jd/trustworthy-systems/arinc/ARINC/t1_prototype/microkit_tutorial/prototype_t1/build/../printf.c:295 (discriminator 5)
  200724:	52800c20 	mov	w0, #0x61                  	// #97
/Users/jd/trustworthy-systems/arinc/ARINC/t1_prototype/microkit_tutorial/prototype_t1/build/../printf.c:295 (discriminator 7)
  200728:	39425fe1 	ldrb	w1, [sp, #151]
  20072c:	0b010000 	add	w0, w0, w1
  200730:	12001c00 	and	w0, w0, #0xff
  200734:	51002800 	sub	w0, w0, #0xa
  200738:	12001c01 	and	w1, w0, #0xff
/Users/jd/trustworthy-systems/arinc/ARINC/t1_prototype/microkit_tutorial/prototype_t1/build/../printf.c:295 (discriminator 8)
  20073c:	f9404fe0 	ldr	x0, [sp, #152]
  200740:	91000402 	add	x2, x0, #0x1
  200744:	f9004fe2 	str	x2, [sp, #152]
  200748:	9101c3e2 	add	x2, sp, #0x70
  20074c:	38206841 	strb	w1, [x2, x0]
/Users/jd/trustworthy-systems/arinc/ARINC/t1_prototype/microkit_tutorial/prototype_t1/build/../printf.c:296
  200750:	f94027e1 	ldr	x1, [sp, #72]
  200754:	f9401fe0 	ldr	x0, [sp, #56]
  200758:	9ac00820 	udiv	x0, x1, x0
  20075c:	f90027e0 	str	x0, [sp, #72]
/Users/jd/trustworthy-systems/arinc/ARINC/t1_prototype/microkit_tutorial/prototype_t1/build/../printf.c:297
  200760:	f94027e0 	ldr	x0, [sp, #72]
  200764:	f100001f 	cmp	x0, #0x0
  200768:	54000080 	b.eq	200778 <_ntoa_long+0x108>  // b.none
/Users/jd/trustworthy-systems/arinc/ARINC/t1_prototype/microkit_tutorial/prototype_t1/build/../printf.c:297 (discriminator 1)
  20076c:	f9404fe0 	ldr	x0, [sp, #152]
  200770:	f1007c1f 	cmp	x0, #0x1f
  200774:	54fffb09 	b.ls	2006d4 <_ntoa_long+0x64>  // b.plast
/Users/jd/trustworthy-systems/arinc/ARINC/t1_prototype/microkit_tutorial/prototype_t1/build/../printf.c:300
  200778:	f9401fe0 	ldr	x0, [sp, #56]
  20077c:	2a0003e2 	mov	w2, w0
  200780:	9101c3e1 	add	x1, sp, #0x70
  200784:	b940abe0 	ldr	w0, [sp, #168]
  200788:	b90013e0 	str	w0, [sp, #16]
  20078c:	b940a3e0 	ldr	w0, [sp, #160]
  200790:	b9000be0 	str	w0, [sp, #8]
  200794:	b94043e0 	ldr	w0, [sp, #64]
  200798:	b90003e0 	str	w0, [sp]
  20079c:	2a0203e7 	mov	w7, w2
  2007a0:	39411fe6 	ldrb	w6, [sp, #71]
  2007a4:	f9404fe5 	ldr	x5, [sp, #152]
  2007a8:	aa0103e4 	mov	x4, x1
  2007ac:	f9402be3 	ldr	x3, [sp, #80]
  2007b0:	f9402fe2 	ldr	x2, [sp, #88]
  2007b4:	f94033e1 	ldr	x1, [sp, #96]
  2007b8:	f94037e0 	ldr	x0, [sp, #104]
  2007bc:	97fffee0 	bl	20033c <_ntoa_format>
/Users/jd/trustworthy-systems/arinc/ARINC/t1_prototype/microkit_tutorial/prototype_t1/build/../printf.c:301
  2007c0:	a9427bfd 	ldp	x29, x30, [sp, #32]
  2007c4:	910283ff 	add	sp, sp, #0xa0
  2007c8:	d65f03c0 	ret

00000000002007cc <_ntoa_long_long>:
_ntoa_long_long():
/Users/jd/trustworthy-systems/arinc/ARINC/t1_prototype/microkit_tutorial/prototype_t1/build/../printf.c:307
  2007cc:	d10283ff 	sub	sp, sp, #0xa0
  2007d0:	a9027bfd 	stp	x29, x30, [sp, #32]
  2007d4:	910083fd 	add	x29, sp, #0x20
  2007d8:	f90037e0 	str	x0, [sp, #104]
  2007dc:	f90033e1 	str	x1, [sp, #96]
  2007e0:	f9002fe2 	str	x2, [sp, #88]
  2007e4:	f9002be3 	str	x3, [sp, #80]
  2007e8:	f90027e4 	str	x4, [sp, #72]
  2007ec:	39011fe5 	strb	w5, [sp, #71]
  2007f0:	f9001fe6 	str	x6, [sp, #56]
  2007f4:	b90043e7 	str	w7, [sp, #64]
/Users/jd/trustworthy-systems/arinc/ARINC/t1_prototype/microkit_tutorial/prototype_t1/build/../printf.c:309
  2007f8:	f9004fff 	str	xzr, [sp, #152]
/Users/jd/trustworthy-systems/arinc/ARINC/t1_prototype/microkit_tutorial/prototype_t1/build/../printf.c:312
  2007fc:	f94027e0 	ldr	x0, [sp, #72]
  200800:	f100001f 	cmp	x0, #0x0
  200804:	54000081 	b.ne	200814 <_ntoa_long_long+0x48>  // b.any
/Users/jd/trustworthy-systems/arinc/ARINC/t1_prototype/microkit_tutorial/prototype_t1/build/../printf.c:313
  200808:	b940abe0 	ldr	w0, [sp, #168]
  20080c:	121b7800 	and	w0, w0, #0xffffffef
  200810:	b900abe0 	str	w0, [sp, #168]
/Users/jd/trustworthy-systems/arinc/ARINC/t1_prototype/microkit_tutorial/prototype_t1/build/../printf.c:317
  200814:	b940abe0 	ldr	w0, [sp, #168]
  200818:	12160000 	and	w0, w0, #0x400
  20081c:	7100001f 	cmp	w0, #0x0
  200820:	54000080 	b.eq	200830 <_ntoa_long_long+0x64>  // b.none
/Users/jd/trustworthy-systems/arinc/ARINC/t1_prototype/microkit_tutorial/prototype_t1/build/../printf.c:317 (discriminator 1)
  200824:	f94027e0 	ldr	x0, [sp, #72]
  200828:	f100001f 	cmp	x0, #0x0
  20082c:	54000540 	b.eq	2008d4 <_ntoa_long_long+0x108>  // b.none
/Users/jd/trustworthy-systems/arinc/ARINC/t1_prototype/microkit_tutorial/prototype_t1/build/../printf.c:319
  200830:	f94027e0 	ldr	x0, [sp, #72]
  200834:	f9401fe1 	ldr	x1, [sp, #56]
  200838:	9ac10802 	udiv	x2, x0, x1
  20083c:	f9401fe1 	ldr	x1, [sp, #56]
  200840:	9b017c41 	mul	x1, x2, x1
  200844:	cb010000 	sub	x0, x0, x1
  200848:	39025fe0 	strb	w0, [sp, #151]
/Users/jd/trustworthy-systems/arinc/ARINC/t1_prototype/microkit_tutorial/prototype_t1/build/../printf.c:320
  20084c:	39425fe0 	ldrb	w0, [sp, #151]
  200850:	7100241f 	cmp	w0, #0x9
  200854:	540000a8 	b.hi	200868 <_ntoa_long_long+0x9c>  // b.pmore
/Users/jd/trustworthy-systems/arinc/ARINC/t1_prototype/microkit_tutorial/prototype_t1/build/../printf.c:320 (discriminator 1)
  200858:	39425fe0 	ldrb	w0, [sp, #151]
  20085c:	1100c000 	add	w0, w0, #0x30
  200860:	12001c01 	and	w1, w0, #0xff
  200864:	1400000d 	b	200898 <_ntoa_long_long+0xcc>
/Users/jd/trustworthy-systems/arinc/ARINC/t1_prototype/microkit_tutorial/prototype_t1/build/../printf.c:320 (discriminator 2)
  200868:	b940abe0 	ldr	w0, [sp, #168]
  20086c:	121b0000 	and	w0, w0, #0x20
  200870:	7100001f 	cmp	w0, #0x0
  200874:	54000060 	b.eq	200880 <_ntoa_long_long+0xb4>  // b.none
/Users/jd/trustworthy-systems/arinc/ARINC/t1_prototype/microkit_tutorial/prototype_t1/build/../printf.c:320 (discriminator 4)
  200878:	52800820 	mov	w0, #0x41                  	// #65
  20087c:	14000002 	b	200884 <_ntoa_long_long+0xb8>
/Users/jd/trustworthy-systems/arinc/ARINC/t1_prototype/microkit_tutorial/prototype_t1/build/../printf.c:320 (discriminator 5)
  200880:	52800c20 	mov	w0, #0x61                  	// #97
/Users/jd/trustworthy-systems/arinc/ARINC/t1_prototype/microkit_tutorial/prototype_t1/build/../printf.c:320 (discriminator 7)
  200884:	39425fe1 	ldrb	w1, [sp, #151]
  200888:	0b010000 	add	w0, w0, w1
  20088c:	12001c00 	and	w0, w0, #0xff
  200890:	51002800 	sub	w0, w0, #0xa
  200894:	12001c01 	and	w1, w0, #0xff
/Users/jd/trustworthy-systems/arinc/ARINC/t1_prototype/microkit_tutorial/prototype_t1/build/../printf.c:320 (discriminator 8)
  200898:	f9404fe0 	ldr	x0, [sp, #152]
  20089c:	91000402 	add	x2, x0, #0x1
  2008a0:	f9004fe2 	str	x2, [sp, #152]
  2008a4:	9101c3e2 	add	x2, sp, #0x70
  2008a8:	38206841 	strb	w1, [x2, x0]
/Users/jd/trustworthy-systems/arinc/ARINC/t1_prototype/microkit_tutorial/prototype_t1/build/../printf.c:321
  2008ac:	f94027e1 	ldr	x1, [sp, #72]
  2008b0:	f9401fe0 	ldr	x0, [sp, #56]
  2008b4:	9ac00820 	udiv	x0, x1, x0
  2008b8:	f90027e0 	str	x0, [sp, #72]
/Users/jd/trustworthy-systems/arinc/ARINC/t1_prototype/microkit_tutorial/prototype_t1/build/../printf.c:322
  2008bc:	f94027e0 	ldr	x0, [sp, #72]
  2008c0:	f100001f 	cmp	x0, #0x0
  2008c4:	54000080 	b.eq	2008d4 <_ntoa_long_long+0x108>  // b.none
/Users/jd/trustworthy-systems/arinc/ARINC/t1_prototype/microkit_tutorial/prototype_t1/build/../printf.c:322 (discriminator 1)
  2008c8:	f9404fe0 	ldr	x0, [sp, #152]
  2008cc:	f1007c1f 	cmp	x0, #0x1f
  2008d0:	54fffb09 	b.ls	200830 <_ntoa_long_long+0x64>  // b.plast
/Users/jd/trustworthy-systems/arinc/ARINC/t1_prototype/microkit_tutorial/prototype_t1/build/../printf.c:325
  2008d4:	f9401fe0 	ldr	x0, [sp, #56]
  2008d8:	2a0003e2 	mov	w2, w0
  2008dc:	9101c3e1 	add	x1, sp, #0x70
  2008e0:	b940abe0 	ldr	w0, [sp, #168]
  2008e4:	b90013e0 	str	w0, [sp, #16]
  2008e8:	b940a3e0 	ldr	w0, [sp, #160]
  2008ec:	b9000be0 	str	w0, [sp, #8]
  2008f0:	b94043e0 	ldr	w0, [sp, #64]
  2008f4:	b90003e0 	str	w0, [sp]
  2008f8:	2a0203e7 	mov	w7, w2
  2008fc:	39411fe6 	ldrb	w6, [sp, #71]
  200900:	f9404fe5 	ldr	x5, [sp, #152]
  200904:	aa0103e4 	mov	x4, x1
  200908:	f9402be3 	ldr	x3, [sp, #80]
  20090c:	f9402fe2 	ldr	x2, [sp, #88]
  200910:	f94033e1 	ldr	x1, [sp, #96]
  200914:	f94037e0 	ldr	x0, [sp, #104]
  200918:	97fffe89 	bl	20033c <_ntoa_format>
/Users/jd/trustworthy-systems/arinc/ARINC/t1_prototype/microkit_tutorial/prototype_t1/build/../printf.c:326
  20091c:	a9427bfd 	ldp	x29, x30, [sp, #32]
  200920:	910283ff 	add	sp, sp, #0xa0
  200924:	d65f03c0 	ret

0000000000200928 <_ftoa>:
_ftoa():
/Users/jd/trustworthy-systems/arinc/ARINC/t1_prototype/microkit_tutorial/prototype_t1/build/../printf.c:340
  200928:	a9b67bfd 	stp	x29, x30, [sp, #-160]!
  20092c:	910003fd 	mov	x29, sp
  200930:	f90027e0 	str	x0, [sp, #72]
  200934:	f90023e1 	str	x1, [sp, #64]
  200938:	f9001fe2 	str	x2, [sp, #56]
  20093c:	f9001be3 	str	x3, [sp, #48]
  200940:	fd0017e0 	str	d0, [sp, #40]
  200944:	b90027e4 	str	w4, [sp, #36]
  200948:	b90023e5 	str	w5, [sp, #32]
  20094c:	b9001fe6 	str	w6, [sp, #28]
/Users/jd/trustworthy-systems/arinc/ARINC/t1_prototype/microkit_tutorial/prototype_t1/build/../printf.c:342
  200950:	f9004fff 	str	xzr, [sp, #152]
/Users/jd/trustworthy-systems/arinc/ARINC/t1_prototype/microkit_tutorial/prototype_t1/build/../printf.c:343
  200954:	f9003fff 	str	xzr, [sp, #120]
/Users/jd/trustworthy-systems/arinc/ARINC/t1_prototype/microkit_tutorial/prototype_t1/build/../printf.c:349
  200958:	fd4017e1 	ldr	d1, [sp, #40]
  20095c:	fd4017e0 	ldr	d0, [sp, #40]
  200960:	1e602020 	fcmp	d1, d0
  200964:	54000180 	b.eq	200994 <_ftoa+0x6c>  // b.none
/Users/jd/trustworthy-systems/arinc/ARINC/t1_prototype/microkit_tutorial/prototype_t1/build/../printf.c:350
  200968:	b9401fe7 	ldr	w7, [sp, #28]
  20096c:	b94023e6 	ldr	w6, [sp, #32]
  200970:	d2800065 	mov	x5, #0x3                   	// #3
  200974:	90000020 	adrp	x0, 204000 <main+0xc0>
  200978:	91096004 	add	x4, x0, #0x258
  20097c:	f9401be3 	ldr	x3, [sp, #48]
  200980:	f9401fe2 	ldr	x2, [sp, #56]
  200984:	f94023e1 	ldr	x1, [sp, #64]
  200988:	f94027e0 	ldr	x0, [sp, #72]
  20098c:	97fffe1a 	bl	2001f4 <_out_rev>
  200990:	14000176 	b	200f68 <_ftoa+0x640>
/Users/jd/trustworthy-systems/arinc/ARINC/t1_prototype/microkit_tutorial/prototype_t1/build/../printf.c:351
  200994:	fd4017e0 	ldr	d0, [sp, #40]
  200998:	92e00200 	mov	x0, #0xffefffffffffffff    	// #-4503599627370497
  20099c:	9e670001 	fmov	d1, x0
  2009a0:	1e612010 	fcmpe	d0, d1
  2009a4:	54000044 	b.mi	2009ac <_ftoa+0x84>  // b.first
  2009a8:	1400000c 	b	2009d8 <_ftoa+0xb0>
/Users/jd/trustworthy-systems/arinc/ARINC/t1_prototype/microkit_tutorial/prototype_t1/build/../printf.c:352
  2009ac:	b9401fe7 	ldr	w7, [sp, #28]
  2009b0:	b94023e6 	ldr	w6, [sp, #32]
  2009b4:	d2800085 	mov	x5, #0x4                   	// #4
  2009b8:	90000020 	adrp	x0, 204000 <main+0xc0>
  2009bc:	91098004 	add	x4, x0, #0x260
  2009c0:	f9401be3 	ldr	x3, [sp, #48]
  2009c4:	f9401fe2 	ldr	x2, [sp, #56]
  2009c8:	f94023e1 	ldr	x1, [sp, #64]
  2009cc:	f94027e0 	ldr	x0, [sp, #72]
  2009d0:	97fffe09 	bl	2001f4 <_out_rev>
  2009d4:	14000165 	b	200f68 <_ftoa+0x640>
/Users/jd/trustworthy-systems/arinc/ARINC/t1_prototype/microkit_tutorial/prototype_t1/build/../printf.c:353
  2009d8:	fd4017e0 	ldr	d0, [sp, #40]
  2009dc:	92f00200 	mov	x0, #0x7fefffffffffffff    	// #9218868437227405311
  2009e0:	9e670001 	fmov	d1, x0
  2009e4:	1e612010 	fcmpe	d0, d1
  2009e8:	5400004c 	b.gt	2009f0 <_ftoa+0xc8>
  2009ec:	1400001b 	b	200a58 <_ftoa+0x130>
/Users/jd/trustworthy-systems/arinc/ARINC/t1_prototype/microkit_tutorial/prototype_t1/build/../printf.c:354
  2009f0:	b9401fe0 	ldr	w0, [sp, #28]
  2009f4:	121e0000 	and	w0, w0, #0x4
  2009f8:	7100001f 	cmp	w0, #0x0
  2009fc:	54000080 	b.eq	200a0c <_ftoa+0xe4>  // b.none
/Users/jd/trustworthy-systems/arinc/ARINC/t1_prototype/microkit_tutorial/prototype_t1/build/../printf.c:354 (discriminator 1)
  200a00:	90000020 	adrp	x0, 204000 <main+0xc0>
  200a04:	9109a000 	add	x0, x0, #0x268
  200a08:	14000003 	b	200a14 <_ftoa+0xec>
/Users/jd/trustworthy-systems/arinc/ARINC/t1_prototype/microkit_tutorial/prototype_t1/build/../printf.c:354 (discriminator 2)
  200a0c:	90000020 	adrp	x0, 204000 <main+0xc0>
  200a10:	9109c000 	add	x0, x0, #0x270
/Users/jd/trustworthy-systems/arinc/ARINC/t1_prototype/microkit_tutorial/prototype_t1/build/../printf.c:354 (discriminator 4)
  200a14:	b9401fe1 	ldr	w1, [sp, #28]
  200a18:	121e0021 	and	w1, w1, #0x4
  200a1c:	7100003f 	cmp	w1, #0x0
  200a20:	54000060 	b.eq	200a2c <_ftoa+0x104>  // b.none
/Users/jd/trustworthy-systems/arinc/ARINC/t1_prototype/microkit_tutorial/prototype_t1/build/../printf.c:354 (discriminator 5)
  200a24:	d2800081 	mov	x1, #0x4                   	// #4
  200a28:	14000002 	b	200a30 <_ftoa+0x108>
/Users/jd/trustworthy-systems/arinc/ARINC/t1_prototype/microkit_tutorial/prototype_t1/build/../printf.c:354 (discriminator 6)
  200a2c:	d2800061 	mov	x1, #0x3                   	// #3
/Users/jd/trustworthy-systems/arinc/ARINC/t1_prototype/microkit_tutorial/prototype_t1/build/../printf.c:354 (discriminator 8)
  200a30:	b9401fe7 	ldr	w7, [sp, #28]
  200a34:	b94023e6 	ldr	w6, [sp, #32]
  200a38:	aa0103e5 	mov	x5, x1
  200a3c:	aa0003e4 	mov	x4, x0
  200a40:	f9401be3 	ldr	x3, [sp, #48]
  200a44:	f9401fe2 	ldr	x2, [sp, #56]
  200a48:	f94023e1 	ldr	x1, [sp, #64]
  200a4c:	f94027e0 	ldr	x0, [sp, #72]
  200a50:	97fffde9 	bl	2001f4 <_out_rev>
/Users/jd/trustworthy-systems/arinc/ARINC/t1_prototype/microkit_tutorial/prototype_t1/build/../printf.c:354
  200a54:	14000145 	b	200f68 <_ftoa+0x640>
/Users/jd/trustworthy-systems/arinc/ARINC/t1_prototype/microkit_tutorial/prototype_t1/build/../printf.c:358
  200a58:	fd4017e0 	ldr	d0, [sp, #40]
  200a5c:	d2d9aca0 	mov	x0, #0xcd6500000000        	// #225833675390976
  200a60:	f2e839a0 	movk	x0, #0x41cd, lsl #48
  200a64:	9e670001 	fmov	d1, x0
  200a68:	1e612010 	fcmpe	d0, d1
  200a6c:	5400010c 	b.gt	200a8c <_ftoa+0x164>
/Users/jd/trustworthy-systems/arinc/ARINC/t1_prototype/microkit_tutorial/prototype_t1/build/../printf.c:358 (discriminator 1)
  200a70:	fd4017e0 	ldr	d0, [sp, #40]
  200a74:	d2d9aca0 	mov	x0, #0xcd6500000000        	// #225833675390976
  200a78:	f2f839a0 	movk	x0, #0xc1cd, lsl #48
  200a7c:	9e670001 	fmov	d1, x0
  200a80:	1e612010 	fcmpe	d0, d1
  200a84:	54000044 	b.mi	200a8c <_ftoa+0x164>  // b.first
  200a88:	1400000b 	b	200ab4 <_ftoa+0x18c>
/Users/jd/trustworthy-systems/arinc/ARINC/t1_prototype/microkit_tutorial/prototype_t1/build/../printf.c:360
  200a8c:	b9401fe6 	ldr	w6, [sp, #28]
  200a90:	b94023e5 	ldr	w5, [sp, #32]
  200a94:	b94027e4 	ldr	w4, [sp, #36]
  200a98:	fd4017e0 	ldr	d0, [sp, #40]
  200a9c:	f9401be3 	ldr	x3, [sp, #48]
  200aa0:	f9401fe2 	ldr	x2, [sp, #56]
  200aa4:	f94023e1 	ldr	x1, [sp, #64]
  200aa8:	f94027e0 	ldr	x0, [sp, #72]
  200aac:	94000131 	bl	200f70 <_etoa>
  200ab0:	1400012e 	b	200f68 <_ftoa+0x640>
/Users/jd/trustworthy-systems/arinc/ARINC/t1_prototype/microkit_tutorial/prototype_t1/build/../printf.c:367
  200ab4:	39025fff 	strb	wzr, [sp, #151]
/Users/jd/trustworthy-systems/arinc/ARINC/t1_prototype/microkit_tutorial/prototype_t1/build/../printf.c:368
  200ab8:	fd4017e0 	ldr	d0, [sp, #40]
  200abc:	1e602018 	fcmpe	d0, #0.0
  200ac0:	54000044 	b.mi	200ac8 <_ftoa+0x1a0>  // b.first
  200ac4:	14000007 	b	200ae0 <_ftoa+0x1b8>
/Users/jd/trustworthy-systems/arinc/ARINC/t1_prototype/microkit_tutorial/prototype_t1/build/../printf.c:369
  200ac8:	52800020 	mov	w0, #0x1                   	// #1
  200acc:	39025fe0 	strb	w0, [sp, #151]
/Users/jd/trustworthy-systems/arinc/ARINC/t1_prototype/microkit_tutorial/prototype_t1/build/../printf.c:370
  200ad0:	2f00e401 	movi	d1, #0x0
  200ad4:	fd4017e0 	ldr	d0, [sp, #40]
  200ad8:	1e603820 	fsub	d0, d1, d0
  200adc:	fd0017e0 	str	d0, [sp, #40]
/Users/jd/trustworthy-systems/arinc/ARINC/t1_prototype/microkit_tutorial/prototype_t1/build/../printf.c:374
  200ae0:	b9401fe0 	ldr	w0, [sp, #28]
  200ae4:	12160000 	and	w0, w0, #0x400
  200ae8:	7100001f 	cmp	w0, #0x0
  200aec:	540001a1 	b.ne	200b20 <_ftoa+0x1f8>  // b.any
/Users/jd/trustworthy-systems/arinc/ARINC/t1_prototype/microkit_tutorial/prototype_t1/build/../printf.c:375
  200af0:	528000c0 	mov	w0, #0x6                   	// #6
  200af4:	b90027e0 	str	w0, [sp, #36]
/Users/jd/trustworthy-systems/arinc/ARINC/t1_prototype/microkit_tutorial/prototype_t1/build/../printf.c:378
  200af8:	1400000a 	b	200b20 <_ftoa+0x1f8>
/Users/jd/trustworthy-systems/arinc/ARINC/t1_prototype/microkit_tutorial/prototype_t1/build/../printf.c:379
  200afc:	f9404fe0 	ldr	x0, [sp, #152]
  200b00:	91000401 	add	x1, x0, #0x1
  200b04:	f9004fe1 	str	x1, [sp, #152]
  200b08:	910143e1 	add	x1, sp, #0x50
  200b0c:	52800602 	mov	w2, #0x30                  	// #48
  200b10:	38206822 	strb	w2, [x1, x0]
/Users/jd/trustworthy-systems/arinc/ARINC/t1_prototype/microkit_tutorial/prototype_t1/build/../printf.c:380
  200b14:	b94027e0 	ldr	w0, [sp, #36]
  200b18:	51000400 	sub	w0, w0, #0x1
  200b1c:	b90027e0 	str	w0, [sp, #36]
/Users/jd/trustworthy-systems/arinc/ARINC/t1_prototype/microkit_tutorial/prototype_t1/build/../printf.c:378
  200b20:	f9404fe0 	ldr	x0, [sp, #152]
  200b24:	f1007c1f 	cmp	x0, #0x1f
  200b28:	54000088 	b.hi	200b38 <_ftoa+0x210>  // b.pmore
/Users/jd/trustworthy-systems/arinc/ARINC/t1_prototype/microkit_tutorial/prototype_t1/build/../printf.c:378 (discriminator 1)
  200b2c:	b94027e0 	ldr	w0, [sp, #36]
  200b30:	7100241f 	cmp	w0, #0x9
  200b34:	54fffe48 	b.hi	200afc <_ftoa+0x1d4>  // b.pmore
/Users/jd/trustworthy-systems/arinc/ARINC/t1_prototype/microkit_tutorial/prototype_t1/build/../printf.c:383
  200b38:	fd4017e0 	ldr	d0, [sp, #40]
  200b3c:	1e780000 	fcvtzs	w0, d0
  200b40:	b90093e0 	str	w0, [sp, #144]
/Users/jd/trustworthy-systems/arinc/ARINC/t1_prototype/microkit_tutorial/prototype_t1/build/../printf.c:384
  200b44:	b94093e0 	ldr	w0, [sp, #144]
  200b48:	1e620000 	scvtf	d0, w0
  200b4c:	fd4017e1 	ldr	d1, [sp, #40]
  200b50:	1e603821 	fsub	d1, d1, d0
  200b54:	90000020 	adrp	x0, 204000 <main+0xc0>
  200b58:	910e0000 	add	x0, x0, #0x380
  200b5c:	b94027e1 	ldr	w1, [sp, #36]
  200b60:	fc617800 	ldr	d0, [x0, x1, lsl #3]
  200b64:	1e600820 	fmul	d0, d1, d0
  200b68:	fd003be0 	str	d0, [sp, #112]
/Users/jd/trustworthy-systems/arinc/ARINC/t1_prototype/microkit_tutorial/prototype_t1/build/../printf.c:385
  200b6c:	fd403be0 	ldr	d0, [sp, #112]
  200b70:	7ee1b800 	fcvtzu	d0, d0
  200b74:	fd0047e0 	str	d0, [sp, #136]
/Users/jd/trustworthy-systems/arinc/ARINC/t1_prototype/microkit_tutorial/prototype_t1/build/../printf.c:386
  200b78:	fd4047e0 	ldr	d0, [sp, #136]
  200b7c:	7e61d800 	ucvtf	d0, d0
  200b80:	fd403be1 	ldr	d1, [sp, #112]
  200b84:	1e603820 	fsub	d0, d1, d0
  200b88:	fd003fe0 	str	d0, [sp, #120]
/Users/jd/trustworthy-systems/arinc/ARINC/t1_prototype/microkit_tutorial/prototype_t1/build/../printf.c:388
  200b8c:	fd403fe1 	ldr	d1, [sp, #120]
  200b90:	1e6c1000 	fmov	d0, #5.000000000000000000e-01
  200b94:	1e602030 	fcmpe	d1, d0
  200b98:	5400004c 	b.gt	200ba0 <_ftoa+0x278>
  200b9c:	14000012 	b	200be4 <_ftoa+0x2bc>
/Users/jd/trustworthy-systems/arinc/ARINC/t1_prototype/microkit_tutorial/prototype_t1/build/../printf.c:389
  200ba0:	f94047e0 	ldr	x0, [sp, #136]
  200ba4:	91000400 	add	x0, x0, #0x1
  200ba8:	f90047e0 	str	x0, [sp, #136]
/Users/jd/trustworthy-systems/arinc/ARINC/t1_prototype/microkit_tutorial/prototype_t1/build/../printf.c:391
  200bac:	fd4047e0 	ldr	d0, [sp, #136]
  200bb0:	7e61d801 	ucvtf	d1, d0
  200bb4:	90000020 	adrp	x0, 204000 <main+0xc0>
  200bb8:	910e0000 	add	x0, x0, #0x380
  200bbc:	b94027e1 	ldr	w1, [sp, #36]
  200bc0:	fc617800 	ldr	d0, [x0, x1, lsl #3]
  200bc4:	1e602030 	fcmpe	d1, d0
  200bc8:	5400004a 	b.ge	200bd0 <_ftoa+0x2a8>  // b.tcont
  200bcc:	14000014 	b	200c1c <_ftoa+0x2f4>
/Users/jd/trustworthy-systems/arinc/ARINC/t1_prototype/microkit_tutorial/prototype_t1/build/../printf.c:392
  200bd0:	f90047ff 	str	xzr, [sp, #136]
/Users/jd/trustworthy-systems/arinc/ARINC/t1_prototype/microkit_tutorial/prototype_t1/build/../printf.c:393
  200bd4:	b94093e0 	ldr	w0, [sp, #144]
  200bd8:	11000400 	add	w0, w0, #0x1
  200bdc:	b90093e0 	str	w0, [sp, #144]
  200be0:	1400000f 	b	200c1c <_ftoa+0x2f4>
/Users/jd/trustworthy-systems/arinc/ARINC/t1_prototype/microkit_tutorial/prototype_t1/build/../printf.c:396
  200be4:	fd403fe1 	ldr	d1, [sp, #120]
  200be8:	1e6c1000 	fmov	d0, #5.000000000000000000e-01
  200bec:	1e602030 	fcmpe	d1, d0
  200bf0:	54000164 	b.mi	200c1c <_ftoa+0x2f4>  // b.first
/Users/jd/trustworthy-systems/arinc/ARINC/t1_prototype/microkit_tutorial/prototype_t1/build/../printf.c:398
  200bf4:	f94047e0 	ldr	x0, [sp, #136]
  200bf8:	f100001f 	cmp	x0, #0x0
  200bfc:	540000a0 	b.eq	200c10 <_ftoa+0x2e8>  // b.none
/Users/jd/trustworthy-systems/arinc/ARINC/t1_prototype/microkit_tutorial/prototype_t1/build/../printf.c:398 (discriminator 1)
  200c00:	f94047e0 	ldr	x0, [sp, #136]
  200c04:	92400000 	and	x0, x0, #0x1
  200c08:	f100001f 	cmp	x0, #0x0
  200c0c:	54000080 	b.eq	200c1c <_ftoa+0x2f4>  // b.none
/Users/jd/trustworthy-systems/arinc/ARINC/t1_prototype/microkit_tutorial/prototype_t1/build/../printf.c:400
  200c10:	f94047e0 	ldr	x0, [sp, #136]
  200c14:	91000400 	add	x0, x0, #0x1
  200c18:	f90047e0 	str	x0, [sp, #136]
/Users/jd/trustworthy-systems/arinc/ARINC/t1_prototype/microkit_tutorial/prototype_t1/build/../printf.c:403
  200c1c:	b94027e0 	ldr	w0, [sp, #36]
  200c20:	7100001f 	cmp	w0, #0x0
  200c24:	540003a1 	b.ne	200c98 <_ftoa+0x370>  // b.any
/Users/jd/trustworthy-systems/arinc/ARINC/t1_prototype/microkit_tutorial/prototype_t1/build/../printf.c:404
  200c28:	b94093e0 	ldr	w0, [sp, #144]
  200c2c:	1e620000 	scvtf	d0, w0
  200c30:	fd4017e1 	ldr	d1, [sp, #40]
  200c34:	1e603820 	fsub	d0, d1, d0
  200c38:	fd003fe0 	str	d0, [sp, #120]
/Users/jd/trustworthy-systems/arinc/ARINC/t1_prototype/microkit_tutorial/prototype_t1/build/../printf.c:405
  200c3c:	fd403fe1 	ldr	d1, [sp, #120]
  200c40:	1e6c1000 	fmov	d0, #5.000000000000000000e-01
  200c44:	1e602030 	fcmpe	d1, d0
  200c48:	1a9f57e0 	cset	w0, mi  // mi = first
  200c4c:	12001c00 	and	w0, w0, #0xff
  200c50:	52000000 	eor	w0, w0, #0x1
  200c54:	12001c00 	and	w0, w0, #0xff
  200c58:	12000000 	and	w0, w0, #0x1
  200c5c:	7100001f 	cmp	w0, #0x0
  200c60:	540000c1 	b.ne	200c78 <_ftoa+0x350>  // b.any
/Users/jd/trustworthy-systems/arinc/ARINC/t1_prototype/microkit_tutorial/prototype_t1/build/../printf.c:405 (discriminator 2)
  200c64:	fd403fe1 	ldr	d1, [sp, #120]
  200c68:	1e6c1000 	fmov	d0, #5.000000000000000000e-01
  200c6c:	1e602030 	fcmpe	d1, d0
  200c70:	5400004c 	b.gt	200c78 <_ftoa+0x350>
  200c74:	14000047 	b	200d90 <_ftoa+0x468>
/Users/jd/trustworthy-systems/arinc/ARINC/t1_prototype/microkit_tutorial/prototype_t1/build/../printf.c:405 (discriminator 3)
  200c78:	b94093e0 	ldr	w0, [sp, #144]
  200c7c:	12000000 	and	w0, w0, #0x1
  200c80:	7100001f 	cmp	w0, #0x0
  200c84:	54000c60 	b.eq	200e10 <_ftoa+0x4e8>  // b.none
/Users/jd/trustworthy-systems/arinc/ARINC/t1_prototype/microkit_tutorial/prototype_t1/build/../printf.c:408
  200c88:	b94093e0 	ldr	w0, [sp, #144]
  200c8c:	11000400 	add	w0, w0, #0x1
  200c90:	b90093e0 	str	w0, [sp, #144]
  200c94:	1400005f 	b	200e10 <_ftoa+0x4e8>
/Users/jd/trustworthy-systems/arinc/ARINC/t1_prototype/microkit_tutorial/prototype_t1/build/../printf.c:412
  200c98:	b94027e0 	ldr	w0, [sp, #36]
  200c9c:	b90087e0 	str	w0, [sp, #132]
/Users/jd/trustworthy-systems/arinc/ARINC/t1_prototype/microkit_tutorial/prototype_t1/build/../printf.c:414
  200ca0:	1400001f 	b	200d1c <_ftoa+0x3f4>
/Users/jd/trustworthy-systems/arinc/ARINC/t1_prototype/microkit_tutorial/prototype_t1/build/../printf.c:415
  200ca4:	b94087e0 	ldr	w0, [sp, #132]
  200ca8:	51000400 	sub	w0, w0, #0x1
  200cac:	b90087e0 	str	w0, [sp, #132]
/Users/jd/trustworthy-systems/arinc/ARINC/t1_prototype/microkit_tutorial/prototype_t1/build/../printf.c:416
  200cb0:	f94047e2 	ldr	x2, [sp, #136]
  200cb4:	b202e7e0 	mov	x0, #0xcccccccccccccccc    	// #-3689348814741910324
  200cb8:	f29999a0 	movk	x0, #0xcccd
  200cbc:	9bc07c40 	umulh	x0, x2, x0
  200cc0:	d343fc01 	lsr	x1, x0, #3
  200cc4:	aa0103e0 	mov	x0, x1
  200cc8:	d37ef400 	lsl	x0, x0, #2
  200ccc:	8b010000 	add	x0, x0, x1
  200cd0:	8b000000 	add	x0, x0, x0
  200cd4:	cb000041 	sub	x1, x2, x0
  200cd8:	12001c21 	and	w1, w1, #0xff
  200cdc:	f9404fe0 	ldr	x0, [sp, #152]
  200ce0:	91000402 	add	x2, x0, #0x1
  200ce4:	f9004fe2 	str	x2, [sp, #152]
  200ce8:	1100c021 	add	w1, w1, #0x30
  200cec:	12001c22 	and	w2, w1, #0xff
  200cf0:	910143e1 	add	x1, sp, #0x50
  200cf4:	38206822 	strb	w2, [x1, x0]
/Users/jd/trustworthy-systems/arinc/ARINC/t1_prototype/microkit_tutorial/prototype_t1/build/../printf.c:417
  200cf8:	f94047e1 	ldr	x1, [sp, #136]
  200cfc:	b202e7e0 	mov	x0, #0xcccccccccccccccc    	// #-3689348814741910324
  200d00:	f29999a0 	movk	x0, #0xcccd
  200d04:	9bc07c20 	umulh	x0, x1, x0
  200d08:	d343fc00 	lsr	x0, x0, #3
  200d0c:	f90047e0 	str	x0, [sp, #136]
  200d10:	f94047e0 	ldr	x0, [sp, #136]
  200d14:	f100001f 	cmp	x0, #0x0
  200d18:	540000a0 	b.eq	200d2c <_ftoa+0x404>  // b.none
/Users/jd/trustworthy-systems/arinc/ARINC/t1_prototype/microkit_tutorial/prototype_t1/build/../printf.c:414
  200d1c:	f9404fe0 	ldr	x0, [sp, #152]
  200d20:	f1007c1f 	cmp	x0, #0x1f
  200d24:	54fffc09 	b.ls	200ca4 <_ftoa+0x37c>  // b.plast
  200d28:	14000009 	b	200d4c <_ftoa+0x424>
/Users/jd/trustworthy-systems/arinc/ARINC/t1_prototype/microkit_tutorial/prototype_t1/build/../printf.c:418
  200d2c:	d503201f 	nop
/Users/jd/trustworthy-systems/arinc/ARINC/t1_prototype/microkit_tutorial/prototype_t1/build/../printf.c:422
  200d30:	14000007 	b	200d4c <_ftoa+0x424>
/Users/jd/trustworthy-systems/arinc/ARINC/t1_prototype/microkit_tutorial/prototype_t1/build/../printf.c:423
  200d34:	f9404fe0 	ldr	x0, [sp, #152]
  200d38:	91000401 	add	x1, x0, #0x1
  200d3c:	f9004fe1 	str	x1, [sp, #152]
  200d40:	910143e1 	add	x1, sp, #0x50
  200d44:	52800602 	mov	w2, #0x30                  	// #48
  200d48:	38206822 	strb	w2, [x1, x0]
/Users/jd/trustworthy-systems/arinc/ARINC/t1_prototype/microkit_tutorial/prototype_t1/build/../printf.c:422
  200d4c:	f9404fe0 	ldr	x0, [sp, #152]
  200d50:	f1007c1f 	cmp	x0, #0x1f
  200d54:	540000c8 	b.hi	200d6c <_ftoa+0x444>  // b.pmore
/Users/jd/trustworthy-systems/arinc/ARINC/t1_prototype/microkit_tutorial/prototype_t1/build/../printf.c:422 (discriminator 1)
  200d58:	b94087e0 	ldr	w0, [sp, #132]
  200d5c:	51000401 	sub	w1, w0, #0x1
  200d60:	b90087e1 	str	w1, [sp, #132]
  200d64:	7100001f 	cmp	w0, #0x0
  200d68:	54fffe61 	b.ne	200d34 <_ftoa+0x40c>  // b.any
/Users/jd/trustworthy-systems/arinc/ARINC/t1_prototype/microkit_tutorial/prototype_t1/build/../printf.c:425
  200d6c:	f9404fe0 	ldr	x0, [sp, #152]
  200d70:	f1007c1f 	cmp	x0, #0x1f
  200d74:	540004e8 	b.hi	200e10 <_ftoa+0x4e8>  // b.pmore
/Users/jd/trustworthy-systems/arinc/ARINC/t1_prototype/microkit_tutorial/prototype_t1/build/../printf.c:427
  200d78:	f9404fe0 	ldr	x0, [sp, #152]
  200d7c:	91000401 	add	x1, x0, #0x1
  200d80:	f9004fe1 	str	x1, [sp, #152]
  200d84:	910143e1 	add	x1, sp, #0x50
  200d88:	528005c2 	mov	w2, #0x2e                  	// #46
  200d8c:	38206822 	strb	w2, [x1, x0]
/Users/jd/trustworthy-systems/arinc/ARINC/t1_prototype/microkit_tutorial/prototype_t1/build/../printf.c:432
  200d90:	14000020 	b	200e10 <_ftoa+0x4e8>
/Users/jd/trustworthy-systems/arinc/ARINC/t1_prototype/microkit_tutorial/prototype_t1/build/../printf.c:433
  200d94:	b94093e0 	ldr	w0, [sp, #144]
  200d98:	528ccce1 	mov	w1, #0x6667                	// #26215
  200d9c:	72acccc1 	movk	w1, #0x6666, lsl #16
  200da0:	9b217c01 	smull	x1, w0, w1
  200da4:	d360fc21 	lsr	x1, x1, #32
  200da8:	13027c22 	asr	w2, w1, #2
  200dac:	131f7c01 	asr	w1, w0, #31
  200db0:	4b010041 	sub	w1, w2, w1
  200db4:	52800142 	mov	w2, #0xa                   	// #10
  200db8:	1b027c21 	mul	w1, w1, w2
  200dbc:	4b010001 	sub	w1, w0, w1
  200dc0:	12001c21 	and	w1, w1, #0xff
  200dc4:	f9404fe0 	ldr	x0, [sp, #152]
  200dc8:	91000402 	add	x2, x0, #0x1
  200dcc:	f9004fe2 	str	x2, [sp, #152]
  200dd0:	1100c021 	add	w1, w1, #0x30
  200dd4:	12001c22 	and	w2, w1, #0xff
  200dd8:	910143e1 	add	x1, sp, #0x50
  200ddc:	38206822 	strb	w2, [x1, x0]
/Users/jd/trustworthy-systems/arinc/ARINC/t1_prototype/microkit_tutorial/prototype_t1/build/../printf.c:434
  200de0:	b94093e0 	ldr	w0, [sp, #144]
  200de4:	528ccce1 	mov	w1, #0x6667                	// #26215
  200de8:	72acccc1 	movk	w1, #0x6666, lsl #16
  200dec:	9b217c01 	smull	x1, w0, w1
  200df0:	d360fc21 	lsr	x1, x1, #32
  200df4:	13027c21 	asr	w1, w1, #2
  200df8:	131f7c00 	asr	w0, w0, #31
  200dfc:	4b000020 	sub	w0, w1, w0
  200e00:	b90093e0 	str	w0, [sp, #144]
  200e04:	b94093e0 	ldr	w0, [sp, #144]
  200e08:	7100001f 	cmp	w0, #0x0
  200e0c:	540000a0 	b.eq	200e20 <_ftoa+0x4f8>  // b.none
/Users/jd/trustworthy-systems/arinc/ARINC/t1_prototype/microkit_tutorial/prototype_t1/build/../printf.c:432
  200e10:	f9404fe0 	ldr	x0, [sp, #152]
  200e14:	f1007c1f 	cmp	x0, #0x1f
  200e18:	54fffbe9 	b.ls	200d94 <_ftoa+0x46c>  // b.plast
  200e1c:	14000002 	b	200e24 <_ftoa+0x4fc>
/Users/jd/trustworthy-systems/arinc/ARINC/t1_prototype/microkit_tutorial/prototype_t1/build/../printf.c:435
  200e20:	d503201f 	nop
/Users/jd/trustworthy-systems/arinc/ARINC/t1_prototype/microkit_tutorial/prototype_t1/build/../printf.c:440
  200e24:	b9401fe0 	ldr	w0, [sp, #28]
  200e28:	121f0000 	and	w0, w0, #0x2
  200e2c:	7100001f 	cmp	w0, #0x0
  200e30:	54000421 	b.ne	200eb4 <_ftoa+0x58c>  // b.any
/Users/jd/trustworthy-systems/arinc/ARINC/t1_prototype/microkit_tutorial/prototype_t1/build/../printf.c:440 (discriminator 1)
  200e34:	b9401fe0 	ldr	w0, [sp, #28]
  200e38:	12000000 	and	w0, w0, #0x1
  200e3c:	7100001f 	cmp	w0, #0x0
  200e40:	540003a0 	b.eq	200eb4 <_ftoa+0x58c>  // b.none
/Users/jd/trustworthy-systems/arinc/ARINC/t1_prototype/microkit_tutorial/prototype_t1/build/../printf.c:441
  200e44:	b94023e0 	ldr	w0, [sp, #32]
  200e48:	7100001f 	cmp	w0, #0x0
  200e4c:	54000260 	b.eq	200e98 <_ftoa+0x570>  // b.none
/Users/jd/trustworthy-systems/arinc/ARINC/t1_prototype/microkit_tutorial/prototype_t1/build/../printf.c:441 (discriminator 1)
  200e50:	39425fe0 	ldrb	w0, [sp, #151]
  200e54:	12000000 	and	w0, w0, #0x1
  200e58:	7100001f 	cmp	w0, #0x0
  200e5c:	540000a1 	b.ne	200e70 <_ftoa+0x548>  // b.any
/Users/jd/trustworthy-systems/arinc/ARINC/t1_prototype/microkit_tutorial/prototype_t1/build/../printf.c:441 (discriminator 2)
  200e60:	b9401fe0 	ldr	w0, [sp, #28]
  200e64:	121e0400 	and	w0, w0, #0xc
  200e68:	7100001f 	cmp	w0, #0x0
  200e6c:	54000160 	b.eq	200e98 <_ftoa+0x570>  // b.none
/Users/jd/trustworthy-systems/arinc/ARINC/t1_prototype/microkit_tutorial/prototype_t1/build/../printf.c:442
  200e70:	b94023e0 	ldr	w0, [sp, #32]
  200e74:	51000400 	sub	w0, w0, #0x1
  200e78:	b90023e0 	str	w0, [sp, #32]
/Users/jd/trustworthy-systems/arinc/ARINC/t1_prototype/microkit_tutorial/prototype_t1/build/../printf.c:444
  200e7c:	14000007 	b	200e98 <_ftoa+0x570>
/Users/jd/trustworthy-systems/arinc/ARINC/t1_prototype/microkit_tutorial/prototype_t1/build/../printf.c:445
  200e80:	f9404fe0 	ldr	x0, [sp, #152]
  200e84:	91000401 	add	x1, x0, #0x1
  200e88:	f9004fe1 	str	x1, [sp, #152]
  200e8c:	910143e1 	add	x1, sp, #0x50
  200e90:	52800602 	mov	w2, #0x30                  	// #48
  200e94:	38206822 	strb	w2, [x1, x0]
/Users/jd/trustworthy-systems/arinc/ARINC/t1_prototype/microkit_tutorial/prototype_t1/build/../printf.c:444
  200e98:	b94023e0 	ldr	w0, [sp, #32]
  200e9c:	f9404fe1 	ldr	x1, [sp, #152]
  200ea0:	eb00003f 	cmp	x1, x0
  200ea4:	54000082 	b.cs	200eb4 <_ftoa+0x58c>  // b.hs, b.nlast
/Users/jd/trustworthy-systems/arinc/ARINC/t1_prototype/microkit_tutorial/prototype_t1/build/../printf.c:444 (discriminator 1)
  200ea8:	f9404fe0 	ldr	x0, [sp, #152]
  200eac:	f1007c1f 	cmp	x0, #0x1f
  200eb0:	54fffe89 	b.ls	200e80 <_ftoa+0x558>  // b.plast
/Users/jd/trustworthy-systems/arinc/ARINC/t1_prototype/microkit_tutorial/prototype_t1/build/../printf.c:449
  200eb4:	f9404fe0 	ldr	x0, [sp, #152]
  200eb8:	f1007c1f 	cmp	x0, #0x1f
  200ebc:	54000428 	b.hi	200f40 <_ftoa+0x618>  // b.pmore
/Users/jd/trustworthy-systems/arinc/ARINC/t1_prototype/microkit_tutorial/prototype_t1/build/../printf.c:450
  200ec0:	39425fe0 	ldrb	w0, [sp, #151]
  200ec4:	12000000 	and	w0, w0, #0x1
  200ec8:	7100001f 	cmp	w0, #0x0
  200ecc:	54000100 	b.eq	200eec <_ftoa+0x5c4>  // b.none
/Users/jd/trustworthy-systems/arinc/ARINC/t1_prototype/microkit_tutorial/prototype_t1/build/../printf.c:451
  200ed0:	f9404fe0 	ldr	x0, [sp, #152]
  200ed4:	91000401 	add	x1, x0, #0x1
  200ed8:	f9004fe1 	str	x1, [sp, #152]
  200edc:	910143e1 	add	x1, sp, #0x50
  200ee0:	528005a2 	mov	w2, #0x2d                  	// #45
  200ee4:	38206822 	strb	w2, [x1, x0]
  200ee8:	14000016 	b	200f40 <_ftoa+0x618>
/Users/jd/trustworthy-systems/arinc/ARINC/t1_prototype/microkit_tutorial/prototype_t1/build/../printf.c:453
  200eec:	b9401fe0 	ldr	w0, [sp, #28]
  200ef0:	121e0000 	and	w0, w0, #0x4
  200ef4:	7100001f 	cmp	w0, #0x0
  200ef8:	54000100 	b.eq	200f18 <_ftoa+0x5f0>  // b.none
/Users/jd/trustworthy-systems/arinc/ARINC/t1_prototype/microkit_tutorial/prototype_t1/build/../printf.c:454
  200efc:	f9404fe0 	ldr	x0, [sp, #152]
  200f00:	91000401 	add	x1, x0, #0x1
  200f04:	f9004fe1 	str	x1, [sp, #152]
  200f08:	910143e1 	add	x1, sp, #0x50
  200f0c:	52800562 	mov	w2, #0x2b                  	// #43
  200f10:	38206822 	strb	w2, [x1, x0]
  200f14:	1400000b 	b	200f40 <_ftoa+0x618>
/Users/jd/trustworthy-systems/arinc/ARINC/t1_prototype/microkit_tutorial/prototype_t1/build/../printf.c:456
  200f18:	b9401fe0 	ldr	w0, [sp, #28]
  200f1c:	121d0000 	and	w0, w0, #0x8
  200f20:	7100001f 	cmp	w0, #0x0
  200f24:	540000e0 	b.eq	200f40 <_ftoa+0x618>  // b.none
/Users/jd/trustworthy-systems/arinc/ARINC/t1_prototype/microkit_tutorial/prototype_t1/build/../printf.c:457
  200f28:	f9404fe0 	ldr	x0, [sp, #152]
  200f2c:	91000401 	add	x1, x0, #0x1
  200f30:	f9004fe1 	str	x1, [sp, #152]
  200f34:	910143e1 	add	x1, sp, #0x50
  200f38:	52800402 	mov	w2, #0x20                  	// #32
  200f3c:	38206822 	strb	w2, [x1, x0]
/Users/jd/trustworthy-systems/arinc/ARINC/t1_prototype/microkit_tutorial/prototype_t1/build/../printf.c:461
  200f40:	910143e0 	add	x0, sp, #0x50
  200f44:	b9401fe7 	ldr	w7, [sp, #28]
  200f48:	b94023e6 	ldr	w6, [sp, #32]
  200f4c:	f9404fe5 	ldr	x5, [sp, #152]
  200f50:	aa0003e4 	mov	x4, x0
  200f54:	f9401be3 	ldr	x3, [sp, #48]
  200f58:	f9401fe2 	ldr	x2, [sp, #56]
  200f5c:	f94023e1 	ldr	x1, [sp, #64]
  200f60:	f94027e0 	ldr	x0, [sp, #72]
  200f64:	97fffca4 	bl	2001f4 <_out_rev>
/Users/jd/trustworthy-systems/arinc/ARINC/t1_prototype/microkit_tutorial/prototype_t1/build/../printf.c:462
  200f68:	a8ca7bfd 	ldp	x29, x30, [sp], #160
  200f6c:	d65f03c0 	ret

0000000000200f70 <_etoa>:
_etoa():
/Users/jd/trustworthy-systems/arinc/ARINC/t1_prototype/microkit_tutorial/prototype_t1/build/../printf.c:468
  200f70:	d10283ff 	sub	sp, sp, #0xa0
  200f74:	a9017bfd 	stp	x29, x30, [sp, #16]
  200f78:	910043fd 	add	x29, sp, #0x10
  200f7c:	f9002fe0 	str	x0, [sp, #88]
  200f80:	f9002be1 	str	x1, [sp, #80]
  200f84:	f90027e2 	str	x2, [sp, #72]
  200f88:	f90023e3 	str	x3, [sp, #64]
  200f8c:	fd001fe0 	str	d0, [sp, #56]
  200f90:	b90037e4 	str	w4, [sp, #52]
  200f94:	b90033e5 	str	w5, [sp, #48]
  200f98:	b9002fe6 	str	w6, [sp, #44]
/Users/jd/trustworthy-systems/arinc/ARINC/t1_prototype/microkit_tutorial/prototype_t1/build/../printf.c:470
  200f9c:	fd401fe1 	ldr	d1, [sp, #56]
  200fa0:	fd401fe0 	ldr	d0, [sp, #56]
  200fa4:	1e602020 	fcmp	d1, d0
  200fa8:	54000181 	b.ne	200fd8 <_etoa+0x68>  // b.any
/Users/jd/trustworthy-systems/arinc/ARINC/t1_prototype/microkit_tutorial/prototype_t1/build/../printf.c:470 (discriminator 1)
  200fac:	fd401fe0 	ldr	d0, [sp, #56]
  200fb0:	92f00200 	mov	x0, #0x7fefffffffffffff    	// #9218868437227405311
  200fb4:	9e670001 	fmov	d1, x0
  200fb8:	1e612010 	fcmpe	d0, d1
  200fbc:	540000ec 	b.gt	200fd8 <_etoa+0x68>
/Users/jd/trustworthy-systems/arinc/ARINC/t1_prototype/microkit_tutorial/prototype_t1/build/../printf.c:470 (discriminator 2)
  200fc0:	fd401fe0 	ldr	d0, [sp, #56]
  200fc4:	92e00200 	mov	x0, #0xffefffffffffffff    	// #-4503599627370497
  200fc8:	9e670001 	fmov	d1, x0
  200fcc:	1e612010 	fcmpe	d0, d1
  200fd0:	54000044 	b.mi	200fd8 <_etoa+0x68>  // b.first
  200fd4:	1400000b 	b	201000 <_etoa+0x90>
/Users/jd/trustworthy-systems/arinc/ARINC/t1_prototype/microkit_tutorial/prototype_t1/build/../printf.c:471
  200fd8:	b9402fe6 	ldr	w6, [sp, #44]
  200fdc:	b94033e5 	ldr	w5, [sp, #48]
  200fe0:	b94037e4 	ldr	w4, [sp, #52]
  200fe4:	fd401fe0 	ldr	d0, [sp, #56]
  200fe8:	f94023e3 	ldr	x3, [sp, #64]
  200fec:	f94027e2 	ldr	x2, [sp, #72]
  200ff0:	f9402be1 	ldr	x1, [sp, #80]
  200ff4:	f9402fe0 	ldr	x0, [sp, #88]
  200ff8:	97fffe4c 	bl	200928 <_ftoa>
  200ffc:	14000112 	b	201444 <_etoa+0x4d4>
/Users/jd/trustworthy-systems/arinc/ARINC/t1_prototype/microkit_tutorial/prototype_t1/build/../printf.c:475
  201000:	fd401fe0 	ldr	d0, [sp, #56]
  201004:	1e602018 	fcmpe	d0, #0.0
  201008:	1a9f57e0 	cset	w0, mi  // mi = first
  20100c:	39024fe0 	strb	w0, [sp, #147]
/Users/jd/trustworthy-systems/arinc/ARINC/t1_prototype/microkit_tutorial/prototype_t1/build/../printf.c:476
  201010:	39424fe0 	ldrb	w0, [sp, #147]
  201014:	12000000 	and	w0, w0, #0x1
  201018:	7100001f 	cmp	w0, #0x0
  20101c:	54000080 	b.eq	20102c <_etoa+0xbc>  // b.none
/Users/jd/trustworthy-systems/arinc/ARINC/t1_prototype/microkit_tutorial/prototype_t1/build/../printf.c:477
  201020:	fd401fe0 	ldr	d0, [sp, #56]
  201024:	1e614000 	fneg	d0, d0
  201028:	fd001fe0 	str	d0, [sp, #56]
/Users/jd/trustworthy-systems/arinc/ARINC/t1_prototype/microkit_tutorial/prototype_t1/build/../printf.c:481
  20102c:	b9402fe0 	ldr	w0, [sp, #44]
  201030:	12160000 	and	w0, w0, #0x400
  201034:	7100001f 	cmp	w0, #0x0
  201038:	54000061 	b.ne	201044 <_etoa+0xd4>  // b.any
/Users/jd/trustworthy-systems/arinc/ARINC/t1_prototype/microkit_tutorial/prototype_t1/build/../printf.c:482
  20103c:	528000c0 	mov	w0, #0x6                   	// #6
  201040:	b90037e0 	str	w0, [sp, #52]
/Users/jd/trustworthy-systems/arinc/ARINC/t1_prototype/microkit_tutorial/prototype_t1/build/../printf.c:492
  201044:	fd401fe0 	ldr	d0, [sp, #56]
  201048:	fd0037e0 	str	d0, [sp, #104]
/Users/jd/trustworthy-systems/arinc/ARINC/t1_prototype/microkit_tutorial/prototype_t1/build/../printf.c:493
  20104c:	f94037e0 	ldr	x0, [sp, #104]
  201050:	d374fc00 	lsr	x0, x0, #52
  201054:	12002800 	and	w0, w0, #0x7ff
  201058:	510ffc00 	sub	w0, w0, #0x3ff
  20105c:	b9008fe0 	str	w0, [sp, #140]
/Users/jd/trustworthy-systems/arinc/ARINC/t1_prototype/microkit_tutorial/prototype_t1/build/../printf.c:494
  201060:	f94037e0 	ldr	x0, [sp, #104]
  201064:	9240cc00 	and	x0, x0, #0xfffffffffffff
  201068:	b24c2400 	orr	x0, x0, #0x3ff0000000000000
  20106c:	f90037e0 	str	x0, [sp, #104]
/Users/jd/trustworthy-systems/arinc/ARINC/t1_prototype/microkit_tutorial/prototype_t1/build/../printf.c:496
  201070:	b9408fe0 	ldr	w0, [sp, #140]
  201074:	1e620000 	scvtf	d0, w0
  201078:	f0000000 	adrp	x0, 204000 <main+0xc0>
  20107c:	fd41e801 	ldr	d1, [x0, #976]
  201080:	1e610800 	fmul	d0, d0, d1
  201084:	f0000000 	adrp	x0, 204000 <main+0xc0>
  201088:	fd41ec01 	ldr	d1, [x0, #984]
  20108c:	1e612801 	fadd	d1, d0, d1
  201090:	fd4037e2 	ldr	d2, [sp, #104]
  201094:	1e6f1000 	fmov	d0, #1.500000000000000000e+00
  201098:	1e603840 	fsub	d0, d2, d0
  20109c:	f0000000 	adrp	x0, 204000 <main+0xc0>
  2010a0:	fd41f002 	ldr	d2, [x0, #992]
  2010a4:	1e620800 	fmul	d0, d0, d2
  2010a8:	1e602820 	fadd	d0, d1, d0
  2010ac:	1e780000 	fcvtzs	w0, d0
  2010b0:	b9009fe0 	str	w0, [sp, #156]
/Users/jd/trustworthy-systems/arinc/ARINC/t1_prototype/microkit_tutorial/prototype_t1/build/../printf.c:498
  2010b4:	b9409fe0 	ldr	w0, [sp, #156]
  2010b8:	1e620000 	scvtf	d0, w0
  2010bc:	f0000000 	adrp	x0, 204000 <main+0xc0>
  2010c0:	fd41f401 	ldr	d1, [x0, #1000]
  2010c4:	1e610801 	fmul	d1, d0, d1
  2010c8:	1e6c1000 	fmov	d0, #5.000000000000000000e-01
  2010cc:	1e602820 	fadd	d0, d1, d0
  2010d0:	1e780000 	fcvtzs	w0, d0
  2010d4:	b9008fe0 	str	w0, [sp, #140]
/Users/jd/trustworthy-systems/arinc/ARINC/t1_prototype/microkit_tutorial/prototype_t1/build/../printf.c:499
  2010d8:	b9409fe0 	ldr	w0, [sp, #156]
  2010dc:	1e620000 	scvtf	d0, w0
  2010e0:	f0000000 	adrp	x0, 204000 <main+0xc0>
  2010e4:	fd41f801 	ldr	d1, [x0, #1008]
  2010e8:	1e610801 	fmul	d1, d0, d1
  2010ec:	b9408fe0 	ldr	w0, [sp, #140]
  2010f0:	1e620000 	scvtf	d0, w0
  2010f4:	f0000000 	adrp	x0, 204000 <main+0xc0>
  2010f8:	fd41fc02 	ldr	d2, [x0, #1016]
  2010fc:	1e620800 	fmul	d0, d0, d2
  201100:	1e603820 	fsub	d0, d1, d0
  201104:	fd0043e0 	str	d0, [sp, #128]
/Users/jd/trustworthy-systems/arinc/ARINC/t1_prototype/microkit_tutorial/prototype_t1/build/../printf.c:500
  201108:	fd4043e0 	ldr	d0, [sp, #128]
  20110c:	1e600800 	fmul	d0, d0, d0
  201110:	fd003fe0 	str	d0, [sp, #120]
/Users/jd/trustworthy-systems/arinc/ARINC/t1_prototype/microkit_tutorial/prototype_t1/build/../printf.c:501
  201114:	b9408fe0 	ldr	w0, [sp, #140]
  201118:	110ffc00 	add	w0, w0, #0x3ff
  20111c:	93407c00 	sxtw	x0, w0
  201120:	d34c2c00 	lsl	x0, x0, #52
  201124:	f90037e0 	str	x0, [sp, #104]
/Users/jd/trustworthy-systems/arinc/ARINC/t1_prototype/microkit_tutorial/prototype_t1/build/../printf.c:503
  201128:	fd4037e1 	ldr	d1, [sp, #104]
  20112c:	fd4043e0 	ldr	d0, [sp, #128]
  201130:	1e602802 	fadd	d2, d0, d0
  201134:	1e601003 	fmov	d3, #2.000000000000000000e+00
  201138:	fd4043e0 	ldr	d0, [sp, #128]
  20113c:	1e603863 	fsub	d3, d3, d0
  201140:	1e659000 	fmov	d0, #1.400000000000000000e+01
  201144:	fd403fe4 	ldr	d4, [sp, #120]
  201148:	1e601884 	fdiv	d4, d4, d0
  20114c:	1e649000 	fmov	d0, #1.000000000000000000e+01
  201150:	1e602880 	fadd	d0, d4, d0
  201154:	fd403fe4 	ldr	d4, [sp, #120]
  201158:	1e601884 	fdiv	d4, d4, d0
  20115c:	1e631000 	fmov	d0, #6.000000000000000000e+00
  201160:	1e602880 	fadd	d0, d4, d0
  201164:	fd403fe4 	ldr	d4, [sp, #120]
  201168:	1e601880 	fdiv	d0, d4, d0
  20116c:	1e602860 	fadd	d0, d3, d0
  201170:	1e601842 	fdiv	d2, d2, d0
  201174:	1e6e1000 	fmov	d0, #1.000000000000000000e+00
  201178:	1e602840 	fadd	d0, d2, d0
  20117c:	1e600820 	fmul	d0, d1, d0
  201180:	fd0037e0 	str	d0, [sp, #104]
/Users/jd/trustworthy-systems/arinc/ARINC/t1_prototype/microkit_tutorial/prototype_t1/build/../printf.c:505
  201184:	fd4037e0 	ldr	d0, [sp, #104]
  201188:	fd401fe1 	ldr	d1, [sp, #56]
  20118c:	1e602030 	fcmpe	d1, d0
  201190:	54000044 	b.mi	201198 <_etoa+0x228>  // b.first
  201194:	14000008 	b	2011b4 <_etoa+0x244>
/Users/jd/trustworthy-systems/arinc/ARINC/t1_prototype/microkit_tutorial/prototype_t1/build/../printf.c:506
  201198:	b9409fe0 	ldr	w0, [sp, #156]
  20119c:	51000400 	sub	w0, w0, #0x1
  2011a0:	b9009fe0 	str	w0, [sp, #156]
/Users/jd/trustworthy-systems/arinc/ARINC/t1_prototype/microkit_tutorial/prototype_t1/build/../printf.c:507
  2011a4:	fd4037e1 	ldr	d1, [sp, #104]
  2011a8:	1e649000 	fmov	d0, #1.000000000000000000e+01
  2011ac:	1e601820 	fdiv	d0, d1, d0
  2011b0:	fd0037e0 	str	d0, [sp, #104]
/Users/jd/trustworthy-systems/arinc/ARINC/t1_prototype/microkit_tutorial/prototype_t1/build/../printf.c:511
  2011b4:	b9409fe0 	ldr	w0, [sp, #156]
  2011b8:	71018c1f 	cmp	w0, #0x63
  2011bc:	540000cc 	b.gt	2011d4 <_etoa+0x264>
/Users/jd/trustworthy-systems/arinc/ARINC/t1_prototype/microkit_tutorial/prototype_t1/build/../printf.c:511 (discriminator 1)
  2011c0:	b9409fe0 	ldr	w0, [sp, #156]
  2011c4:	31018c1f 	cmn	w0, #0x63
  2011c8:	5400006b 	b.lt	2011d4 <_etoa+0x264>  // b.tstop
/Users/jd/trustworthy-systems/arinc/ARINC/t1_prototype/microkit_tutorial/prototype_t1/build/../printf.c:511 (discriminator 3)
  2011cc:	52800080 	mov	w0, #0x4                   	// #4
/Users/jd/trustworthy-systems/arinc/ARINC/t1_prototype/microkit_tutorial/prototype_t1/build/../printf.c:511
  2011d0:	14000002 	b	2011d8 <_etoa+0x268>
/Users/jd/trustworthy-systems/arinc/ARINC/t1_prototype/microkit_tutorial/prototype_t1/build/../printf.c:511 (discriminator 4)
  2011d4:	528000a0 	mov	w0, #0x5                   	// #5
/Users/jd/trustworthy-systems/arinc/ARINC/t1_prototype/microkit_tutorial/prototype_t1/build/../printf.c:511 (discriminator 6)
  2011d8:	b9009be0 	str	w0, [sp, #152]
/Users/jd/trustworthy-systems/arinc/ARINC/t1_prototype/microkit_tutorial/prototype_t1/build/../printf.c:514
  2011dc:	b9402fe0 	ldr	w0, [sp, #44]
  2011e0:	12150000 	and	w0, w0, #0x800
  2011e4:	7100001f 	cmp	w0, #0x0
  2011e8:	54000520 	b.eq	20128c <_etoa+0x31c>  // b.none
/Users/jd/trustworthy-systems/arinc/ARINC/t1_prototype/microkit_tutorial/prototype_t1/build/../printf.c:516
  2011ec:	fd401fe0 	ldr	d0, [sp, #56]
  2011f0:	f0000000 	adrp	x0, 204000 <main+0xc0>
  2011f4:	fd420001 	ldr	d1, [x0, #1024]
  2011f8:	1e612010 	fcmpe	d0, d1
  2011fc:	5400004a 	b.ge	201204 <_etoa+0x294>  // b.tcont
  201200:	14000019 	b	201264 <_etoa+0x2f4>
/Users/jd/trustworthy-systems/arinc/ARINC/t1_prototype/microkit_tutorial/prototype_t1/build/../printf.c:516 (discriminator 1)
  201204:	fd401fe0 	ldr	d0, [sp, #56]
  201208:	d2d09000 	mov	x0, #0x848000000000        	// #145685290680320
  20120c:	f2e825c0 	movk	x0, #0x412e, lsl #48
  201210:	9e670001 	fmov	d1, x0
  201214:	1e612010 	fcmpe	d0, d1
  201218:	54000044 	b.mi	201220 <_etoa+0x2b0>  // b.first
  20121c:	14000012 	b	201264 <_etoa+0x2f4>
/Users/jd/trustworthy-systems/arinc/ARINC/t1_prototype/microkit_tutorial/prototype_t1/build/../printf.c:517
  201220:	b94037e0 	ldr	w0, [sp, #52]
  201224:	b9409fe1 	ldr	w1, [sp, #156]
  201228:	6b00003f 	cmp	w1, w0
  20122c:	540000ea 	b.ge	201248 <_etoa+0x2d8>  // b.tcont
/Users/jd/trustworthy-systems/arinc/ARINC/t1_prototype/microkit_tutorial/prototype_t1/build/../printf.c:518
  201230:	b94037e1 	ldr	w1, [sp, #52]
  201234:	b9409fe0 	ldr	w0, [sp, #156]
  201238:	4b000020 	sub	w0, w1, w0
  20123c:	51000400 	sub	w0, w0, #0x1
  201240:	b90037e0 	str	w0, [sp, #52]
  201244:	14000002 	b	20124c <_etoa+0x2dc>
/Users/jd/trustworthy-systems/arinc/ARINC/t1_prototype/microkit_tutorial/prototype_t1/build/../printf.c:521
  201248:	b90037ff 	str	wzr, [sp, #52]
/Users/jd/trustworthy-systems/arinc/ARINC/t1_prototype/microkit_tutorial/prototype_t1/build/../printf.c:523
  20124c:	b9402fe0 	ldr	w0, [sp, #44]
  201250:	32160000 	orr	w0, w0, #0x400
  201254:	b9002fe0 	str	w0, [sp, #44]
/Users/jd/trustworthy-systems/arinc/ARINC/t1_prototype/microkit_tutorial/prototype_t1/build/../printf.c:525
  201258:	b9009bff 	str	wzr, [sp, #152]
/Users/jd/trustworthy-systems/arinc/ARINC/t1_prototype/microkit_tutorial/prototype_t1/build/../printf.c:526
  20125c:	b9009fff 	str	wzr, [sp, #156]
  201260:	1400000b 	b	20128c <_etoa+0x31c>
/Users/jd/trustworthy-systems/arinc/ARINC/t1_prototype/microkit_tutorial/prototype_t1/build/../printf.c:530
  201264:	b94037e0 	ldr	w0, [sp, #52]
  201268:	7100001f 	cmp	w0, #0x0
  20126c:	54000100 	b.eq	20128c <_etoa+0x31c>  // b.none
/Users/jd/trustworthy-systems/arinc/ARINC/t1_prototype/microkit_tutorial/prototype_t1/build/../printf.c:530 (discriminator 1)
  201270:	b9402fe0 	ldr	w0, [sp, #44]
  201274:	12160000 	and	w0, w0, #0x400
  201278:	7100001f 	cmp	w0, #0x0
  20127c:	54000080 	b.eq	20128c <_etoa+0x31c>  // b.none
/Users/jd/trustworthy-systems/arinc/ARINC/t1_prototype/microkit_tutorial/prototype_t1/build/../printf.c:531
  201280:	b94037e0 	ldr	w0, [sp, #52]
  201284:	51000400 	sub	w0, w0, #0x1
  201288:	b90037e0 	str	w0, [sp, #52]
/Users/jd/trustworthy-systems/arinc/ARINC/t1_prototype/microkit_tutorial/prototype_t1/build/../printf.c:537
  20128c:	b94033e0 	ldr	w0, [sp, #48]
  201290:	b90097e0 	str	w0, [sp, #148]
/Users/jd/trustworthy-systems/arinc/ARINC/t1_prototype/microkit_tutorial/prototype_t1/build/../printf.c:538
  201294:	b94033e1 	ldr	w1, [sp, #48]
  201298:	b9409be0 	ldr	w0, [sp, #152]
  20129c:	6b00003f 	cmp	w1, w0
  2012a0:	540000c9 	b.ls	2012b8 <_etoa+0x348>  // b.plast
/Users/jd/trustworthy-systems/arinc/ARINC/t1_prototype/microkit_tutorial/prototype_t1/build/../printf.c:540
  2012a4:	b94097e1 	ldr	w1, [sp, #148]
  2012a8:	b9409be0 	ldr	w0, [sp, #152]
  2012ac:	4b000020 	sub	w0, w1, w0
  2012b0:	b90097e0 	str	w0, [sp, #148]
  2012b4:	14000002 	b	2012bc <_etoa+0x34c>
/Users/jd/trustworthy-systems/arinc/ARINC/t1_prototype/microkit_tutorial/prototype_t1/build/../printf.c:543
  2012b8:	b90097ff 	str	wzr, [sp, #148]
/Users/jd/trustworthy-systems/arinc/ARINC/t1_prototype/microkit_tutorial/prototype_t1/build/../printf.c:545
  2012bc:	b9402fe0 	ldr	w0, [sp, #44]
  2012c0:	121f0000 	and	w0, w0, #0x2
  2012c4:	7100001f 	cmp	w0, #0x0
  2012c8:	540000a0 	b.eq	2012dc <_etoa+0x36c>  // b.none
/Users/jd/trustworthy-systems/arinc/ARINC/t1_prototype/microkit_tutorial/prototype_t1/build/../printf.c:545 (discriminator 1)
  2012cc:	b9409be0 	ldr	w0, [sp, #152]
  2012d0:	7100001f 	cmp	w0, #0x0
  2012d4:	54000040 	b.eq	2012dc <_etoa+0x36c>  // b.none
/Users/jd/trustworthy-systems/arinc/ARINC/t1_prototype/microkit_tutorial/prototype_t1/build/../printf.c:547
  2012d8:	b90097ff 	str	wzr, [sp, #148]
/Users/jd/trustworthy-systems/arinc/ARINC/t1_prototype/microkit_tutorial/prototype_t1/build/../printf.c:551
  2012dc:	b9409fe0 	ldr	w0, [sp, #156]
  2012e0:	7100001f 	cmp	w0, #0x0
  2012e4:	540000a0 	b.eq	2012f8 <_etoa+0x388>  // b.none
/Users/jd/trustworthy-systems/arinc/ARINC/t1_prototype/microkit_tutorial/prototype_t1/build/../printf.c:552
  2012e8:	fd4037e0 	ldr	d0, [sp, #104]
  2012ec:	fd401fe1 	ldr	d1, [sp, #56]
  2012f0:	1e601820 	fdiv	d0, d1, d0
  2012f4:	fd001fe0 	str	d0, [sp, #56]
/Users/jd/trustworthy-systems/arinc/ARINC/t1_prototype/microkit_tutorial/prototype_t1/build/../printf.c:556
  2012f8:	f94027e0 	ldr	x0, [sp, #72]
  2012fc:	f9003be0 	str	x0, [sp, #112]
/Users/jd/trustworthy-systems/arinc/ARINC/t1_prototype/microkit_tutorial/prototype_t1/build/../printf.c:557
  201300:	39424fe0 	ldrb	w0, [sp, #147]
  201304:	12000000 	and	w0, w0, #0x1
  201308:	7100001f 	cmp	w0, #0x0
  20130c:	54000080 	b.eq	20131c <_etoa+0x3ac>  // b.none
/Users/jd/trustworthy-systems/arinc/ARINC/t1_prototype/microkit_tutorial/prototype_t1/build/../printf.c:557 (discriminator 1)
  201310:	fd401fe0 	ldr	d0, [sp, #56]
  201314:	1e614000 	fneg	d0, d0
  201318:	14000002 	b	201320 <_etoa+0x3b0>
/Users/jd/trustworthy-systems/arinc/ARINC/t1_prototype/microkit_tutorial/prototype_t1/build/../printf.c:557 (discriminator 2)
  20131c:	fd401fe0 	ldr	d0, [sp, #56]
/Users/jd/trustworthy-systems/arinc/ARINC/t1_prototype/microkit_tutorial/prototype_t1/build/../printf.c:557 (discriminator 4)
  201320:	b9402fe0 	ldr	w0, [sp, #44]
  201324:	12147800 	and	w0, w0, #0xfffff7ff
  201328:	2a0003e6 	mov	w6, w0
  20132c:	b94097e5 	ldr	w5, [sp, #148]
  201330:	b94037e4 	ldr	w4, [sp, #52]
  201334:	f94023e3 	ldr	x3, [sp, #64]
  201338:	f94027e2 	ldr	x2, [sp, #72]
  20133c:	f9402be1 	ldr	x1, [sp, #80]
  201340:	f9402fe0 	ldr	x0, [sp, #88]
  201344:	97fffd79 	bl	200928 <_ftoa>
  201348:	f90027e0 	str	x0, [sp, #72]
/Users/jd/trustworthy-systems/arinc/ARINC/t1_prototype/microkit_tutorial/prototype_t1/build/../printf.c:560
  20134c:	b9409be0 	ldr	w0, [sp, #152]
  201350:	7100001f 	cmp	w0, #0x0
  201354:	54000760 	b.eq	201440 <_etoa+0x4d0>  // b.none
/Users/jd/trustworthy-systems/arinc/ARINC/t1_prototype/microkit_tutorial/prototype_t1/build/../printf.c:562
  201358:	b9402fe0 	ldr	w0, [sp, #44]
  20135c:	121b0000 	and	w0, w0, #0x20
  201360:	7100001f 	cmp	w0, #0x0
  201364:	54000060 	b.eq	201370 <_etoa+0x400>  // b.none
/Users/jd/trustworthy-systems/arinc/ARINC/t1_prototype/microkit_tutorial/prototype_t1/build/../printf.c:562 (discriminator 1)
  201368:	528008a4 	mov	w4, #0x45                  	// #69
  20136c:	14000002 	b	201374 <_etoa+0x404>
/Users/jd/trustworthy-systems/arinc/ARINC/t1_prototype/microkit_tutorial/prototype_t1/build/../printf.c:562 (discriminator 2)
  201370:	52800ca4 	mov	w4, #0x65                  	// #101
/Users/jd/trustworthy-systems/arinc/ARINC/t1_prototype/microkit_tutorial/prototype_t1/build/../printf.c:562 (discriminator 4)
  201374:	f94027e0 	ldr	x0, [sp, #72]
  201378:	91000401 	add	x1, x0, #0x1
  20137c:	f90027e1 	str	x1, [sp, #72]
  201380:	f9402fe5 	ldr	x5, [sp, #88]
  201384:	f94023e3 	ldr	x3, [sp, #64]
  201388:	aa0003e2 	mov	x2, x0
  20138c:	f9402be1 	ldr	x1, [sp, #80]
  201390:	2a0403e0 	mov	w0, w4
  201394:	d63f00a0 	blr	x5
/Users/jd/trustworthy-systems/arinc/ARINC/t1_prototype/microkit_tutorial/prototype_t1/build/../printf.c:564
  201398:	b9409fe0 	ldr	w0, [sp, #156]
  20139c:	7100001f 	cmp	w0, #0x0
  2013a0:	5a80a400 	cneg	w0, w0, lt  // lt = tstop
  2013a4:	93407c02 	sxtw	x2, w0
  2013a8:	b9409fe0 	ldr	w0, [sp, #156]
  2013ac:	531f7c00 	lsr	w0, w0, #31
  2013b0:	12001c03 	and	w3, w0, #0xff
  2013b4:	b9409be0 	ldr	w0, [sp, #152]
  2013b8:	51000400 	sub	w0, w0, #0x1
  2013bc:	528000a1 	mov	w1, #0x5                   	// #5
  2013c0:	b9000be1 	str	w1, [sp, #8]
  2013c4:	b90003e0 	str	w0, [sp]
  2013c8:	52800007 	mov	w7, #0x0                   	// #0
  2013cc:	d2800146 	mov	x6, #0xa                   	// #10
  2013d0:	2a0303e5 	mov	w5, w3
  2013d4:	aa0203e4 	mov	x4, x2
  2013d8:	f94023e3 	ldr	x3, [sp, #64]
  2013dc:	f94027e2 	ldr	x2, [sp, #72]
  2013e0:	f9402be1 	ldr	x1, [sp, #80]
  2013e4:	f9402fe0 	ldr	x0, [sp, #88]
  2013e8:	97fffca2 	bl	200670 <_ntoa_long>
  2013ec:	f90027e0 	str	x0, [sp, #72]
/Users/jd/trustworthy-systems/arinc/ARINC/t1_prototype/microkit_tutorial/prototype_t1/build/../printf.c:566
  2013f0:	b9402fe0 	ldr	w0, [sp, #44]
  2013f4:	121f0000 	and	w0, w0, #0x2
  2013f8:	7100001f 	cmp	w0, #0x0
  2013fc:	54000220 	b.eq	201440 <_etoa+0x4d0>  // b.none
/Users/jd/trustworthy-systems/arinc/ARINC/t1_prototype/microkit_tutorial/prototype_t1/build/../printf.c:567
  201400:	1400000a 	b	201428 <_etoa+0x4b8>
/Users/jd/trustworthy-systems/arinc/ARINC/t1_prototype/microkit_tutorial/prototype_t1/build/../printf.c:567 (discriminator 2)
  201404:	f94027e0 	ldr	x0, [sp, #72]
  201408:	91000401 	add	x1, x0, #0x1
  20140c:	f90027e1 	str	x1, [sp, #72]
  201410:	f9402fe4 	ldr	x4, [sp, #88]
  201414:	f94023e3 	ldr	x3, [sp, #64]
  201418:	aa0003e2 	mov	x2, x0
  20141c:	f9402be1 	ldr	x1, [sp, #80]
  201420:	52800400 	mov	w0, #0x20                  	// #32
  201424:	d63f0080 	blr	x4
/Users/jd/trustworthy-systems/arinc/ARINC/t1_prototype/microkit_tutorial/prototype_t1/build/../printf.c:567 (discriminator 1)
  201428:	f94027e1 	ldr	x1, [sp, #72]
  20142c:	f9403be0 	ldr	x0, [sp, #112]
  201430:	cb000021 	sub	x1, x1, x0
  201434:	b94033e0 	ldr	w0, [sp, #48]
  201438:	eb00003f 	cmp	x1, x0
  20143c:	54fffe43 	b.cc	201404 <_etoa+0x494>  // b.lo, b.ul, b.last
/Users/jd/trustworthy-systems/arinc/ARINC/t1_prototype/microkit_tutorial/prototype_t1/build/../printf.c:570
  201440:	f94027e0 	ldr	x0, [sp, #72]
/Users/jd/trustworthy-systems/arinc/ARINC/t1_prototype/microkit_tutorial/prototype_t1/build/../printf.c:571
  201444:	a9417bfd 	ldp	x29, x30, [sp, #16]
  201448:	910283ff 	add	sp, sp, #0xa0
  20144c:	d65f03c0 	ret

0000000000201450 <_vsnprintf>:
_vsnprintf():
/Users/jd/trustworthy-systems/arinc/ARINC/t1_prototype/microkit_tutorial/prototype_t1/build/../printf.c:578
  201450:	d10283ff 	sub	sp, sp, #0xa0
  201454:	a9017bfd 	stp	x29, x30, [sp, #16]
  201458:	910043fd 	add	x29, sp, #0x10
  20145c:	f90013f3 	str	x19, [sp, #32]
  201460:	f90027e0 	str	x0, [sp, #72]
  201464:	f90023e1 	str	x1, [sp, #64]
  201468:	f9001fe2 	str	x2, [sp, #56]
  20146c:	f9001be3 	str	x3, [sp, #48]
  201470:	aa0403f3 	mov	x19, x4
/Users/jd/trustworthy-systems/arinc/ARINC/t1_prototype/microkit_tutorial/prototype_t1/build/../printf.c:580
  201474:	f90047ff 	str	xzr, [sp, #136]
/Users/jd/trustworthy-systems/arinc/ARINC/t1_prototype/microkit_tutorial/prototype_t1/build/../printf.c:582
  201478:	f94023e0 	ldr	x0, [sp, #64]
  20147c:	f100001f 	cmp	x0, #0x0
  201480:	540092e1 	b.ne	2026dc <_vsnprintf+0x128c>  // b.any
/Users/jd/trustworthy-systems/arinc/ARINC/t1_prototype/microkit_tutorial/prototype_t1/build/../printf.c:584
  201484:	f0ffffe0 	adrp	x0, 200000 <_start>
  201488:	91012000 	add	x0, x0, #0x48
  20148c:	f90027e0 	str	x0, [sp, #72]
/Users/jd/trustworthy-systems/arinc/ARINC/t1_prototype/microkit_tutorial/prototype_t1/build/../printf.c:587
  201490:	14000493 	b	2026dc <_vsnprintf+0x128c>
/Users/jd/trustworthy-systems/arinc/ARINC/t1_prototype/microkit_tutorial/prototype_t1/build/../printf.c:590
  201494:	f9401be0 	ldr	x0, [sp, #48]
  201498:	39400000 	ldrb	w0, [x0]
  20149c:	7100941f 	cmp	w0, #0x25
  2014a0:	54000200 	b.eq	2014e0 <_vsnprintf+0x90>  // b.none
/Users/jd/trustworthy-systems/arinc/ARINC/t1_prototype/microkit_tutorial/prototype_t1/build/../printf.c:592
  2014a4:	f9401be0 	ldr	x0, [sp, #48]
  2014a8:	39400005 	ldrb	w5, [x0]
  2014ac:	f94047e0 	ldr	x0, [sp, #136]
  2014b0:	91000401 	add	x1, x0, #0x1
  2014b4:	f90047e1 	str	x1, [sp, #136]
  2014b8:	f94027e4 	ldr	x4, [sp, #72]
  2014bc:	f9401fe3 	ldr	x3, [sp, #56]
  2014c0:	aa0003e2 	mov	x2, x0
  2014c4:	f94023e1 	ldr	x1, [sp, #64]
  2014c8:	2a0503e0 	mov	w0, w5
  2014cc:	d63f0080 	blr	x4
/Users/jd/trustworthy-systems/arinc/ARINC/t1_prototype/microkit_tutorial/prototype_t1/build/../printf.c:593
  2014d0:	f9401be0 	ldr	x0, [sp, #48]
  2014d4:	91000400 	add	x0, x0, #0x1
  2014d8:	f9001be0 	str	x0, [sp, #48]
/Users/jd/trustworthy-systems/arinc/ARINC/t1_prototype/microkit_tutorial/prototype_t1/build/../printf.c:594
  2014dc:	14000480 	b	2026dc <_vsnprintf+0x128c>
/Users/jd/trustworthy-systems/arinc/ARINC/t1_prototype/microkit_tutorial/prototype_t1/build/../printf.c:598
  2014e0:	f9401be0 	ldr	x0, [sp, #48]
  2014e4:	91000400 	add	x0, x0, #0x1
  2014e8:	f9001be0 	str	x0, [sp, #48]
/Users/jd/trustworthy-systems/arinc/ARINC/t1_prototype/microkit_tutorial/prototype_t1/build/../printf.c:602
  2014ec:	b9009fff 	str	wzr, [sp, #156]
/Users/jd/trustworthy-systems/arinc/ARINC/t1_prototype/microkit_tutorial/prototype_t1/build/../printf.c:604
  2014f0:	f9401be0 	ldr	x0, [sp, #48]
  2014f4:	39400000 	ldrb	w0, [x0]
  2014f8:	7100c01f 	cmp	w0, #0x30
  2014fc:	54000200 	b.eq	20153c <_vsnprintf+0xec>  // b.none
  201500:	7100c01f 	cmp	w0, #0x30
  201504:	5400076c 	b.gt	2015f0 <_vsnprintf+0x1a0>
  201508:	7100b41f 	cmp	w0, #0x2d
  20150c:	540002a0 	b.eq	201560 <_vsnprintf+0x110>  // b.none
  201510:	7100b41f 	cmp	w0, #0x2d
  201514:	540006ec 	b.gt	2015f0 <_vsnprintf+0x1a0>
  201518:	7100ac1f 	cmp	w0, #0x2b
  20151c:	54000340 	b.eq	201584 <_vsnprintf+0x134>  // b.none
  201520:	7100ac1f 	cmp	w0, #0x2b
  201524:	5400066c 	b.gt	2015f0 <_vsnprintf+0x1a0>
  201528:	7100801f 	cmp	w0, #0x20
  20152c:	540003e0 	b.eq	2015a8 <_vsnprintf+0x158>  // b.none
  201530:	71008c1f 	cmp	w0, #0x23
  201534:	540004c0 	b.eq	2015cc <_vsnprintf+0x17c>  // b.none
  201538:	1400002e 	b	2015f0 <_vsnprintf+0x1a0>
/Users/jd/trustworthy-systems/arinc/ARINC/t1_prototype/microkit_tutorial/prototype_t1/build/../printf.c:605
  20153c:	b9409fe0 	ldr	w0, [sp, #156]
  201540:	32000000 	orr	w0, w0, #0x1
  201544:	b9009fe0 	str	w0, [sp, #156]
  201548:	f9401be0 	ldr	x0, [sp, #48]
  20154c:	91000400 	add	x0, x0, #0x1
  201550:	f9001be0 	str	x0, [sp, #48]
  201554:	52800020 	mov	w0, #0x1                   	// #1
  201558:	b90093e0 	str	w0, [sp, #144]
  20155c:	14000027 	b	2015f8 <_vsnprintf+0x1a8>
/Users/jd/trustworthy-systems/arinc/ARINC/t1_prototype/microkit_tutorial/prototype_t1/build/../printf.c:606
  201560:	b9409fe0 	ldr	w0, [sp, #156]
  201564:	321f0000 	orr	w0, w0, #0x2
  201568:	b9009fe0 	str	w0, [sp, #156]
  20156c:	f9401be0 	ldr	x0, [sp, #48]
  201570:	91000400 	add	x0, x0, #0x1
  201574:	f9001be0 	str	x0, [sp, #48]
  201578:	52800020 	mov	w0, #0x1                   	// #1
  20157c:	b90093e0 	str	w0, [sp, #144]
  201580:	1400001e 	b	2015f8 <_vsnprintf+0x1a8>
/Users/jd/trustworthy-systems/arinc/ARINC/t1_prototype/microkit_tutorial/prototype_t1/build/../printf.c:607
  201584:	b9409fe0 	ldr	w0, [sp, #156]
  201588:	321e0000 	orr	w0, w0, #0x4
  20158c:	b9009fe0 	str	w0, [sp, #156]
  201590:	f9401be0 	ldr	x0, [sp, #48]
  201594:	91000400 	add	x0, x0, #0x1
  201598:	f9001be0 	str	x0, [sp, #48]
  20159c:	52800020 	mov	w0, #0x1                   	// #1
  2015a0:	b90093e0 	str	w0, [sp, #144]
  2015a4:	14000015 	b	2015f8 <_vsnprintf+0x1a8>
/Users/jd/trustworthy-systems/arinc/ARINC/t1_prototype/microkit_tutorial/prototype_t1/build/../printf.c:608
  2015a8:	b9409fe0 	ldr	w0, [sp, #156]
  2015ac:	321d0000 	orr	w0, w0, #0x8
  2015b0:	b9009fe0 	str	w0, [sp, #156]
  2015b4:	f9401be0 	ldr	x0, [sp, #48]
  2015b8:	91000400 	add	x0, x0, #0x1
  2015bc:	f9001be0 	str	x0, [sp, #48]
  2015c0:	52800020 	mov	w0, #0x1                   	// #1
  2015c4:	b90093e0 	str	w0, [sp, #144]
  2015c8:	1400000c 	b	2015f8 <_vsnprintf+0x1a8>
/Users/jd/trustworthy-systems/arinc/ARINC/t1_prototype/microkit_tutorial/prototype_t1/build/../printf.c:609
  2015cc:	b9409fe0 	ldr	w0, [sp, #156]
  2015d0:	321c0000 	orr	w0, w0, #0x10
  2015d4:	b9009fe0 	str	w0, [sp, #156]
  2015d8:	f9401be0 	ldr	x0, [sp, #48]
  2015dc:	91000400 	add	x0, x0, #0x1
  2015e0:	f9001be0 	str	x0, [sp, #48]
  2015e4:	52800020 	mov	w0, #0x1                   	// #1
  2015e8:	b90093e0 	str	w0, [sp, #144]
  2015ec:	14000003 	b	2015f8 <_vsnprintf+0x1a8>
/Users/jd/trustworthy-systems/arinc/ARINC/t1_prototype/microkit_tutorial/prototype_t1/build/../printf.c:610
  2015f0:	b90093ff 	str	wzr, [sp, #144]
  2015f4:	d503201f 	nop
/Users/jd/trustworthy-systems/arinc/ARINC/t1_prototype/microkit_tutorial/prototype_t1/build/../printf.c:612
  2015f8:	b94093e0 	ldr	w0, [sp, #144]
  2015fc:	7100001f 	cmp	w0, #0x0
  201600:	54fff781 	b.ne	2014f0 <_vsnprintf+0xa0>  // b.any
/Users/jd/trustworthy-systems/arinc/ARINC/t1_prototype/microkit_tutorial/prototype_t1/build/../printf.c:615
  201604:	b9009bff 	str	wzr, [sp, #152]
/Users/jd/trustworthy-systems/arinc/ARINC/t1_prototype/microkit_tutorial/prototype_t1/build/../printf.c:616
  201608:	f9401be0 	ldr	x0, [sp, #48]
  20160c:	39400000 	ldrb	w0, [x0]
  201610:	97ffface 	bl	200148 <_is_digit>
  201614:	12001c00 	and	w0, w0, #0xff
/Users/jd/trustworthy-systems/arinc/ARINC/t1_prototype/microkit_tutorial/prototype_t1/build/../printf.c:616 (discriminator 1)
  201618:	12000000 	and	w0, w0, #0x1
  20161c:	7100001f 	cmp	w0, #0x0
  201620:	540000a0 	b.eq	201634 <_vsnprintf+0x1e4>  // b.none
/Users/jd/trustworthy-systems/arinc/ARINC/t1_prototype/microkit_tutorial/prototype_t1/build/../printf.c:617
  201624:	9100c3e0 	add	x0, sp, #0x30
  201628:	97fffad7 	bl	200184 <_atoi>
  20162c:	b9009be0 	str	w0, [sp, #152]
  201630:	1400002a 	b	2016d8 <_vsnprintf+0x288>
/Users/jd/trustworthy-systems/arinc/ARINC/t1_prototype/microkit_tutorial/prototype_t1/build/../printf.c:619
  201634:	f9401be0 	ldr	x0, [sp, #48]
  201638:	39400000 	ldrb	w0, [x0]
  20163c:	7100a81f 	cmp	w0, #0x2a
  201640:	540004c1 	b.ne	2016d8 <_vsnprintf+0x288>  // b.any
/Users/jd/trustworthy-systems/arinc/ARINC/t1_prototype/microkit_tutorial/prototype_t1/build/../printf.c:620
  201644:	b9401a61 	ldr	w1, [x19, #24]
  201648:	f9400260 	ldr	x0, [x19]
  20164c:	7100003f 	cmp	w1, #0x0
  201650:	540000ab 	b.lt	201664 <_vsnprintf+0x214>  // b.tstop
  201654:	91002c01 	add	x1, x0, #0xb
  201658:	927df021 	and	x1, x1, #0xfffffffffffffff8
  20165c:	f9000261 	str	x1, [x19]
  201660:	1400000d 	b	201694 <_vsnprintf+0x244>
  201664:	11002022 	add	w2, w1, #0x8
  201668:	b9001a62 	str	w2, [x19, #24]
  20166c:	b9401a62 	ldr	w2, [x19, #24]
  201670:	7100005f 	cmp	w2, #0x0
  201674:	540000ad 	b.le	201688 <_vsnprintf+0x238>
  201678:	91002c01 	add	x1, x0, #0xb
  20167c:	927df021 	and	x1, x1, #0xfffffffffffffff8
  201680:	f9000261 	str	x1, [x19]
  201684:	14000004 	b	201694 <_vsnprintf+0x244>
  201688:	f9400662 	ldr	x2, [x19, #8]
  20168c:	93407c20 	sxtw	x0, w1
  201690:	8b000040 	add	x0, x2, x0
  201694:	b9400000 	ldr	w0, [x0]
  201698:	b90073e0 	str	w0, [sp, #112]
/Users/jd/trustworthy-systems/arinc/ARINC/t1_prototype/microkit_tutorial/prototype_t1/build/../printf.c:621
  20169c:	b94073e0 	ldr	w0, [sp, #112]
  2016a0:	7100001f 	cmp	w0, #0x0
  2016a4:	5400010a 	b.ge	2016c4 <_vsnprintf+0x274>  // b.tcont
/Users/jd/trustworthy-systems/arinc/ARINC/t1_prototype/microkit_tutorial/prototype_t1/build/../printf.c:622
  2016a8:	b9409fe0 	ldr	w0, [sp, #156]
  2016ac:	321f0000 	orr	w0, w0, #0x2
  2016b0:	b9009fe0 	str	w0, [sp, #156]
/Users/jd/trustworthy-systems/arinc/ARINC/t1_prototype/microkit_tutorial/prototype_t1/build/../printf.c:623
  2016b4:	b94073e0 	ldr	w0, [sp, #112]
  2016b8:	4b0003e0 	neg	w0, w0
  2016bc:	b9009be0 	str	w0, [sp, #152]
  2016c0:	14000003 	b	2016cc <_vsnprintf+0x27c>
/Users/jd/trustworthy-systems/arinc/ARINC/t1_prototype/microkit_tutorial/prototype_t1/build/../printf.c:626
  2016c4:	b94073e0 	ldr	w0, [sp, #112]
  2016c8:	b9009be0 	str	w0, [sp, #152]
/Users/jd/trustworthy-systems/arinc/ARINC/t1_prototype/microkit_tutorial/prototype_t1/build/../printf.c:628
  2016cc:	f9401be0 	ldr	x0, [sp, #48]
  2016d0:	91000400 	add	x0, x0, #0x1
  2016d4:	f9001be0 	str	x0, [sp, #48]
/Users/jd/trustworthy-systems/arinc/ARINC/t1_prototype/microkit_tutorial/prototype_t1/build/../printf.c:632
  2016d8:	b90097ff 	str	wzr, [sp, #148]
/Users/jd/trustworthy-systems/arinc/ARINC/t1_prototype/microkit_tutorial/prototype_t1/build/../printf.c:633
  2016dc:	f9401be0 	ldr	x0, [sp, #48]
  2016e0:	39400000 	ldrb	w0, [x0]
  2016e4:	7100b81f 	cmp	w0, #0x2e
  2016e8:	540006a1 	b.ne	2017bc <_vsnprintf+0x36c>  // b.any
/Users/jd/trustworthy-systems/arinc/ARINC/t1_prototype/microkit_tutorial/prototype_t1/build/../printf.c:634
  2016ec:	b9409fe0 	ldr	w0, [sp, #156]
  2016f0:	32160000 	orr	w0, w0, #0x400
  2016f4:	b9009fe0 	str	w0, [sp, #156]
/Users/jd/trustworthy-systems/arinc/ARINC/t1_prototype/microkit_tutorial/prototype_t1/build/../printf.c:635
  2016f8:	f9401be0 	ldr	x0, [sp, #48]
  2016fc:	91000400 	add	x0, x0, #0x1
  201700:	f9001be0 	str	x0, [sp, #48]
/Users/jd/trustworthy-systems/arinc/ARINC/t1_prototype/microkit_tutorial/prototype_t1/build/../printf.c:636
  201704:	f9401be0 	ldr	x0, [sp, #48]
  201708:	39400000 	ldrb	w0, [x0]
  20170c:	97fffa8f 	bl	200148 <_is_digit>
  201710:	12001c00 	and	w0, w0, #0xff
/Users/jd/trustworthy-systems/arinc/ARINC/t1_prototype/microkit_tutorial/prototype_t1/build/../printf.c:636 (discriminator 1)
  201714:	12000000 	and	w0, w0, #0x1
  201718:	7100001f 	cmp	w0, #0x0
  20171c:	540000a0 	b.eq	201730 <_vsnprintf+0x2e0>  // b.none
/Users/jd/trustworthy-systems/arinc/ARINC/t1_prototype/microkit_tutorial/prototype_t1/build/../printf.c:637
  201720:	9100c3e0 	add	x0, sp, #0x30
  201724:	97fffa98 	bl	200184 <_atoi>
  201728:	b90097e0 	str	w0, [sp, #148]
  20172c:	14000024 	b	2017bc <_vsnprintf+0x36c>
/Users/jd/trustworthy-systems/arinc/ARINC/t1_prototype/microkit_tutorial/prototype_t1/build/../printf.c:639
  201730:	f9401be0 	ldr	x0, [sp, #48]
  201734:	39400000 	ldrb	w0, [x0]
  201738:	7100a81f 	cmp	w0, #0x2a
  20173c:	54000401 	b.ne	2017bc <_vsnprintf+0x36c>  // b.any
/Users/jd/trustworthy-systems/arinc/ARINC/t1_prototype/microkit_tutorial/prototype_t1/build/../printf.c:640
  201740:	b9401a61 	ldr	w1, [x19, #24]
  201744:	f9400260 	ldr	x0, [x19]
  201748:	7100003f 	cmp	w1, #0x0
  20174c:	540000ab 	b.lt	201760 <_vsnprintf+0x310>  // b.tstop
  201750:	91002c01 	add	x1, x0, #0xb
  201754:	927df021 	and	x1, x1, #0xfffffffffffffff8
  201758:	f9000261 	str	x1, [x19]
  20175c:	1400000d 	b	201790 <_vsnprintf+0x340>
  201760:	11002022 	add	w2, w1, #0x8
  201764:	b9001a62 	str	w2, [x19, #24]
  201768:	b9401a62 	ldr	w2, [x19, #24]
  20176c:	7100005f 	cmp	w2, #0x0
  201770:	540000ad 	b.le	201784 <_vsnprintf+0x334>
  201774:	91002c01 	add	x1, x0, #0xb
  201778:	927df021 	and	x1, x1, #0xfffffffffffffff8
  20177c:	f9000261 	str	x1, [x19]
  201780:	14000004 	b	201790 <_vsnprintf+0x340>
  201784:	f9400662 	ldr	x2, [x19, #8]
  201788:	93407c20 	sxtw	x0, w1
  20178c:	8b000040 	add	x0, x2, x0
  201790:	b9400000 	ldr	w0, [x0]
  201794:	b9006fe0 	str	w0, [sp, #108]
/Users/jd/trustworthy-systems/arinc/ARINC/t1_prototype/microkit_tutorial/prototype_t1/build/../printf.c:641
  201798:	b9406fe1 	ldr	w1, [sp, #108]
  20179c:	b9406fe0 	ldr	w0, [sp, #108]
  2017a0:	52800002 	mov	w2, #0x0                   	// #0
  2017a4:	7100003f 	cmp	w1, #0x0
  2017a8:	1a82a000 	csel	w0, w0, w2, ge  // ge = tcont
  2017ac:	b90097e0 	str	w0, [sp, #148]
/Users/jd/trustworthy-systems/arinc/ARINC/t1_prototype/microkit_tutorial/prototype_t1/build/../printf.c:642
  2017b0:	f9401be0 	ldr	x0, [sp, #48]
  2017b4:	91000400 	add	x0, x0, #0x1
  2017b8:	f9001be0 	str	x0, [sp, #48]
/Users/jd/trustworthy-systems/arinc/ARINC/t1_prototype/microkit_tutorial/prototype_t1/build/../printf.c:647
  2017bc:	f9401be0 	ldr	x0, [sp, #48]
  2017c0:	39400000 	ldrb	w0, [x0]
  2017c4:	7101e81f 	cmp	w0, #0x7a
  2017c8:	54000800 	b.eq	2018c8 <_vsnprintf+0x478>  // b.none
  2017cc:	7101e81f 	cmp	w0, #0x7a
  2017d0:	540008ac 	b.gt	2018e4 <_vsnprintf+0x494>
  2017d4:	7101d01f 	cmp	w0, #0x74
  2017d8:	540005c0 	b.eq	201890 <_vsnprintf+0x440>  // b.none
  2017dc:	7101d01f 	cmp	w0, #0x74
  2017e0:	5400082c 	b.gt	2018e4 <_vsnprintf+0x494>
  2017e4:	7101b01f 	cmp	w0, #0x6c
  2017e8:	54000100 	b.eq	201808 <_vsnprintf+0x3b8>  // b.none
  2017ec:	7101b01f 	cmp	w0, #0x6c
  2017f0:	540007ac 	b.gt	2018e4 <_vsnprintf+0x494>
  2017f4:	7101a01f 	cmp	w0, #0x68
  2017f8:	540002a0 	b.eq	20184c <_vsnprintf+0x3fc>  // b.none
  2017fc:	7101a81f 	cmp	w0, #0x6a
  201800:	54000560 	b.eq	2018ac <_vsnprintf+0x45c>  // b.none
/Users/jd/trustworthy-systems/arinc/ARINC/t1_prototype/microkit_tutorial/prototype_t1/build/../printf.c:679
  201804:	14000038 	b	2018e4 <_vsnprintf+0x494>
/Users/jd/trustworthy-systems/arinc/ARINC/t1_prototype/microkit_tutorial/prototype_t1/build/../printf.c:649
  201808:	b9409fe0 	ldr	w0, [sp, #156]
  20180c:	32180000 	orr	w0, w0, #0x100
  201810:	b9009fe0 	str	w0, [sp, #156]
/Users/jd/trustworthy-systems/arinc/ARINC/t1_prototype/microkit_tutorial/prototype_t1/build/../printf.c:650
  201814:	f9401be0 	ldr	x0, [sp, #48]
  201818:	91000400 	add	x0, x0, #0x1
  20181c:	f9001be0 	str	x0, [sp, #48]
/Users/jd/trustworthy-systems/arinc/ARINC/t1_prototype/microkit_tutorial/prototype_t1/build/../printf.c:651
  201820:	f9401be0 	ldr	x0, [sp, #48]
  201824:	39400000 	ldrb	w0, [x0]
  201828:	7101b01f 	cmp	w0, #0x6c
  20182c:	54000601 	b.ne	2018ec <_vsnprintf+0x49c>  // b.any
/Users/jd/trustworthy-systems/arinc/ARINC/t1_prototype/microkit_tutorial/prototype_t1/build/../printf.c:652
  201830:	b9409fe0 	ldr	w0, [sp, #156]
  201834:	32170000 	orr	w0, w0, #0x200
  201838:	b9009fe0 	str	w0, [sp, #156]
/Users/jd/trustworthy-systems/arinc/ARINC/t1_prototype/microkit_tutorial/prototype_t1/build/../printf.c:653
  20183c:	f9401be0 	ldr	x0, [sp, #48]
  201840:	91000400 	add	x0, x0, #0x1
  201844:	f9001be0 	str	x0, [sp, #48]
/Users/jd/trustworthy-systems/arinc/ARINC/t1_prototype/microkit_tutorial/prototype_t1/build/../printf.c:655
  201848:	14000029 	b	2018ec <_vsnprintf+0x49c>
/Users/jd/trustworthy-systems/arinc/ARINC/t1_prototype/microkit_tutorial/prototype_t1/build/../printf.c:657
  20184c:	b9409fe0 	ldr	w0, [sp, #156]
  201850:	32190000 	orr	w0, w0, #0x80
  201854:	b9009fe0 	str	w0, [sp, #156]
/Users/jd/trustworthy-systems/arinc/ARINC/t1_prototype/microkit_tutorial/prototype_t1/build/../printf.c:658
  201858:	f9401be0 	ldr	x0, [sp, #48]
  20185c:	91000400 	add	x0, x0, #0x1
  201860:	f9001be0 	str	x0, [sp, #48]
/Users/jd/trustworthy-systems/arinc/ARINC/t1_prototype/microkit_tutorial/prototype_t1/build/../printf.c:659
  201864:	f9401be0 	ldr	x0, [sp, #48]
  201868:	39400000 	ldrb	w0, [x0]
  20186c:	7101a01f 	cmp	w0, #0x68
  201870:	54000421 	b.ne	2018f4 <_vsnprintf+0x4a4>  // b.any
/Users/jd/trustworthy-systems/arinc/ARINC/t1_prototype/microkit_tutorial/prototype_t1/build/../printf.c:660
  201874:	b9409fe0 	ldr	w0, [sp, #156]
  201878:	321a0000 	orr	w0, w0, #0x40
  20187c:	b9009fe0 	str	w0, [sp, #156]
/Users/jd/trustworthy-systems/arinc/ARINC/t1_prototype/microkit_tutorial/prototype_t1/build/../printf.c:661
  201880:	f9401be0 	ldr	x0, [sp, #48]
  201884:	91000400 	add	x0, x0, #0x1
  201888:	f9001be0 	str	x0, [sp, #48]
/Users/jd/trustworthy-systems/arinc/ARINC/t1_prototype/microkit_tutorial/prototype_t1/build/../printf.c:663
  20188c:	1400001a 	b	2018f4 <_vsnprintf+0x4a4>
/Users/jd/trustworthy-systems/arinc/ARINC/t1_prototype/microkit_tutorial/prototype_t1/build/../printf.c:666
  201890:	b9409fe0 	ldr	w0, [sp, #156]
  201894:	32180000 	orr	w0, w0, #0x100
  201898:	b9009fe0 	str	w0, [sp, #156]
/Users/jd/trustworthy-systems/arinc/ARINC/t1_prototype/microkit_tutorial/prototype_t1/build/../printf.c:667
  20189c:	f9401be0 	ldr	x0, [sp, #48]
  2018a0:	91000400 	add	x0, x0, #0x1
  2018a4:	f9001be0 	str	x0, [sp, #48]
/Users/jd/trustworthy-systems/arinc/ARINC/t1_prototype/microkit_tutorial/prototype_t1/build/../printf.c:668
  2018a8:	14000014 	b	2018f8 <_vsnprintf+0x4a8>
/Users/jd/trustworthy-systems/arinc/ARINC/t1_prototype/microkit_tutorial/prototype_t1/build/../printf.c:671
  2018ac:	b9409fe0 	ldr	w0, [sp, #156]
  2018b0:	32180000 	orr	w0, w0, #0x100
  2018b4:	b9009fe0 	str	w0, [sp, #156]
/Users/jd/trustworthy-systems/arinc/ARINC/t1_prototype/microkit_tutorial/prototype_t1/build/../printf.c:672
  2018b8:	f9401be0 	ldr	x0, [sp, #48]
  2018bc:	91000400 	add	x0, x0, #0x1
  2018c0:	f9001be0 	str	x0, [sp, #48]
/Users/jd/trustworthy-systems/arinc/ARINC/t1_prototype/microkit_tutorial/prototype_t1/build/../printf.c:673
  2018c4:	1400000d 	b	2018f8 <_vsnprintf+0x4a8>
/Users/jd/trustworthy-systems/arinc/ARINC/t1_prototype/microkit_tutorial/prototype_t1/build/../printf.c:675
  2018c8:	b9409fe0 	ldr	w0, [sp, #156]
  2018cc:	32180000 	orr	w0, w0, #0x100
  2018d0:	b9009fe0 	str	w0, [sp, #156]
/Users/jd/trustworthy-systems/arinc/ARINC/t1_prototype/microkit_tutorial/prototype_t1/build/../printf.c:676
  2018d4:	f9401be0 	ldr	x0, [sp, #48]
  2018d8:	91000400 	add	x0, x0, #0x1
  2018dc:	f9001be0 	str	x0, [sp, #48]
/Users/jd/trustworthy-systems/arinc/ARINC/t1_prototype/microkit_tutorial/prototype_t1/build/../printf.c:677
  2018e0:	14000006 	b	2018f8 <_vsnprintf+0x4a8>
/Users/jd/trustworthy-systems/arinc/ARINC/t1_prototype/microkit_tutorial/prototype_t1/build/../printf.c:679
  2018e4:	d503201f 	nop
  2018e8:	14000004 	b	2018f8 <_vsnprintf+0x4a8>
/Users/jd/trustworthy-systems/arinc/ARINC/t1_prototype/microkit_tutorial/prototype_t1/build/../printf.c:655
  2018ec:	d503201f 	nop
  2018f0:	14000002 	b	2018f8 <_vsnprintf+0x4a8>
/Users/jd/trustworthy-systems/arinc/ARINC/t1_prototype/microkit_tutorial/prototype_t1/build/../printf.c:663
  2018f4:	d503201f 	nop
/Users/jd/trustworthy-systems/arinc/ARINC/t1_prototype/microkit_tutorial/prototype_t1/build/../printf.c:683
  2018f8:	f9401be0 	ldr	x0, [sp, #48]
  2018fc:	39400000 	ldrb	w0, [x0]
  201900:	71019c1f 	cmp	w0, #0x67
  201904:	540004ec 	b.gt	2019a0 <_vsnprintf+0x550>
  201908:	7100941f 	cmp	w0, #0x25
  20190c:	5400038a 	b.ge	20197c <_vsnprintf+0x52c>  // b.tcont
  201910:	14000364 	b	2026a0 <_vsnprintf+0x1250>
  201914:	5101a400 	sub	w0, w0, #0x69
  201918:	d2800021 	mov	x1, #0x1                   	// #1
  20191c:	9ac02020 	lsl	x0, x1, x0
  201920:	d2920821 	mov	x1, #0x9041                	// #36929
  201924:	8a010001 	and	x1, x0, x1
  201928:	f100003f 	cmp	x1, #0x0
  20192c:	1a9f07e1 	cset	w1, ne  // ne = any
  201930:	12001c21 	and	w1, w1, #0xff
  201934:	12000021 	and	w1, w1, #0x1
  201938:	7100003f 	cmp	w1, #0x0
  20193c:	540003c1 	b.ne	2019b4 <_vsnprintf+0x564>  // b.any
  201940:	92790001 	and	x1, x0, #0x80
  201944:	f100003f 	cmp	x1, #0x0
  201948:	1a9f07e1 	cset	w1, ne  // ne = any
  20194c:	12001c21 	and	w1, w1, #0xff
  201950:	12000021 	and	w1, w1, #0x1
  201954:	7100003f 	cmp	w1, #0x0
  201958:	54005d81 	b.ne	202508 <_vsnprintf+0x10b8>  // b.any
  20195c:	92760000 	and	x0, x0, #0x400
  201960:	f100001f 	cmp	x0, #0x0
  201964:	1a9f07e0 	cset	w0, ne  // ne = any
  201968:	12001c00 	and	w0, w0, #0xff
  20196c:	12000000 	and	w0, w0, #0x1
  201970:	7100001f 	cmp	w0, #0x0
  201974:	54004e81 	b.ne	202344 <_vsnprintf+0xef4>  // b.any
  201978:	1400034a 	b	2026a0 <_vsnprintf+0x1250>
  20197c:	51009400 	sub	w0, w0, #0x25
  201980:	7101081f 	cmp	w0, #0x42
  201984:	540068e8 	b.hi	2026a0 <_vsnprintf+0x1250>  // b.pmore
  201988:	f0000001 	adrp	x1, 204000 <main+0xc0>
  20198c:	9109d021 	add	x1, x1, #0x274
  201990:	b8605820 	ldr	w0, [x1, w0, uxtw #2]
  201994:	10000061 	adr	x1, 2019a0 <_vsnprintf+0x550>
  201998:	8b20c820 	add	x0, x1, w0, sxtw #2
  20199c:	d61f0000 	br	x0
  2019a0:	7101e01f 	cmp	w0, #0x78
  2019a4:	540067ec 	b.gt	2026a0 <_vsnprintf+0x1250>
  2019a8:	7101a41f 	cmp	w0, #0x69
  2019ac:	54fffb4a 	b.ge	201914 <_vsnprintf+0x4c4>  // b.tcont
  2019b0:	1400033c 	b	2026a0 <_vsnprintf+0x1250>
/Users/jd/trustworthy-systems/arinc/ARINC/t1_prototype/microkit_tutorial/prototype_t1/build/../printf.c:693
  2019b4:	f9401be0 	ldr	x0, [sp, #48]
  2019b8:	39400000 	ldrb	w0, [x0]
  2019bc:	7101e01f 	cmp	w0, #0x78
  2019c0:	540000a0 	b.eq	2019d4 <_vsnprintf+0x584>  // b.none
/Users/jd/trustworthy-systems/arinc/ARINC/t1_prototype/microkit_tutorial/prototype_t1/build/../printf.c:693 (discriminator 1)
  2019c4:	f9401be0 	ldr	x0, [sp, #48]
  2019c8:	39400000 	ldrb	w0, [x0]
  2019cc:	7101601f 	cmp	w0, #0x58
  2019d0:	54000081 	b.ne	2019e0 <_vsnprintf+0x590>  // b.any
/Users/jd/trustworthy-systems/arinc/ARINC/t1_prototype/microkit_tutorial/prototype_t1/build/../printf.c:694
  2019d4:	52800200 	mov	w0, #0x10                  	// #16
  2019d8:	b90087e0 	str	w0, [sp, #132]
  2019dc:	14000014 	b	201a2c <_vsnprintf+0x5dc>
/Users/jd/trustworthy-systems/arinc/ARINC/t1_prototype/microkit_tutorial/prototype_t1/build/../printf.c:696
  2019e0:	f9401be0 	ldr	x0, [sp, #48]
  2019e4:	39400000 	ldrb	w0, [x0]
  2019e8:	7101bc1f 	cmp	w0, #0x6f
  2019ec:	54000081 	b.ne	2019fc <_vsnprintf+0x5ac>  // b.any
/Users/jd/trustworthy-systems/arinc/ARINC/t1_prototype/microkit_tutorial/prototype_t1/build/../printf.c:697
  2019f0:	52800100 	mov	w0, #0x8                   	// #8
  2019f4:	b90087e0 	str	w0, [sp, #132]
  2019f8:	1400000d 	b	201a2c <_vsnprintf+0x5dc>
/Users/jd/trustworthy-systems/arinc/ARINC/t1_prototype/microkit_tutorial/prototype_t1/build/../printf.c:699
  2019fc:	f9401be0 	ldr	x0, [sp, #48]
  201a00:	39400000 	ldrb	w0, [x0]
  201a04:	7101881f 	cmp	w0, #0x62
  201a08:	54000081 	b.ne	201a18 <_vsnprintf+0x5c8>  // b.any
/Users/jd/trustworthy-systems/arinc/ARINC/t1_prototype/microkit_tutorial/prototype_t1/build/../printf.c:700
  201a0c:	52800040 	mov	w0, #0x2                   	// #2
  201a10:	b90087e0 	str	w0, [sp, #132]
  201a14:	14000006 	b	201a2c <_vsnprintf+0x5dc>
/Users/jd/trustworthy-systems/arinc/ARINC/t1_prototype/microkit_tutorial/prototype_t1/build/../printf.c:703
  201a18:	52800140 	mov	w0, #0xa                   	// #10
  201a1c:	b90087e0 	str	w0, [sp, #132]
/Users/jd/trustworthy-systems/arinc/ARINC/t1_prototype/microkit_tutorial/prototype_t1/build/../printf.c:704
  201a20:	b9409fe0 	ldr	w0, [sp, #156]
  201a24:	121b7800 	and	w0, w0, #0xffffffef
  201a28:	b9009fe0 	str	w0, [sp, #156]
/Users/jd/trustworthy-systems/arinc/ARINC/t1_prototype/microkit_tutorial/prototype_t1/build/../printf.c:707
  201a2c:	f9401be0 	ldr	x0, [sp, #48]
  201a30:	39400000 	ldrb	w0, [x0]
  201a34:	7101601f 	cmp	w0, #0x58
  201a38:	54000081 	b.ne	201a48 <_vsnprintf+0x5f8>  // b.any
/Users/jd/trustworthy-systems/arinc/ARINC/t1_prototype/microkit_tutorial/prototype_t1/build/../printf.c:708
  201a3c:	b9409fe0 	ldr	w0, [sp, #156]
  201a40:	321b0000 	orr	w0, w0, #0x20
  201a44:	b9009fe0 	str	w0, [sp, #156]
/Users/jd/trustworthy-systems/arinc/ARINC/t1_prototype/microkit_tutorial/prototype_t1/build/../printf.c:712
  201a48:	f9401be0 	ldr	x0, [sp, #48]
  201a4c:	39400000 	ldrb	w0, [x0]
  201a50:	7101a41f 	cmp	w0, #0x69
  201a54:	54000100 	b.eq	201a74 <_vsnprintf+0x624>  // b.none
/Users/jd/trustworthy-systems/arinc/ARINC/t1_prototype/microkit_tutorial/prototype_t1/build/../printf.c:712 (discriminator 1)
  201a58:	f9401be0 	ldr	x0, [sp, #48]
  201a5c:	39400000 	ldrb	w0, [x0]
  201a60:	7101901f 	cmp	w0, #0x64
  201a64:	54000080 	b.eq	201a74 <_vsnprintf+0x624>  // b.none
/Users/jd/trustworthy-systems/arinc/ARINC/t1_prototype/microkit_tutorial/prototype_t1/build/../printf.c:713
  201a68:	b9409fe0 	ldr	w0, [sp, #156]
  201a6c:	121c7400 	and	w0, w0, #0xfffffff3
  201a70:	b9009fe0 	str	w0, [sp, #156]
/Users/jd/trustworthy-systems/arinc/ARINC/t1_prototype/microkit_tutorial/prototype_t1/build/../printf.c:717
  201a74:	b9409fe0 	ldr	w0, [sp, #156]
  201a78:	12160000 	and	w0, w0, #0x400
  201a7c:	7100001f 	cmp	w0, #0x0
  201a80:	54000080 	b.eq	201a90 <_vsnprintf+0x640>  // b.none
/Users/jd/trustworthy-systems/arinc/ARINC/t1_prototype/microkit_tutorial/prototype_t1/build/../printf.c:718
  201a84:	b9409fe0 	ldr	w0, [sp, #156]
  201a88:	121f7800 	and	w0, w0, #0xfffffffe
  201a8c:	b9009fe0 	str	w0, [sp, #156]
/Users/jd/trustworthy-systems/arinc/ARINC/t1_prototype/microkit_tutorial/prototype_t1/build/../printf.c:722
  201a90:	f9401be0 	ldr	x0, [sp, #48]
  201a94:	39400000 	ldrb	w0, [x0]
  201a98:	7101a41f 	cmp	w0, #0x69
  201a9c:	540000a0 	b.eq	201ab0 <_vsnprintf+0x660>  // b.none
/Users/jd/trustworthy-systems/arinc/ARINC/t1_prototype/microkit_tutorial/prototype_t1/build/../printf.c:722 (discriminator 1)
  201aa0:	f9401be0 	ldr	x0, [sp, #48]
  201aa4:	39400000 	ldrb	w0, [x0]
  201aa8:	7101901f 	cmp	w0, #0x64
  201aac:	540018c1 	b.ne	201dc4 <_vsnprintf+0x974>  // b.any
/Users/jd/trustworthy-systems/arinc/ARINC/t1_prototype/microkit_tutorial/prototype_t1/build/../printf.c:724
  201ab0:	b9409fe0 	ldr	w0, [sp, #156]
  201ab4:	12170000 	and	w0, w0, #0x200
  201ab8:	7100001f 	cmp	w0, #0x0
  201abc:	540005c0 	b.eq	201b74 <_vsnprintf+0x724>  // b.none
/Users/jd/trustworthy-systems/arinc/ARINC/t1_prototype/microkit_tutorial/prototype_t1/build/../printf.c:726
  201ac0:	b9401a61 	ldr	w1, [x19, #24]
  201ac4:	f9400260 	ldr	x0, [x19]
  201ac8:	7100003f 	cmp	w1, #0x0
  201acc:	540000ab 	b.lt	201ae0 <_vsnprintf+0x690>  // b.tstop
  201ad0:	91003c01 	add	x1, x0, #0xf
  201ad4:	927df021 	and	x1, x1, #0xfffffffffffffff8
  201ad8:	f9000261 	str	x1, [x19]
  201adc:	1400000d 	b	201b10 <_vsnprintf+0x6c0>
  201ae0:	11002022 	add	w2, w1, #0x8
  201ae4:	b9001a62 	str	w2, [x19, #24]
  201ae8:	b9401a62 	ldr	w2, [x19, #24]
  201aec:	7100005f 	cmp	w2, #0x0
  201af0:	540000ad 	b.le	201b04 <_vsnprintf+0x6b4>
  201af4:	91003c01 	add	x1, x0, #0xf
  201af8:	927df021 	and	x1, x1, #0xfffffffffffffff8
  201afc:	f9000261 	str	x1, [x19]
  201b00:	14000004 	b	201b10 <_vsnprintf+0x6c0>
  201b04:	f9400662 	ldr	x2, [x19, #8]
  201b08:	93407c20 	sxtw	x0, w1
  201b0c:	8b000040 	add	x0, x2, x0
  201b10:	f9400000 	ldr	x0, [x0]
  201b14:	f9002be0 	str	x0, [sp, #80]
/Users/jd/trustworthy-systems/arinc/ARINC/t1_prototype/microkit_tutorial/prototype_t1/build/../printf.c:727
  201b18:	f9402be0 	ldr	x0, [sp, #80]
  201b1c:	f100001f 	cmp	x0, #0x0
  201b20:	da80a400 	cneg	x0, x0, lt  // lt = tstop
  201b24:	aa0003e3 	mov	x3, x0
  201b28:	f9402be0 	ldr	x0, [sp, #80]
  201b2c:	d37ffc00 	lsr	x0, x0, #63
  201b30:	12001c02 	and	w2, w0, #0xff
  201b34:	b94087e1 	ldr	w1, [sp, #132]
  201b38:	b9409fe0 	ldr	w0, [sp, #156]
  201b3c:	b9000be0 	str	w0, [sp, #8]
  201b40:	b9409be0 	ldr	w0, [sp, #152]
  201b44:	b90003e0 	str	w0, [sp]
  201b48:	b94097e7 	ldr	w7, [sp, #148]
  201b4c:	aa0103e6 	mov	x6, x1
  201b50:	2a0203e5 	mov	w5, w2
  201b54:	aa0303e4 	mov	x4, x3
  201b58:	f9401fe3 	ldr	x3, [sp, #56]
  201b5c:	f94047e2 	ldr	x2, [sp, #136]
  201b60:	f94023e1 	ldr	x1, [sp, #64]
  201b64:	f94027e0 	ldr	x0, [sp, #72]
  201b68:	97fffb19 	bl	2007cc <_ntoa_long_long>
  201b6c:	f90047e0 	str	x0, [sp, #136]
/Users/jd/trustworthy-systems/arinc/ARINC/t1_prototype/microkit_tutorial/prototype_t1/build/../printf.c:724
  201b70:	14000143 	b	20207c <_vsnprintf+0xc2c>
/Users/jd/trustworthy-systems/arinc/ARINC/t1_prototype/microkit_tutorial/prototype_t1/build/../printf.c:730
  201b74:	b9409fe0 	ldr	w0, [sp, #156]
  201b78:	12180000 	and	w0, w0, #0x100
  201b7c:	7100001f 	cmp	w0, #0x0
  201b80:	540005c0 	b.eq	201c38 <_vsnprintf+0x7e8>  // b.none
/Users/jd/trustworthy-systems/arinc/ARINC/t1_prototype/microkit_tutorial/prototype_t1/build/../printf.c:731
  201b84:	b9401a61 	ldr	w1, [x19, #24]
  201b88:	f9400260 	ldr	x0, [x19]
  201b8c:	7100003f 	cmp	w1, #0x0
  201b90:	540000ab 	b.lt	201ba4 <_vsnprintf+0x754>  // b.tstop
  201b94:	91003c01 	add	x1, x0, #0xf
  201b98:	927df021 	and	x1, x1, #0xfffffffffffffff8
  201b9c:	f9000261 	str	x1, [x19]
  201ba0:	1400000d 	b	201bd4 <_vsnprintf+0x784>
  201ba4:	11002022 	add	w2, w1, #0x8
  201ba8:	b9001a62 	str	w2, [x19, #24]
  201bac:	b9401a62 	ldr	w2, [x19, #24]
  201bb0:	7100005f 	cmp	w2, #0x0
  201bb4:	540000ad 	b.le	201bc8 <_vsnprintf+0x778>
  201bb8:	91003c01 	add	x1, x0, #0xf
  201bbc:	927df021 	and	x1, x1, #0xfffffffffffffff8
  201bc0:	f9000261 	str	x1, [x19]
  201bc4:	14000004 	b	201bd4 <_vsnprintf+0x784>
  201bc8:	f9400662 	ldr	x2, [x19, #8]
  201bcc:	93407c20 	sxtw	x0, w1
  201bd0:	8b000040 	add	x0, x2, x0
  201bd4:	f9400000 	ldr	x0, [x0]
  201bd8:	f9002fe0 	str	x0, [sp, #88]
/Users/jd/trustworthy-systems/arinc/ARINC/t1_prototype/microkit_tutorial/prototype_t1/build/../printf.c:732
  201bdc:	f9402fe0 	ldr	x0, [sp, #88]
  201be0:	f100001f 	cmp	x0, #0x0
  201be4:	da80a400 	cneg	x0, x0, lt  // lt = tstop
  201be8:	aa0003e3 	mov	x3, x0
  201bec:	f9402fe0 	ldr	x0, [sp, #88]
  201bf0:	d37ffc00 	lsr	x0, x0, #63
  201bf4:	12001c02 	and	w2, w0, #0xff
  201bf8:	b94087e1 	ldr	w1, [sp, #132]
  201bfc:	b9409fe0 	ldr	w0, [sp, #156]
  201c00:	b9000be0 	str	w0, [sp, #8]
  201c04:	b9409be0 	ldr	w0, [sp, #152]
  201c08:	b90003e0 	str	w0, [sp]
  201c0c:	b94097e7 	ldr	w7, [sp, #148]
  201c10:	aa0103e6 	mov	x6, x1
  201c14:	2a0203e5 	mov	w5, w2
  201c18:	aa0303e4 	mov	x4, x3
  201c1c:	f9401fe3 	ldr	x3, [sp, #56]
  201c20:	f94047e2 	ldr	x2, [sp, #136]
  201c24:	f94023e1 	ldr	x1, [sp, #64]
  201c28:	f94027e0 	ldr	x0, [sp, #72]
  201c2c:	97fffa91 	bl	200670 <_ntoa_long>
  201c30:	f90047e0 	str	x0, [sp, #136]
/Users/jd/trustworthy-systems/arinc/ARINC/t1_prototype/microkit_tutorial/prototype_t1/build/../printf.c:724
  201c34:	14000112 	b	20207c <_vsnprintf+0xc2c>
/Users/jd/trustworthy-systems/arinc/ARINC/t1_prototype/microkit_tutorial/prototype_t1/build/../printf.c:735
  201c38:	b9409fe0 	ldr	w0, [sp, #156]
  201c3c:	121a0000 	and	w0, w0, #0x40
  201c40:	7100001f 	cmp	w0, #0x0
  201c44:	54000300 	b.eq	201ca4 <_vsnprintf+0x854>  // b.none
/Users/jd/trustworthy-systems/arinc/ARINC/t1_prototype/microkit_tutorial/prototype_t1/build/../printf.c:735 (discriminator 1)
  201c48:	b9401a61 	ldr	w1, [x19, #24]
  201c4c:	f9400260 	ldr	x0, [x19]
  201c50:	7100003f 	cmp	w1, #0x0
  201c54:	540000ab 	b.lt	201c68 <_vsnprintf+0x818>  // b.tstop
  201c58:	91002c01 	add	x1, x0, #0xb
  201c5c:	927df021 	and	x1, x1, #0xfffffffffffffff8
  201c60:	f9000261 	str	x1, [x19]
  201c64:	1400000d 	b	201c98 <_vsnprintf+0x848>
  201c68:	11002022 	add	w2, w1, #0x8
  201c6c:	b9001a62 	str	w2, [x19, #24]
  201c70:	b9401a62 	ldr	w2, [x19, #24]
  201c74:	7100005f 	cmp	w2, #0x0
  201c78:	540000ad 	b.le	201c8c <_vsnprintf+0x83c>
  201c7c:	91002c01 	add	x1, x0, #0xb
  201c80:	927df021 	and	x1, x1, #0xfffffffffffffff8
  201c84:	f9000261 	str	x1, [x19]
  201c88:	14000004 	b	201c98 <_vsnprintf+0x848>
  201c8c:	f9400662 	ldr	x2, [x19, #8]
  201c90:	93407c20 	sxtw	x0, w1
  201c94:	8b000040 	add	x0, x2, x0
  201c98:	b9400000 	ldr	w0, [x0]
  201c9c:	12001c00 	and	w0, w0, #0xff
  201ca0:	14000031 	b	201d64 <_vsnprintf+0x914>
/Users/jd/trustworthy-systems/arinc/ARINC/t1_prototype/microkit_tutorial/prototype_t1/build/../printf.c:735 (discriminator 2)
  201ca4:	b9409fe0 	ldr	w0, [sp, #156]
  201ca8:	12190000 	and	w0, w0, #0x80
  201cac:	7100001f 	cmp	w0, #0x0
  201cb0:	54000300 	b.eq	201d10 <_vsnprintf+0x8c0>  // b.none
/Users/jd/trustworthy-systems/arinc/ARINC/t1_prototype/microkit_tutorial/prototype_t1/build/../printf.c:735 (discriminator 4)
  201cb4:	b9401a61 	ldr	w1, [x19, #24]
  201cb8:	f9400260 	ldr	x0, [x19]
  201cbc:	7100003f 	cmp	w1, #0x0
  201cc0:	540000ab 	b.lt	201cd4 <_vsnprintf+0x884>  // b.tstop
  201cc4:	91002c01 	add	x1, x0, #0xb
  201cc8:	927df021 	and	x1, x1, #0xfffffffffffffff8
  201ccc:	f9000261 	str	x1, [x19]
  201cd0:	1400000d 	b	201d04 <_vsnprintf+0x8b4>
  201cd4:	11002022 	add	w2, w1, #0x8
  201cd8:	b9001a62 	str	w2, [x19, #24]
  201cdc:	b9401a62 	ldr	w2, [x19, #24]
  201ce0:	7100005f 	cmp	w2, #0x0
  201ce4:	540000ad 	b.le	201cf8 <_vsnprintf+0x8a8>
  201ce8:	91002c01 	add	x1, x0, #0xb
  201cec:	927df021 	and	x1, x1, #0xfffffffffffffff8
  201cf0:	f9000261 	str	x1, [x19]
  201cf4:	14000004 	b	201d04 <_vsnprintf+0x8b4>
  201cf8:	f9400662 	ldr	x2, [x19, #8]
  201cfc:	93407c20 	sxtw	x0, w1
  201d00:	8b000040 	add	x0, x2, x0
  201d04:	b9400000 	ldr	w0, [x0]
/Users/jd/trustworthy-systems/arinc/ARINC/t1_prototype/microkit_tutorial/prototype_t1/build/../printf.c:735 (discriminator 1)
  201d08:	13003c00 	sxth	w0, w0
  201d0c:	14000016 	b	201d64 <_vsnprintf+0x914>
/Users/jd/trustworthy-systems/arinc/ARINC/t1_prototype/microkit_tutorial/prototype_t1/build/../printf.c:735 (discriminator 5)
  201d10:	b9401a61 	ldr	w1, [x19, #24]
  201d14:	f9400260 	ldr	x0, [x19]
  201d18:	7100003f 	cmp	w1, #0x0
  201d1c:	540000ab 	b.lt	201d30 <_vsnprintf+0x8e0>  // b.tstop
  201d20:	91002c01 	add	x1, x0, #0xb
  201d24:	927df021 	and	x1, x1, #0xfffffffffffffff8
  201d28:	f9000261 	str	x1, [x19]
  201d2c:	1400000d 	b	201d60 <_vsnprintf+0x910>
  201d30:	11002022 	add	w2, w1, #0x8
  201d34:	b9001a62 	str	w2, [x19, #24]
  201d38:	b9401a62 	ldr	w2, [x19, #24]
  201d3c:	7100005f 	cmp	w2, #0x0
  201d40:	540000ad 	b.le	201d54 <_vsnprintf+0x904>
  201d44:	91002c01 	add	x1, x0, #0xb
  201d48:	927df021 	and	x1, x1, #0xfffffffffffffff8
  201d4c:	f9000261 	str	x1, [x19]
  201d50:	14000004 	b	201d60 <_vsnprintf+0x910>
  201d54:	f9400662 	ldr	x2, [x19, #8]
  201d58:	93407c20 	sxtw	x0, w1
  201d5c:	8b000040 	add	x0, x2, x0
  201d60:	b9400000 	ldr	w0, [x0]
/Users/jd/trustworthy-systems/arinc/ARINC/t1_prototype/microkit_tutorial/prototype_t1/build/../printf.c:735 (discriminator 8)
  201d64:	b90063e0 	str	w0, [sp, #96]
/Users/jd/trustworthy-systems/arinc/ARINC/t1_prototype/microkit_tutorial/prototype_t1/build/../printf.c:736
  201d68:	b94063e0 	ldr	w0, [sp, #96]
  201d6c:	7100001f 	cmp	w0, #0x0
  201d70:	5a80a400 	cneg	w0, w0, lt  // lt = tstop
  201d74:	2a0003e1 	mov	w1, w0
  201d78:	b94063e0 	ldr	w0, [sp, #96]
  201d7c:	531f7c00 	lsr	w0, w0, #31
  201d80:	12001c03 	and	w3, w0, #0xff
  201d84:	b94087e2 	ldr	w2, [sp, #132]
  201d88:	b9409fe0 	ldr	w0, [sp, #156]
  201d8c:	b9000be0 	str	w0, [sp, #8]
  201d90:	b9409be0 	ldr	w0, [sp, #152]
  201d94:	b90003e0 	str	w0, [sp]
  201d98:	b94097e7 	ldr	w7, [sp, #148]
  201d9c:	aa0203e6 	mov	x6, x2
  201da0:	2a0303e5 	mov	w5, w3
  201da4:	aa0103e4 	mov	x4, x1
  201da8:	f9401fe3 	ldr	x3, [sp, #56]
  201dac:	f94047e2 	ldr	x2, [sp, #136]
  201db0:	f94023e1 	ldr	x1, [sp, #64]
  201db4:	f94027e0 	ldr	x0, [sp, #72]
  201db8:	97fffa2e 	bl	200670 <_ntoa_long>
  201dbc:	f90047e0 	str	x0, [sp, #136]
/Users/jd/trustworthy-systems/arinc/ARINC/t1_prototype/microkit_tutorial/prototype_t1/build/../printf.c:724
  201dc0:	140000af 	b	20207c <_vsnprintf+0xc2c>
/Users/jd/trustworthy-systems/arinc/ARINC/t1_prototype/microkit_tutorial/prototype_t1/build/../printf.c:741
  201dc4:	b9409fe0 	ldr	w0, [sp, #156]
  201dc8:	12170000 	and	w0, w0, #0x200
  201dcc:	7100001f 	cmp	w0, #0x0
  201dd0:	540004c0 	b.eq	201e68 <_vsnprintf+0xa18>  // b.none
/Users/jd/trustworthy-systems/arinc/ARINC/t1_prototype/microkit_tutorial/prototype_t1/build/../printf.c:743
  201dd4:	b9401a61 	ldr	w1, [x19, #24]
  201dd8:	f9400260 	ldr	x0, [x19]
  201ddc:	7100003f 	cmp	w1, #0x0
  201de0:	540000ab 	b.lt	201df4 <_vsnprintf+0x9a4>  // b.tstop
  201de4:	91003c01 	add	x1, x0, #0xf
  201de8:	927df021 	and	x1, x1, #0xfffffffffffffff8
  201dec:	f9000261 	str	x1, [x19]
  201df0:	1400000d 	b	201e24 <_vsnprintf+0x9d4>
  201df4:	11002022 	add	w2, w1, #0x8
  201df8:	b9001a62 	str	w2, [x19, #24]
  201dfc:	b9401a62 	ldr	w2, [x19, #24]
  201e00:	7100005f 	cmp	w2, #0x0
  201e04:	540000ad 	b.le	201e18 <_vsnprintf+0x9c8>
  201e08:	91003c01 	add	x1, x0, #0xf
  201e0c:	927df021 	and	x1, x1, #0xfffffffffffffff8
  201e10:	f9000261 	str	x1, [x19]
  201e14:	14000004 	b	201e24 <_vsnprintf+0x9d4>
  201e18:	f9400662 	ldr	x2, [x19, #8]
  201e1c:	93407c20 	sxtw	x0, w1
  201e20:	8b000040 	add	x0, x2, x0
  201e24:	f9400001 	ldr	x1, [x0]
/Users/jd/trustworthy-systems/arinc/ARINC/t1_prototype/microkit_tutorial/prototype_t1/build/../printf.c:743 (discriminator 1)
  201e28:	b94087e2 	ldr	w2, [sp, #132]
  201e2c:	b9409fe0 	ldr	w0, [sp, #156]
  201e30:	b9000be0 	str	w0, [sp, #8]
  201e34:	b9409be0 	ldr	w0, [sp, #152]
  201e38:	b90003e0 	str	w0, [sp]
  201e3c:	b94097e7 	ldr	w7, [sp, #148]
  201e40:	aa0203e6 	mov	x6, x2
  201e44:	52800005 	mov	w5, #0x0                   	// #0
  201e48:	aa0103e4 	mov	x4, x1
  201e4c:	f9401fe3 	ldr	x3, [sp, #56]
  201e50:	f94047e2 	ldr	x2, [sp, #136]
  201e54:	f94023e1 	ldr	x1, [sp, #64]
  201e58:	f94027e0 	ldr	x0, [sp, #72]
  201e5c:	97fffa5c 	bl	2007cc <_ntoa_long_long>
  201e60:	f90047e0 	str	x0, [sp, #136]
  201e64:	14000086 	b	20207c <_vsnprintf+0xc2c>
/Users/jd/trustworthy-systems/arinc/ARINC/t1_prototype/microkit_tutorial/prototype_t1/build/../printf.c:746
  201e68:	b9409fe0 	ldr	w0, [sp, #156]
  201e6c:	12180000 	and	w0, w0, #0x100
  201e70:	7100001f 	cmp	w0, #0x0
  201e74:	540004c0 	b.eq	201f0c <_vsnprintf+0xabc>  // b.none
/Users/jd/trustworthy-systems/arinc/ARINC/t1_prototype/microkit_tutorial/prototype_t1/build/../printf.c:747
  201e78:	b9401a61 	ldr	w1, [x19, #24]
  201e7c:	f9400260 	ldr	x0, [x19]
  201e80:	7100003f 	cmp	w1, #0x0
  201e84:	540000ab 	b.lt	201e98 <_vsnprintf+0xa48>  // b.tstop
  201e88:	91003c01 	add	x1, x0, #0xf
  201e8c:	927df021 	and	x1, x1, #0xfffffffffffffff8
  201e90:	f9000261 	str	x1, [x19]
  201e94:	1400000d 	b	201ec8 <_vsnprintf+0xa78>
  201e98:	11002022 	add	w2, w1, #0x8
  201e9c:	b9001a62 	str	w2, [x19, #24]
  201ea0:	b9401a62 	ldr	w2, [x19, #24]
  201ea4:	7100005f 	cmp	w2, #0x0
  201ea8:	540000ad 	b.le	201ebc <_vsnprintf+0xa6c>
  201eac:	91003c01 	add	x1, x0, #0xf
  201eb0:	927df021 	and	x1, x1, #0xfffffffffffffff8
  201eb4:	f9000261 	str	x1, [x19]
  201eb8:	14000004 	b	201ec8 <_vsnprintf+0xa78>
  201ebc:	f9400662 	ldr	x2, [x19, #8]
  201ec0:	93407c20 	sxtw	x0, w1
  201ec4:	8b000040 	add	x0, x2, x0
  201ec8:	f9400001 	ldr	x1, [x0]
/Users/jd/trustworthy-systems/arinc/ARINC/t1_prototype/microkit_tutorial/prototype_t1/build/../printf.c:747 (discriminator 1)
  201ecc:	b94087e2 	ldr	w2, [sp, #132]
  201ed0:	b9409fe0 	ldr	w0, [sp, #156]
  201ed4:	b9000be0 	str	w0, [sp, #8]
  201ed8:	b9409be0 	ldr	w0, [sp, #152]
  201edc:	b90003e0 	str	w0, [sp]
  201ee0:	b94097e7 	ldr	w7, [sp, #148]
  201ee4:	aa0203e6 	mov	x6, x2
  201ee8:	52800005 	mov	w5, #0x0                   	// #0
  201eec:	aa0103e4 	mov	x4, x1
  201ef0:	f9401fe3 	ldr	x3, [sp, #56]
  201ef4:	f94047e2 	ldr	x2, [sp, #136]
  201ef8:	f94023e1 	ldr	x1, [sp, #64]
  201efc:	f94027e0 	ldr	x0, [sp, #72]
  201f00:	97fff9dc 	bl	200670 <_ntoa_long>
  201f04:	f90047e0 	str	x0, [sp, #136]
  201f08:	1400005d 	b	20207c <_vsnprintf+0xc2c>
/Users/jd/trustworthy-systems/arinc/ARINC/t1_prototype/microkit_tutorial/prototype_t1/build/../printf.c:750
  201f0c:	b9409fe0 	ldr	w0, [sp, #156]
  201f10:	121a0000 	and	w0, w0, #0x40
  201f14:	7100001f 	cmp	w0, #0x0
  201f18:	54000300 	b.eq	201f78 <_vsnprintf+0xb28>  // b.none
/Users/jd/trustworthy-systems/arinc/ARINC/t1_prototype/microkit_tutorial/prototype_t1/build/../printf.c:750 (discriminator 1)
  201f1c:	b9401a61 	ldr	w1, [x19, #24]
  201f20:	f9400260 	ldr	x0, [x19]
  201f24:	7100003f 	cmp	w1, #0x0
  201f28:	540000ab 	b.lt	201f3c <_vsnprintf+0xaec>  // b.tstop
  201f2c:	91002c01 	add	x1, x0, #0xb
  201f30:	927df021 	and	x1, x1, #0xfffffffffffffff8
  201f34:	f9000261 	str	x1, [x19]
  201f38:	1400000d 	b	201f6c <_vsnprintf+0xb1c>
  201f3c:	11002022 	add	w2, w1, #0x8
  201f40:	b9001a62 	str	w2, [x19, #24]
  201f44:	b9401a62 	ldr	w2, [x19, #24]
  201f48:	7100005f 	cmp	w2, #0x0
  201f4c:	540000ad 	b.le	201f60 <_vsnprintf+0xb10>
  201f50:	91002c01 	add	x1, x0, #0xb
  201f54:	927df021 	and	x1, x1, #0xfffffffffffffff8
  201f58:	f9000261 	str	x1, [x19]
  201f5c:	14000004 	b	201f6c <_vsnprintf+0xb1c>
  201f60:	f9400662 	ldr	x2, [x19, #8]
  201f64:	93407c20 	sxtw	x0, w1
  201f68:	8b000040 	add	x0, x2, x0
  201f6c:	b9400000 	ldr	w0, [x0]
  201f70:	12001c00 	and	w0, w0, #0xff
  201f74:	14000031 	b	202038 <_vsnprintf+0xbe8>
/Users/jd/trustworthy-systems/arinc/ARINC/t1_prototype/microkit_tutorial/prototype_t1/build/../printf.c:750 (discriminator 2)
  201f78:	b9409fe0 	ldr	w0, [sp, #156]
  201f7c:	12190000 	and	w0, w0, #0x80
  201f80:	7100001f 	cmp	w0, #0x0
  201f84:	54000300 	b.eq	201fe4 <_vsnprintf+0xb94>  // b.none
/Users/jd/trustworthy-systems/arinc/ARINC/t1_prototype/microkit_tutorial/prototype_t1/build/../printf.c:750 (discriminator 4)
  201f88:	b9401a61 	ldr	w1, [x19, #24]
  201f8c:	f9400260 	ldr	x0, [x19]
  201f90:	7100003f 	cmp	w1, #0x0
  201f94:	540000ab 	b.lt	201fa8 <_vsnprintf+0xb58>  // b.tstop
  201f98:	91002c01 	add	x1, x0, #0xb
  201f9c:	927df021 	and	x1, x1, #0xfffffffffffffff8
  201fa0:	f9000261 	str	x1, [x19]
  201fa4:	1400000d 	b	201fd8 <_vsnprintf+0xb88>
  201fa8:	11002022 	add	w2, w1, #0x8
  201fac:	b9001a62 	str	w2, [x19, #24]
  201fb0:	b9401a62 	ldr	w2, [x19, #24]
  201fb4:	7100005f 	cmp	w2, #0x0
  201fb8:	540000ad 	b.le	201fcc <_vsnprintf+0xb7c>
  201fbc:	91002c01 	add	x1, x0, #0xb
  201fc0:	927df021 	and	x1, x1, #0xfffffffffffffff8
  201fc4:	f9000261 	str	x1, [x19]
  201fc8:	14000004 	b	201fd8 <_vsnprintf+0xb88>
  201fcc:	f9400662 	ldr	x2, [x19, #8]
  201fd0:	93407c20 	sxtw	x0, w1
  201fd4:	8b000040 	add	x0, x2, x0
  201fd8:	b9400000 	ldr	w0, [x0]
/Users/jd/trustworthy-systems/arinc/ARINC/t1_prototype/microkit_tutorial/prototype_t1/build/../printf.c:750 (discriminator 1)
  201fdc:	12003c00 	and	w0, w0, #0xffff
  201fe0:	14000016 	b	202038 <_vsnprintf+0xbe8>
/Users/jd/trustworthy-systems/arinc/ARINC/t1_prototype/microkit_tutorial/prototype_t1/build/../printf.c:750 (discriminator 5)
  201fe4:	b9401a61 	ldr	w1, [x19, #24]
  201fe8:	f9400260 	ldr	x0, [x19]
  201fec:	7100003f 	cmp	w1, #0x0
  201ff0:	540000ab 	b.lt	202004 <_vsnprintf+0xbb4>  // b.tstop
  201ff4:	91002c01 	add	x1, x0, #0xb
  201ff8:	927df021 	and	x1, x1, #0xfffffffffffffff8
  201ffc:	f9000261 	str	x1, [x19]
  202000:	1400000d 	b	202034 <_vsnprintf+0xbe4>
  202004:	11002022 	add	w2, w1, #0x8
  202008:	b9001a62 	str	w2, [x19, #24]
  20200c:	b9401a62 	ldr	w2, [x19, #24]
  202010:	7100005f 	cmp	w2, #0x0
  202014:	540000ad 	b.le	202028 <_vsnprintf+0xbd8>
  202018:	91002c01 	add	x1, x0, #0xb
  20201c:	927df021 	and	x1, x1, #0xfffffffffffffff8
  202020:	f9000261 	str	x1, [x19]
  202024:	14000004 	b	202034 <_vsnprintf+0xbe4>
  202028:	f9400662 	ldr	x2, [x19, #8]
  20202c:	93407c20 	sxtw	x0, w1
  202030:	8b000040 	add	x0, x2, x0
  202034:	b9400000 	ldr	w0, [x0]
/Users/jd/trustworthy-systems/arinc/ARINC/t1_prototype/microkit_tutorial/prototype_t1/build/../printf.c:750 (discriminator 8)
  202038:	b90067e0 	str	w0, [sp, #100]
/Users/jd/trustworthy-systems/arinc/ARINC/t1_prototype/microkit_tutorial/prototype_t1/build/../printf.c:751
  20203c:	b94067e1 	ldr	w1, [sp, #100]
  202040:	b94087e2 	ldr	w2, [sp, #132]
  202044:	b9409fe0 	ldr	w0, [sp, #156]
  202048:	b9000be0 	str	w0, [sp, #8]
  20204c:	b9409be0 	ldr	w0, [sp, #152]
  202050:	b90003e0 	str	w0, [sp]
  202054:	b94097e7 	ldr	w7, [sp, #148]
  202058:	aa0203e6 	mov	x6, x2
  20205c:	52800005 	mov	w5, #0x0                   	// #0
  202060:	aa0103e4 	mov	x4, x1
  202064:	f9401fe3 	ldr	x3, [sp, #56]
  202068:	f94047e2 	ldr	x2, [sp, #136]
  20206c:	f94023e1 	ldr	x1, [sp, #64]
  202070:	f94027e0 	ldr	x0, [sp, #72]
  202074:	97fff97f 	bl	200670 <_ntoa_long>
  202078:	f90047e0 	str	x0, [sp, #136]
/Users/jd/trustworthy-systems/arinc/ARINC/t1_prototype/microkit_tutorial/prototype_t1/build/../printf.c:754
  20207c:	f9401be0 	ldr	x0, [sp, #48]
  202080:	91000400 	add	x0, x0, #0x1
  202084:	f9001be0 	str	x0, [sp, #48]
/Users/jd/trustworthy-systems/arinc/ARINC/t1_prototype/microkit_tutorial/prototype_t1/build/../printf.c:755
  202088:	14000195 	b	2026dc <_vsnprintf+0x128c>
/Users/jd/trustworthy-systems/arinc/ARINC/t1_prototype/microkit_tutorial/prototype_t1/build/../printf.c:760
  20208c:	f9401be0 	ldr	x0, [sp, #48]
  202090:	39400000 	ldrb	w0, [x0]
  202094:	7101181f 	cmp	w0, #0x46
  202098:	54000081 	b.ne	2020a8 <_vsnprintf+0xc58>  // b.any
/Users/jd/trustworthy-systems/arinc/ARINC/t1_prototype/microkit_tutorial/prototype_t1/build/../printf.c:760 (discriminator 1)
  20209c:	b9409fe0 	ldr	w0, [sp, #156]
  2020a0:	321b0000 	orr	w0, w0, #0x20
  2020a4:	b9009fe0 	str	w0, [sp, #156]
/Users/jd/trustworthy-systems/arinc/ARINC/t1_prototype/microkit_tutorial/prototype_t1/build/../printf.c:761
  2020a8:	b9401e61 	ldr	w1, [x19, #28]
  2020ac:	f9400260 	ldr	x0, [x19]
  2020b0:	7100003f 	cmp	w1, #0x0
  2020b4:	540000ab 	b.lt	2020c8 <_vsnprintf+0xc78>  // b.tstop
  2020b8:	91003c01 	add	x1, x0, #0xf
  2020bc:	927df021 	and	x1, x1, #0xfffffffffffffff8
  2020c0:	f9000261 	str	x1, [x19]
  2020c4:	1400000d 	b	2020f8 <_vsnprintf+0xca8>
  2020c8:	11004022 	add	w2, w1, #0x10
  2020cc:	b9001e62 	str	w2, [x19, #28]
  2020d0:	b9401e62 	ldr	w2, [x19, #28]
  2020d4:	7100005f 	cmp	w2, #0x0
  2020d8:	540000ad 	b.le	2020ec <_vsnprintf+0xc9c>
  2020dc:	91003c01 	add	x1, x0, #0xf
  2020e0:	927df021 	and	x1, x1, #0xfffffffffffffff8
  2020e4:	f9000261 	str	x1, [x19]
  2020e8:	14000004 	b	2020f8 <_vsnprintf+0xca8>
  2020ec:	f9400a62 	ldr	x2, [x19, #16]
  2020f0:	93407c20 	sxtw	x0, w1
  2020f4:	8b000040 	add	x0, x2, x0
  2020f8:	fd400000 	ldr	d0, [x0]
/Users/jd/trustworthy-systems/arinc/ARINC/t1_prototype/microkit_tutorial/prototype_t1/build/../printf.c:761 (discriminator 1)
  2020fc:	b9409fe6 	ldr	w6, [sp, #156]
  202100:	b9409be5 	ldr	w5, [sp, #152]
  202104:	b94097e4 	ldr	w4, [sp, #148]
  202108:	f9401fe3 	ldr	x3, [sp, #56]
  20210c:	f94047e2 	ldr	x2, [sp, #136]
  202110:	f94023e1 	ldr	x1, [sp, #64]
  202114:	f94027e0 	ldr	x0, [sp, #72]
  202118:	97fffa04 	bl	200928 <_ftoa>
  20211c:	f90047e0 	str	x0, [sp, #136]
/Users/jd/trustworthy-systems/arinc/ARINC/t1_prototype/microkit_tutorial/prototype_t1/build/../printf.c:762
  202120:	f9401be0 	ldr	x0, [sp, #48]
  202124:	91000400 	add	x0, x0, #0x1
  202128:	f9001be0 	str	x0, [sp, #48]
/Users/jd/trustworthy-systems/arinc/ARINC/t1_prototype/microkit_tutorial/prototype_t1/build/../printf.c:763
  20212c:	1400016c 	b	2026dc <_vsnprintf+0x128c>
/Users/jd/trustworthy-systems/arinc/ARINC/t1_prototype/microkit_tutorial/prototype_t1/build/../printf.c:769
  202130:	f9401be0 	ldr	x0, [sp, #48]
  202134:	39400000 	ldrb	w0, [x0]
  202138:	71019c1f 	cmp	w0, #0x67
  20213c:	540000a0 	b.eq	202150 <_vsnprintf+0xd00>  // b.none
/Users/jd/trustworthy-systems/arinc/ARINC/t1_prototype/microkit_tutorial/prototype_t1/build/../printf.c:769 (discriminator 2)
  202140:	f9401be0 	ldr	x0, [sp, #48]
  202144:	39400000 	ldrb	w0, [x0]
  202148:	71011c1f 	cmp	w0, #0x47
  20214c:	54000081 	b.ne	20215c <_vsnprintf+0xd0c>  // b.any
/Users/jd/trustworthy-systems/arinc/ARINC/t1_prototype/microkit_tutorial/prototype_t1/build/../printf.c:769 (discriminator 3)
  202150:	b9409fe0 	ldr	w0, [sp, #156]
  202154:	32150000 	orr	w0, w0, #0x800
  202158:	b9009fe0 	str	w0, [sp, #156]
/Users/jd/trustworthy-systems/arinc/ARINC/t1_prototype/microkit_tutorial/prototype_t1/build/../printf.c:770
  20215c:	f9401be0 	ldr	x0, [sp, #48]
  202160:	39400000 	ldrb	w0, [x0]
  202164:	7101141f 	cmp	w0, #0x45
  202168:	540000a0 	b.eq	20217c <_vsnprintf+0xd2c>  // b.none
/Users/jd/trustworthy-systems/arinc/ARINC/t1_prototype/microkit_tutorial/prototype_t1/build/../printf.c:770 (discriminator 2)
  20216c:	f9401be0 	ldr	x0, [sp, #48]
  202170:	39400000 	ldrb	w0, [x0]
  202174:	71011c1f 	cmp	w0, #0x47
  202178:	54000081 	b.ne	202188 <_vsnprintf+0xd38>  // b.any
/Users/jd/trustworthy-systems/arinc/ARINC/t1_prototype/microkit_tutorial/prototype_t1/build/../printf.c:770 (discriminator 3)
  20217c:	b9409fe0 	ldr	w0, [sp, #156]
  202180:	321b0000 	orr	w0, w0, #0x20
  202184:	b9009fe0 	str	w0, [sp, #156]
/Users/jd/trustworthy-systems/arinc/ARINC/t1_prototype/microkit_tutorial/prototype_t1/build/../printf.c:771
  202188:	b9401e61 	ldr	w1, [x19, #28]
  20218c:	f9400260 	ldr	x0, [x19]
  202190:	7100003f 	cmp	w1, #0x0
  202194:	540000ab 	b.lt	2021a8 <_vsnprintf+0xd58>  // b.tstop
  202198:	91003c01 	add	x1, x0, #0xf
  20219c:	927df021 	and	x1, x1, #0xfffffffffffffff8
  2021a0:	f9000261 	str	x1, [x19]
  2021a4:	1400000d 	b	2021d8 <_vsnprintf+0xd88>
  2021a8:	11004022 	add	w2, w1, #0x10
  2021ac:	b9001e62 	str	w2, [x19, #28]
  2021b0:	b9401e62 	ldr	w2, [x19, #28]
  2021b4:	7100005f 	cmp	w2, #0x0
  2021b8:	540000ad 	b.le	2021cc <_vsnprintf+0xd7c>
  2021bc:	91003c01 	add	x1, x0, #0xf
  2021c0:	927df021 	and	x1, x1, #0xfffffffffffffff8
  2021c4:	f9000261 	str	x1, [x19]
  2021c8:	14000004 	b	2021d8 <_vsnprintf+0xd88>
  2021cc:	f9400a62 	ldr	x2, [x19, #16]
  2021d0:	93407c20 	sxtw	x0, w1
  2021d4:	8b000040 	add	x0, x2, x0
  2021d8:	fd400000 	ldr	d0, [x0]
/Users/jd/trustworthy-systems/arinc/ARINC/t1_prototype/microkit_tutorial/prototype_t1/build/../printf.c:771 (discriminator 1)
  2021dc:	b9409fe6 	ldr	w6, [sp, #156]
  2021e0:	b9409be5 	ldr	w5, [sp, #152]
  2021e4:	b94097e4 	ldr	w4, [sp, #148]
  2021e8:	f9401fe3 	ldr	x3, [sp, #56]
  2021ec:	f94047e2 	ldr	x2, [sp, #136]
  2021f0:	f94023e1 	ldr	x1, [sp, #64]
  2021f4:	f94027e0 	ldr	x0, [sp, #72]
  2021f8:	97fffb5e 	bl	200f70 <_etoa>
  2021fc:	f90047e0 	str	x0, [sp, #136]
/Users/jd/trustworthy-systems/arinc/ARINC/t1_prototype/microkit_tutorial/prototype_t1/build/../printf.c:772
  202200:	f9401be0 	ldr	x0, [sp, #48]
  202204:	91000400 	add	x0, x0, #0x1
  202208:	f9001be0 	str	x0, [sp, #48]
/Users/jd/trustworthy-systems/arinc/ARINC/t1_prototype/microkit_tutorial/prototype_t1/build/../printf.c:773
  20220c:	14000134 	b	2026dc <_vsnprintf+0x128c>
/Users/jd/trustworthy-systems/arinc/ARINC/t1_prototype/microkit_tutorial/prototype_t1/build/../printf.c:777
  202210:	52800020 	mov	w0, #0x1                   	// #1
  202214:	b90083e0 	str	w0, [sp, #128]
/Users/jd/trustworthy-systems/arinc/ARINC/t1_prototype/microkit_tutorial/prototype_t1/build/../printf.c:779
  202218:	b9409fe0 	ldr	w0, [sp, #156]
  20221c:	121f0000 	and	w0, w0, #0x2
  202220:	7100001f 	cmp	w0, #0x0
  202224:	54000221 	b.ne	202268 <_vsnprintf+0xe18>  // b.any
/Users/jd/trustworthy-systems/arinc/ARINC/t1_prototype/microkit_tutorial/prototype_t1/build/../printf.c:780
  202228:	1400000a 	b	202250 <_vsnprintf+0xe00>
/Users/jd/trustworthy-systems/arinc/ARINC/t1_prototype/microkit_tutorial/prototype_t1/build/../printf.c:781
  20222c:	f94047e0 	ldr	x0, [sp, #136]
  202230:	91000401 	add	x1, x0, #0x1
  202234:	f90047e1 	str	x1, [sp, #136]
  202238:	f94027e4 	ldr	x4, [sp, #72]
  20223c:	f9401fe3 	ldr	x3, [sp, #56]
  202240:	aa0003e2 	mov	x2, x0
  202244:	f94023e1 	ldr	x1, [sp, #64]
  202248:	52800400 	mov	w0, #0x20                  	// #32
  20224c:	d63f0080 	blr	x4
/Users/jd/trustworthy-systems/arinc/ARINC/t1_prototype/microkit_tutorial/prototype_t1/build/../printf.c:780
  202250:	b94083e0 	ldr	w0, [sp, #128]
  202254:	11000401 	add	w1, w0, #0x1
  202258:	b90083e1 	str	w1, [sp, #128]
  20225c:	b9409be1 	ldr	w1, [sp, #152]
  202260:	6b00003f 	cmp	w1, w0
  202264:	54fffe48 	b.hi	20222c <_vsnprintf+0xddc>  // b.pmore
/Users/jd/trustworthy-systems/arinc/ARINC/t1_prototype/microkit_tutorial/prototype_t1/build/../printf.c:785
  202268:	b9401a61 	ldr	w1, [x19, #24]
  20226c:	f9400260 	ldr	x0, [x19]
  202270:	7100003f 	cmp	w1, #0x0
  202274:	540000ab 	b.lt	202288 <_vsnprintf+0xe38>  // b.tstop
  202278:	91002c01 	add	x1, x0, #0xb
  20227c:	927df021 	and	x1, x1, #0xfffffffffffffff8
  202280:	f9000261 	str	x1, [x19]
  202284:	1400000d 	b	2022b8 <_vsnprintf+0xe68>
  202288:	11002022 	add	w2, w1, #0x8
  20228c:	b9001a62 	str	w2, [x19, #24]
  202290:	b9401a62 	ldr	w2, [x19, #24]
  202294:	7100005f 	cmp	w2, #0x0
  202298:	540000ad 	b.le	2022ac <_vsnprintf+0xe5c>
  20229c:	91002c01 	add	x1, x0, #0xb
  2022a0:	927df021 	and	x1, x1, #0xfffffffffffffff8
  2022a4:	f9000261 	str	x1, [x19]
  2022a8:	14000004 	b	2022b8 <_vsnprintf+0xe68>
  2022ac:	f9400662 	ldr	x2, [x19, #8]
  2022b0:	93407c20 	sxtw	x0, w1
  2022b4:	8b000040 	add	x0, x2, x0
  2022b8:	b9400000 	ldr	w0, [x0]
/Users/jd/trustworthy-systems/arinc/ARINC/t1_prototype/microkit_tutorial/prototype_t1/build/../printf.c:785 (discriminator 1)
  2022bc:	12001c05 	and	w5, w0, #0xff
  2022c0:	f94047e0 	ldr	x0, [sp, #136]
  2022c4:	91000401 	add	x1, x0, #0x1
  2022c8:	f90047e1 	str	x1, [sp, #136]
  2022cc:	f94027e4 	ldr	x4, [sp, #72]
  2022d0:	f9401fe3 	ldr	x3, [sp, #56]
  2022d4:	aa0003e2 	mov	x2, x0
  2022d8:	f94023e1 	ldr	x1, [sp, #64]
  2022dc:	2a0503e0 	mov	w0, w5
  2022e0:	d63f0080 	blr	x4
/Users/jd/trustworthy-systems/arinc/ARINC/t1_prototype/microkit_tutorial/prototype_t1/build/../printf.c:787
  2022e4:	b9409fe0 	ldr	w0, [sp, #156]
  2022e8:	121f0000 	and	w0, w0, #0x2
  2022ec:	7100001f 	cmp	w0, #0x0
  2022f0:	54000220 	b.eq	202334 <_vsnprintf+0xee4>  // b.none
/Users/jd/trustworthy-systems/arinc/ARINC/t1_prototype/microkit_tutorial/prototype_t1/build/../printf.c:788
  2022f4:	1400000a 	b	20231c <_vsnprintf+0xecc>
/Users/jd/trustworthy-systems/arinc/ARINC/t1_prototype/microkit_tutorial/prototype_t1/build/../printf.c:789
  2022f8:	f94047e0 	ldr	x0, [sp, #136]
  2022fc:	91000401 	add	x1, x0, #0x1
  202300:	f90047e1 	str	x1, [sp, #136]
  202304:	f94027e4 	ldr	x4, [sp, #72]
  202308:	f9401fe3 	ldr	x3, [sp, #56]
  20230c:	aa0003e2 	mov	x2, x0
  202310:	f94023e1 	ldr	x1, [sp, #64]
  202314:	52800400 	mov	w0, #0x20                  	// #32
  202318:	d63f0080 	blr	x4
/Users/jd/trustworthy-systems/arinc/ARINC/t1_prototype/microkit_tutorial/prototype_t1/build/../printf.c:788
  20231c:	b94083e0 	ldr	w0, [sp, #128]
  202320:	11000401 	add	w1, w0, #0x1
  202324:	b90083e1 	str	w1, [sp, #128]
  202328:	b9409be1 	ldr	w1, [sp, #152]
  20232c:	6b00003f 	cmp	w1, w0
  202330:	54fffe48 	b.hi	2022f8 <_vsnprintf+0xea8>  // b.pmore
/Users/jd/trustworthy-systems/arinc/ARINC/t1_prototype/microkit_tutorial/prototype_t1/build/../printf.c:792
  202334:	f9401be0 	ldr	x0, [sp, #48]
  202338:	91000400 	add	x0, x0, #0x1
  20233c:	f9001be0 	str	x0, [sp, #48]
/Users/jd/trustworthy-systems/arinc/ARINC/t1_prototype/microkit_tutorial/prototype_t1/build/../printf.c:793
  202340:	140000e7 	b	2026dc <_vsnprintf+0x128c>
/Users/jd/trustworthy-systems/arinc/ARINC/t1_prototype/microkit_tutorial/prototype_t1/build/../printf.c:797
  202344:	b9401a61 	ldr	w1, [x19, #24]
  202348:	f9400260 	ldr	x0, [x19]
  20234c:	7100003f 	cmp	w1, #0x0
  202350:	540000ab 	b.lt	202364 <_vsnprintf+0xf14>  // b.tstop
  202354:	91003c01 	add	x1, x0, #0xf
  202358:	927df021 	and	x1, x1, #0xfffffffffffffff8
  20235c:	f9000261 	str	x1, [x19]
  202360:	1400000d 	b	202394 <_vsnprintf+0xf44>
  202364:	11002022 	add	w2, w1, #0x8
  202368:	b9001a62 	str	w2, [x19, #24]
  20236c:	b9401a62 	ldr	w2, [x19, #24]
  202370:	7100005f 	cmp	w2, #0x0
  202374:	540000ad 	b.le	202388 <_vsnprintf+0xf38>
  202378:	91003c01 	add	x1, x0, #0xf
  20237c:	927df021 	and	x1, x1, #0xfffffffffffffff8
  202380:	f9000261 	str	x1, [x19]
  202384:	14000004 	b	202394 <_vsnprintf+0xf44>
  202388:	f9400662 	ldr	x2, [x19, #8]
  20238c:	93407c20 	sxtw	x0, w1
  202390:	8b000040 	add	x0, x2, x0
  202394:	f9400000 	ldr	x0, [x0]
  202398:	f9003fe0 	str	x0, [sp, #120]
/Users/jd/trustworthy-systems/arinc/ARINC/t1_prototype/microkit_tutorial/prototype_t1/build/../printf.c:798
  20239c:	b94097e0 	ldr	w0, [sp, #148]
  2023a0:	7100001f 	cmp	w0, #0x0
  2023a4:	54000060 	b.eq	2023b0 <_vsnprintf+0xf60>  // b.none
/Users/jd/trustworthy-systems/arinc/ARINC/t1_prototype/microkit_tutorial/prototype_t1/build/../printf.c:798 (discriminator 1)
  2023a8:	b94097e0 	ldr	w0, [sp, #148]
  2023ac:	14000002 	b	2023b4 <_vsnprintf+0xf64>
/Users/jd/trustworthy-systems/arinc/ARINC/t1_prototype/microkit_tutorial/prototype_t1/build/../printf.c:798 (discriminator 2)
  2023b0:	92800000 	mov	x0, #0xffffffffffffffff    	// #-1
/Users/jd/trustworthy-systems/arinc/ARINC/t1_prototype/microkit_tutorial/prototype_t1/build/../printf.c:798 (discriminator 4)
  2023b4:	aa0003e1 	mov	x1, x0
  2023b8:	f9403fe0 	ldr	x0, [sp, #120]
  2023bc:	97fff74c 	bl	2000ec <_strnlen_s>
  2023c0:	b90077e0 	str	w0, [sp, #116]
/Users/jd/trustworthy-systems/arinc/ARINC/t1_prototype/microkit_tutorial/prototype_t1/build/../printf.c:800
  2023c4:	b9409fe0 	ldr	w0, [sp, #156]
  2023c8:	12160000 	and	w0, w0, #0x400
  2023cc:	7100001f 	cmp	w0, #0x0
  2023d0:	540000e0 	b.eq	2023ec <_vsnprintf+0xf9c>  // b.none
/Users/jd/trustworthy-systems/arinc/ARINC/t1_prototype/microkit_tutorial/prototype_t1/build/../printf.c:801
  2023d4:	b94077e0 	ldr	w0, [sp, #116]
  2023d8:	b94097e2 	ldr	w2, [sp, #148]
  2023dc:	b94097e1 	ldr	w1, [sp, #148]
  2023e0:	6b00005f 	cmp	w2, w0
  2023e4:	1a809020 	csel	w0, w1, w0, ls  // ls = plast
  2023e8:	b90077e0 	str	w0, [sp, #116]
/Users/jd/trustworthy-systems/arinc/ARINC/t1_prototype/microkit_tutorial/prototype_t1/build/../printf.c:803
  2023ec:	b9409fe0 	ldr	w0, [sp, #156]
  2023f0:	121f0000 	and	w0, w0, #0x2
  2023f4:	7100001f 	cmp	w0, #0x0
  2023f8:	540003e1 	b.ne	202474 <_vsnprintf+0x1024>  // b.any
/Users/jd/trustworthy-systems/arinc/ARINC/t1_prototype/microkit_tutorial/prototype_t1/build/../printf.c:804
  2023fc:	1400000a 	b	202424 <_vsnprintf+0xfd4>
/Users/jd/trustworthy-systems/arinc/ARINC/t1_prototype/microkit_tutorial/prototype_t1/build/../printf.c:805
  202400:	f94047e0 	ldr	x0, [sp, #136]
  202404:	91000401 	add	x1, x0, #0x1
  202408:	f90047e1 	str	x1, [sp, #136]
  20240c:	f94027e4 	ldr	x4, [sp, #72]
  202410:	f9401fe3 	ldr	x3, [sp, #56]
  202414:	aa0003e2 	mov	x2, x0
  202418:	f94023e1 	ldr	x1, [sp, #64]
  20241c:	52800400 	mov	w0, #0x20                  	// #32
  202420:	d63f0080 	blr	x4
/Users/jd/trustworthy-systems/arinc/ARINC/t1_prototype/microkit_tutorial/prototype_t1/build/../printf.c:804
  202424:	b94077e0 	ldr	w0, [sp, #116]
  202428:	11000401 	add	w1, w0, #0x1
  20242c:	b90077e1 	str	w1, [sp, #116]
  202430:	b9409be1 	ldr	w1, [sp, #152]
  202434:	6b00003f 	cmp	w1, w0
  202438:	54fffe48 	b.hi	202400 <_vsnprintf+0xfb0>  // b.pmore
/Users/jd/trustworthy-systems/arinc/ARINC/t1_prototype/microkit_tutorial/prototype_t1/build/../printf.c:809
  20243c:	1400000e 	b	202474 <_vsnprintf+0x1024>
/Users/jd/trustworthy-systems/arinc/ARINC/t1_prototype/microkit_tutorial/prototype_t1/build/../printf.c:810
  202440:	f9403fe0 	ldr	x0, [sp, #120]
  202444:	91000401 	add	x1, x0, #0x1
  202448:	f9003fe1 	str	x1, [sp, #120]
  20244c:	39400005 	ldrb	w5, [x0]
  202450:	f94047e0 	ldr	x0, [sp, #136]
  202454:	91000401 	add	x1, x0, #0x1
  202458:	f90047e1 	str	x1, [sp, #136]
  20245c:	f94027e4 	ldr	x4, [sp, #72]
  202460:	f9401fe3 	ldr	x3, [sp, #56]
  202464:	aa0003e2 	mov	x2, x0
  202468:	f94023e1 	ldr	x1, [sp, #64]
  20246c:	2a0503e0 	mov	w0, w5
  202470:	d63f0080 	blr	x4
/Users/jd/trustworthy-systems/arinc/ARINC/t1_prototype/microkit_tutorial/prototype_t1/build/../printf.c:809
  202474:	f9403fe0 	ldr	x0, [sp, #120]
  202478:	39400000 	ldrb	w0, [x0]
  20247c:	7100001f 	cmp	w0, #0x0
  202480:	54000140 	b.eq	2024a8 <_vsnprintf+0x1058>  // b.none
/Users/jd/trustworthy-systems/arinc/ARINC/t1_prototype/microkit_tutorial/prototype_t1/build/../printf.c:809 (discriminator 1)
  202484:	b9409fe0 	ldr	w0, [sp, #156]
  202488:	12160000 	and	w0, w0, #0x400
  20248c:	7100001f 	cmp	w0, #0x0
  202490:	54fffd80 	b.eq	202440 <_vsnprintf+0xff0>  // b.none
/Users/jd/trustworthy-systems/arinc/ARINC/t1_prototype/microkit_tutorial/prototype_t1/build/../printf.c:809 (discriminator 2)
  202494:	b94097e0 	ldr	w0, [sp, #148]
  202498:	51000401 	sub	w1, w0, #0x1
  20249c:	b90097e1 	str	w1, [sp, #148]
  2024a0:	7100001f 	cmp	w0, #0x0
  2024a4:	54fffce1 	b.ne	202440 <_vsnprintf+0xff0>  // b.any
/Users/jd/trustworthy-systems/arinc/ARINC/t1_prototype/microkit_tutorial/prototype_t1/build/../printf.c:813
  2024a8:	b9409fe0 	ldr	w0, [sp, #156]
  2024ac:	121f0000 	and	w0, w0, #0x2
  2024b0:	7100001f 	cmp	w0, #0x0
  2024b4:	54000220 	b.eq	2024f8 <_vsnprintf+0x10a8>  // b.none
/Users/jd/trustworthy-systems/arinc/ARINC/t1_prototype/microkit_tutorial/prototype_t1/build/../printf.c:814
  2024b8:	1400000a 	b	2024e0 <_vsnprintf+0x1090>
/Users/jd/trustworthy-systems/arinc/ARINC/t1_prototype/microkit_tutorial/prototype_t1/build/../printf.c:815
  2024bc:	f94047e0 	ldr	x0, [sp, #136]
  2024c0:	91000401 	add	x1, x0, #0x1
  2024c4:	f90047e1 	str	x1, [sp, #136]
  2024c8:	f94027e4 	ldr	x4, [sp, #72]
  2024cc:	f9401fe3 	ldr	x3, [sp, #56]
  2024d0:	aa0003e2 	mov	x2, x0
  2024d4:	f94023e1 	ldr	x1, [sp, #64]
  2024d8:	52800400 	mov	w0, #0x20                  	// #32
  2024dc:	d63f0080 	blr	x4
/Users/jd/trustworthy-systems/arinc/ARINC/t1_prototype/microkit_tutorial/prototype_t1/build/../printf.c:814
  2024e0:	b94077e0 	ldr	w0, [sp, #116]
  2024e4:	11000401 	add	w1, w0, #0x1
  2024e8:	b90077e1 	str	w1, [sp, #116]
  2024ec:	b9409be1 	ldr	w1, [sp, #152]
  2024f0:	6b00003f 	cmp	w1, w0
  2024f4:	54fffe48 	b.hi	2024bc <_vsnprintf+0x106c>  // b.pmore
/Users/jd/trustworthy-systems/arinc/ARINC/t1_prototype/microkit_tutorial/prototype_t1/build/../printf.c:818
  2024f8:	f9401be0 	ldr	x0, [sp, #48]
  2024fc:	91000400 	add	x0, x0, #0x1
  202500:	f9001be0 	str	x0, [sp, #48]
/Users/jd/trustworthy-systems/arinc/ARINC/t1_prototype/microkit_tutorial/prototype_t1/build/../printf.c:819
  202504:	14000076 	b	2026dc <_vsnprintf+0x128c>
/Users/jd/trustworthy-systems/arinc/ARINC/t1_prototype/microkit_tutorial/prototype_t1/build/../printf.c:823
  202508:	52800200 	mov	w0, #0x10                  	// #16
  20250c:	b9009be0 	str	w0, [sp, #152]
/Users/jd/trustworthy-systems/arinc/ARINC/t1_prototype/microkit_tutorial/prototype_t1/build/../printf.c:824
  202510:	b9409fe1 	ldr	w1, [sp, #156]
  202514:	52800420 	mov	w0, #0x21                  	// #33
  202518:	2a000020 	orr	w0, w1, w0
  20251c:	b9009fe0 	str	w0, [sp, #156]
/Users/jd/trustworthy-systems/arinc/ARINC/t1_prototype/microkit_tutorial/prototype_t1/build/../printf.c:826
  202520:	52800020 	mov	w0, #0x1                   	// #1
  202524:	3901afe0 	strb	w0, [sp, #107]
/Users/jd/trustworthy-systems/arinc/ARINC/t1_prototype/microkit_tutorial/prototype_t1/build/../printf.c:827
  202528:	3941afe0 	ldrb	w0, [sp, #107]
  20252c:	12000000 	and	w0, w0, #0x1
  202530:	7100001f 	cmp	w0, #0x0
  202534:	540004c0 	b.eq	2025cc <_vsnprintf+0x117c>  // b.none
/Users/jd/trustworthy-systems/arinc/ARINC/t1_prototype/microkit_tutorial/prototype_t1/build/../printf.c:828
  202538:	b9401a61 	ldr	w1, [x19, #24]
  20253c:	f9400260 	ldr	x0, [x19]
  202540:	7100003f 	cmp	w1, #0x0
  202544:	540000ab 	b.lt	202558 <_vsnprintf+0x1108>  // b.tstop
  202548:	91003c01 	add	x1, x0, #0xf
  20254c:	927df021 	and	x1, x1, #0xfffffffffffffff8
  202550:	f9000261 	str	x1, [x19]
  202554:	1400000d 	b	202588 <_vsnprintf+0x1138>
  202558:	11002022 	add	w2, w1, #0x8
  20255c:	b9001a62 	str	w2, [x19, #24]
  202560:	b9401a62 	ldr	w2, [x19, #24]
  202564:	7100005f 	cmp	w2, #0x0
  202568:	540000ad 	b.le	20257c <_vsnprintf+0x112c>
  20256c:	91003c01 	add	x1, x0, #0xf
  202570:	927df021 	and	x1, x1, #0xfffffffffffffff8
  202574:	f9000261 	str	x1, [x19]
  202578:	14000004 	b	202588 <_vsnprintf+0x1138>
  20257c:	f9400662 	ldr	x2, [x19, #8]
  202580:	93407c20 	sxtw	x0, w1
  202584:	8b000040 	add	x0, x2, x0
  202588:	f9400000 	ldr	x0, [x0]
/Users/jd/trustworthy-systems/arinc/ARINC/t1_prototype/microkit_tutorial/prototype_t1/build/../printf.c:828 (discriminator 1)
  20258c:	aa0003e1 	mov	x1, x0
  202590:	b9409fe0 	ldr	w0, [sp, #156]
  202594:	b9000be0 	str	w0, [sp, #8]
  202598:	b9409be0 	ldr	w0, [sp, #152]
  20259c:	b90003e0 	str	w0, [sp]
  2025a0:	b94097e7 	ldr	w7, [sp, #148]
  2025a4:	d2800206 	mov	x6, #0x10                  	// #16
  2025a8:	52800005 	mov	w5, #0x0                   	// #0
  2025ac:	aa0103e4 	mov	x4, x1
  2025b0:	f9401fe3 	ldr	x3, [sp, #56]
  2025b4:	f94047e2 	ldr	x2, [sp, #136]
  2025b8:	f94023e1 	ldr	x1, [sp, #64]
  2025bc:	f94027e0 	ldr	x0, [sp, #72]
  2025c0:	97fff883 	bl	2007cc <_ntoa_long_long>
  2025c4:	f90047e0 	str	x0, [sp, #136]
  2025c8:	14000025 	b	20265c <_vsnprintf+0x120c>
/Users/jd/trustworthy-systems/arinc/ARINC/t1_prototype/microkit_tutorial/prototype_t1/build/../printf.c:832
  2025cc:	b9401a61 	ldr	w1, [x19, #24]
  2025d0:	f9400260 	ldr	x0, [x19]
  2025d4:	7100003f 	cmp	w1, #0x0
  2025d8:	540000ab 	b.lt	2025ec <_vsnprintf+0x119c>  // b.tstop
  2025dc:	91003c01 	add	x1, x0, #0xf
  2025e0:	927df021 	and	x1, x1, #0xfffffffffffffff8
  2025e4:	f9000261 	str	x1, [x19]
  2025e8:	1400000d 	b	20261c <_vsnprintf+0x11cc>
  2025ec:	11002022 	add	w2, w1, #0x8
  2025f0:	b9001a62 	str	w2, [x19, #24]
  2025f4:	b9401a62 	ldr	w2, [x19, #24]
  2025f8:	7100005f 	cmp	w2, #0x0
  2025fc:	540000ad 	b.le	202610 <_vsnprintf+0x11c0>
  202600:	91003c01 	add	x1, x0, #0xf
  202604:	927df021 	and	x1, x1, #0xfffffffffffffff8
  202608:	f9000261 	str	x1, [x19]
  20260c:	14000004 	b	20261c <_vsnprintf+0x11cc>
  202610:	f9400662 	ldr	x2, [x19, #8]
  202614:	93407c20 	sxtw	x0, w1
  202618:	8b000040 	add	x0, x2, x0
  20261c:	f9400000 	ldr	x0, [x0]
/Users/jd/trustworthy-systems/arinc/ARINC/t1_prototype/microkit_tutorial/prototype_t1/build/../printf.c:832 (discriminator 1)
  202620:	aa0003e1 	mov	x1, x0
  202624:	b9409fe0 	ldr	w0, [sp, #156]
  202628:	b9000be0 	str	w0, [sp, #8]
  20262c:	b9409be0 	ldr	w0, [sp, #152]
  202630:	b90003e0 	str	w0, [sp]
  202634:	b94097e7 	ldr	w7, [sp, #148]
  202638:	d2800206 	mov	x6, #0x10                  	// #16
  20263c:	52800005 	mov	w5, #0x0                   	// #0
  202640:	aa0103e4 	mov	x4, x1
  202644:	f9401fe3 	ldr	x3, [sp, #56]
  202648:	f94047e2 	ldr	x2, [sp, #136]
  20264c:	f94023e1 	ldr	x1, [sp, #64]
  202650:	f94027e0 	ldr	x0, [sp, #72]
  202654:	97fff807 	bl	200670 <_ntoa_long>
  202658:	f90047e0 	str	x0, [sp, #136]
/Users/jd/trustworthy-systems/arinc/ARINC/t1_prototype/microkit_tutorial/prototype_t1/build/../printf.c:836
  20265c:	f9401be0 	ldr	x0, [sp, #48]
  202660:	91000400 	add	x0, x0, #0x1
  202664:	f9001be0 	str	x0, [sp, #48]
/Users/jd/trustworthy-systems/arinc/ARINC/t1_prototype/microkit_tutorial/prototype_t1/build/../printf.c:837
  202668:	1400001d 	b	2026dc <_vsnprintf+0x128c>
/Users/jd/trustworthy-systems/arinc/ARINC/t1_prototype/microkit_tutorial/prototype_t1/build/../printf.c:841
  20266c:	f94047e0 	ldr	x0, [sp, #136]
  202670:	91000401 	add	x1, x0, #0x1
  202674:	f90047e1 	str	x1, [sp, #136]
  202678:	f94027e4 	ldr	x4, [sp, #72]
  20267c:	f9401fe3 	ldr	x3, [sp, #56]
  202680:	aa0003e2 	mov	x2, x0
  202684:	f94023e1 	ldr	x1, [sp, #64]
  202688:	528004a0 	mov	w0, #0x25                  	// #37
  20268c:	d63f0080 	blr	x4
/Users/jd/trustworthy-systems/arinc/ARINC/t1_prototype/microkit_tutorial/prototype_t1/build/../printf.c:842
  202690:	f9401be0 	ldr	x0, [sp, #48]
  202694:	91000400 	add	x0, x0, #0x1
  202698:	f9001be0 	str	x0, [sp, #48]
/Users/jd/trustworthy-systems/arinc/ARINC/t1_prototype/microkit_tutorial/prototype_t1/build/../printf.c:843
  20269c:	14000010 	b	2026dc <_vsnprintf+0x128c>
/Users/jd/trustworthy-systems/arinc/ARINC/t1_prototype/microkit_tutorial/prototype_t1/build/../printf.c:846
  2026a0:	f9401be0 	ldr	x0, [sp, #48]
  2026a4:	39400005 	ldrb	w5, [x0]
  2026a8:	f94047e0 	ldr	x0, [sp, #136]
  2026ac:	91000401 	add	x1, x0, #0x1
  2026b0:	f90047e1 	str	x1, [sp, #136]
  2026b4:	f94027e4 	ldr	x4, [sp, #72]
  2026b8:	f9401fe3 	ldr	x3, [sp, #56]
  2026bc:	aa0003e2 	mov	x2, x0
  2026c0:	f94023e1 	ldr	x1, [sp, #64]
  2026c4:	2a0503e0 	mov	w0, w5
  2026c8:	d63f0080 	blr	x4
/Users/jd/trustworthy-systems/arinc/ARINC/t1_prototype/microkit_tutorial/prototype_t1/build/../printf.c:847
  2026cc:	f9401be0 	ldr	x0, [sp, #48]
  2026d0:	91000400 	add	x0, x0, #0x1
  2026d4:	f9001be0 	str	x0, [sp, #48]
/Users/jd/trustworthy-systems/arinc/ARINC/t1_prototype/microkit_tutorial/prototype_t1/build/../printf.c:848
  2026d8:	d503201f 	nop
/Users/jd/trustworthy-systems/arinc/ARINC/t1_prototype/microkit_tutorial/prototype_t1/build/../printf.c:587
  2026dc:	f9401be0 	ldr	x0, [sp, #48]
  2026e0:	39400000 	ldrb	w0, [x0]
  2026e4:	7100001f 	cmp	w0, #0x0
  2026e8:	54ff6d61 	b.ne	201494 <_vsnprintf+0x44>  // b.any
/Users/jd/trustworthy-systems/arinc/ARINC/t1_prototype/microkit_tutorial/prototype_t1/build/../printf.c:853
  2026ec:	f94047e1 	ldr	x1, [sp, #136]
  2026f0:	f9401fe0 	ldr	x0, [sp, #56]
  2026f4:	eb00003f 	cmp	x1, x0
  2026f8:	54000083 	b.cc	202708 <_vsnprintf+0x12b8>  // b.lo, b.ul, b.last
/Users/jd/trustworthy-systems/arinc/ARINC/t1_prototype/microkit_tutorial/prototype_t1/build/../printf.c:853 (discriminator 1)
  2026fc:	f9401fe0 	ldr	x0, [sp, #56]
  202700:	d1000400 	sub	x0, x0, #0x1
  202704:	14000002 	b	20270c <_vsnprintf+0x12bc>
/Users/jd/trustworthy-systems/arinc/ARINC/t1_prototype/microkit_tutorial/prototype_t1/build/../printf.c:853 (discriminator 2)
  202708:	f94047e0 	ldr	x0, [sp, #136]
/Users/jd/trustworthy-systems/arinc/ARINC/t1_prototype/microkit_tutorial/prototype_t1/build/../printf.c:853 (discriminator 4)
  20270c:	f94027e4 	ldr	x4, [sp, #72]
  202710:	f9401fe3 	ldr	x3, [sp, #56]
  202714:	aa0003e2 	mov	x2, x0
  202718:	f94023e1 	ldr	x1, [sp, #64]
  20271c:	52800000 	mov	w0, #0x0                   	// #0
  202720:	d63f0080 	blr	x4
/Users/jd/trustworthy-systems/arinc/ARINC/t1_prototype/microkit_tutorial/prototype_t1/build/../printf.c:856
  202724:	f94047e0 	ldr	x0, [sp, #136]
/Users/jd/trustworthy-systems/arinc/ARINC/t1_prototype/microkit_tutorial/prototype_t1/build/../printf.c:857
  202728:	f94013f3 	ldr	x19, [sp, #32]
  20272c:	a9417bfd 	ldp	x29, x30, [sp, #16]
  202730:	910283ff 	add	sp, sp, #0xa0
  202734:	d65f03c0 	ret

0000000000202738 <printf_>:
printf_():
/Users/jd/trustworthy-systems/arinc/ARINC/t1_prototype/microkit_tutorial/prototype_t1/build/../printf.c:863
  202738:	a9ad7bfd 	stp	x29, x30, [sp, #-304]!
  20273c:	910003fd 	mov	x29, sp
  202740:	f9001fe0 	str	x0, [sp, #56]
  202744:	f9007fe1 	str	x1, [sp, #248]
  202748:	f90083e2 	str	x2, [sp, #256]
  20274c:	f90087e3 	str	x3, [sp, #264]
  202750:	f9008be4 	str	x4, [sp, #272]
  202754:	f9008fe5 	str	x5, [sp, #280]
  202758:	f90093e6 	str	x6, [sp, #288]
  20275c:	f90097e7 	str	x7, [sp, #296]
  202760:	3d801fe0 	str	q0, [sp, #112]
  202764:	3d8023e1 	str	q1, [sp, #128]
  202768:	3d8027e2 	str	q2, [sp, #144]
  20276c:	3d802be3 	str	q3, [sp, #160]
  202770:	3d802fe4 	str	q4, [sp, #176]
  202774:	3d8033e5 	str	q5, [sp, #192]
  202778:	3d8037e6 	str	q6, [sp, #208]
  20277c:	3d803be7 	str	q7, [sp, #224]
/Users/jd/trustworthy-systems/arinc/ARINC/t1_prototype/microkit_tutorial/prototype_t1/build/../printf.c:865
  202780:	9104c3e0 	add	x0, sp, #0x130
  202784:	f90027e0 	str	x0, [sp, #72]
  202788:	9104c3e0 	add	x0, sp, #0x130
  20278c:	f9002be0 	str	x0, [sp, #80]
  202790:	9103c3e0 	add	x0, sp, #0xf0
  202794:	f9002fe0 	str	x0, [sp, #88]
  202798:	128006e0 	mov	w0, #0xffffffc8            	// #-56
  20279c:	b90063e0 	str	w0, [sp, #96]
  2027a0:	12800fe0 	mov	w0, #0xffffff80            	// #-128
  2027a4:	b90067e0 	str	w0, [sp, #100]
/Users/jd/trustworthy-systems/arinc/ARINC/t1_prototype/microkit_tutorial/prototype_t1/build/../printf.c:867
  2027a8:	f94027e0 	ldr	x0, [sp, #72]
  2027ac:	f9000be0 	str	x0, [sp, #16]
  2027b0:	f9402be0 	ldr	x0, [sp, #80]
  2027b4:	f9000fe0 	str	x0, [sp, #24]
  2027b8:	f9402fe0 	ldr	x0, [sp, #88]
  2027bc:	f90013e0 	str	x0, [sp, #32]
  2027c0:	f94033e0 	ldr	x0, [sp, #96]
  2027c4:	f90017e0 	str	x0, [sp, #40]
  2027c8:	910043e1 	add	x1, sp, #0x10
  2027cc:	910103e0 	add	x0, sp, #0x40
  2027d0:	aa0103e4 	mov	x4, x1
  2027d4:	f9401fe3 	ldr	x3, [sp, #56]
  2027d8:	92800002 	mov	x2, #0xffffffffffffffff    	// #-1
  2027dc:	aa0003e1 	mov	x1, x0
  2027e0:	d0ffffe0 	adrp	x0, 200000 <_start>
  2027e4:	9101a000 	add	x0, x0, #0x68
  2027e8:	97fffb1a 	bl	201450 <_vsnprintf>
  2027ec:	b9006fe0 	str	w0, [sp, #108]
/Users/jd/trustworthy-systems/arinc/ARINC/t1_prototype/microkit_tutorial/prototype_t1/build/../printf.c:869
  2027f0:	b9406fe0 	ldr	w0, [sp, #108]
/Users/jd/trustworthy-systems/arinc/ARINC/t1_prototype/microkit_tutorial/prototype_t1/build/../printf.c:870
  2027f4:	a8d37bfd 	ldp	x29, x30, [sp], #304
  2027f8:	d65f03c0 	ret

00000000002027fc <sprintf_>:
sprintf_():
/Users/jd/trustworthy-systems/arinc/ARINC/t1_prototype/microkit_tutorial/prototype_t1/build/../printf.c:874
  2027fc:	a9ae7bfd 	stp	x29, x30, [sp, #-288]!
  202800:	910003fd 	mov	x29, sp
  202804:	f9001fe0 	str	x0, [sp, #56]
  202808:	f9001be1 	str	x1, [sp, #48]
  20280c:	f9007be2 	str	x2, [sp, #240]
  202810:	f9007fe3 	str	x3, [sp, #248]
  202814:	f90083e4 	str	x4, [sp, #256]
  202818:	f90087e5 	str	x5, [sp, #264]
  20281c:	f9008be6 	str	x6, [sp, #272]
  202820:	f9008fe7 	str	x7, [sp, #280]
  202824:	3d801fe0 	str	q0, [sp, #112]
  202828:	3d8023e1 	str	q1, [sp, #128]
  20282c:	3d8027e2 	str	q2, [sp, #144]
  202830:	3d802be3 	str	q3, [sp, #160]
  202834:	3d802fe4 	str	q4, [sp, #176]
  202838:	3d8033e5 	str	q5, [sp, #192]
  20283c:	3d8037e6 	str	q6, [sp, #208]
  202840:	3d803be7 	str	q7, [sp, #224]
/Users/jd/trustworthy-systems/arinc/ARINC/t1_prototype/microkit_tutorial/prototype_t1/build/../printf.c:876
  202844:	910483e0 	add	x0, sp, #0x120
  202848:	f90027e0 	str	x0, [sp, #72]
  20284c:	910483e0 	add	x0, sp, #0x120
  202850:	f9002be0 	str	x0, [sp, #80]
  202854:	9103c3e0 	add	x0, sp, #0xf0
  202858:	f9002fe0 	str	x0, [sp, #88]
  20285c:	128005e0 	mov	w0, #0xffffffd0            	// #-48
  202860:	b90063e0 	str	w0, [sp, #96]
  202864:	12800fe0 	mov	w0, #0xffffff80            	// #-128
  202868:	b90067e0 	str	w0, [sp, #100]
/Users/jd/trustworthy-systems/arinc/ARINC/t1_prototype/microkit_tutorial/prototype_t1/build/../printf.c:877
  20286c:	f94027e0 	ldr	x0, [sp, #72]
  202870:	f9000be0 	str	x0, [sp, #16]
  202874:	f9402be0 	ldr	x0, [sp, #80]
  202878:	f9000fe0 	str	x0, [sp, #24]
  20287c:	f9402fe0 	ldr	x0, [sp, #88]
  202880:	f90013e0 	str	x0, [sp, #32]
  202884:	f94033e0 	ldr	x0, [sp, #96]
  202888:	f90017e0 	str	x0, [sp, #40]
  20288c:	910043e0 	add	x0, sp, #0x10
  202890:	aa0003e4 	mov	x4, x0
  202894:	f9401be3 	ldr	x3, [sp, #48]
  202898:	92800002 	mov	x2, #0xffffffffffffffff    	// #-1
  20289c:	f9401fe1 	ldr	x1, [sp, #56]
  2028a0:	d0ffffe0 	adrp	x0, 200000 <_start>
  2028a4:	91001000 	add	x0, x0, #0x4
  2028a8:	97fffaea 	bl	201450 <_vsnprintf>
  2028ac:	b9006fe0 	str	w0, [sp, #108]
/Users/jd/trustworthy-systems/arinc/ARINC/t1_prototype/microkit_tutorial/prototype_t1/build/../printf.c:879
  2028b0:	b9406fe0 	ldr	w0, [sp, #108]
/Users/jd/trustworthy-systems/arinc/ARINC/t1_prototype/microkit_tutorial/prototype_t1/build/../printf.c:880
  2028b4:	a8d27bfd 	ldp	x29, x30, [sp], #288
  2028b8:	d65f03c0 	ret

00000000002028bc <snprintf_>:
snprintf_():
/Users/jd/trustworthy-systems/arinc/ARINC/t1_prototype/microkit_tutorial/prototype_t1/build/../printf.c:884
  2028bc:	a9ad7bfd 	stp	x29, x30, [sp, #-304]!
  2028c0:	910003fd 	mov	x29, sp
  2028c4:	f90027e0 	str	x0, [sp, #72]
  2028c8:	f90023e1 	str	x1, [sp, #64]
  2028cc:	f9001fe2 	str	x2, [sp, #56]
  2028d0:	f90087e3 	str	x3, [sp, #264]
  2028d4:	f9008be4 	str	x4, [sp, #272]
  2028d8:	f9008fe5 	str	x5, [sp, #280]
  2028dc:	f90093e6 	str	x6, [sp, #288]
  2028e0:	f90097e7 	str	x7, [sp, #296]
  2028e4:	3d8023e0 	str	q0, [sp, #128]
  2028e8:	3d8027e1 	str	q1, [sp, #144]
  2028ec:	3d802be2 	str	q2, [sp, #160]
  2028f0:	3d802fe3 	str	q3, [sp, #176]
  2028f4:	3d8033e4 	str	q4, [sp, #192]
  2028f8:	3d8037e5 	str	q5, [sp, #208]
  2028fc:	3d803be6 	str	q6, [sp, #224]
  202900:	3d803fe7 	str	q7, [sp, #240]
/Users/jd/trustworthy-systems/arinc/ARINC/t1_prototype/microkit_tutorial/prototype_t1/build/../printf.c:886
  202904:	9104c3e0 	add	x0, sp, #0x130
  202908:	f9002fe0 	str	x0, [sp, #88]
  20290c:	9104c3e0 	add	x0, sp, #0x130
  202910:	f90033e0 	str	x0, [sp, #96]
  202914:	910403e0 	add	x0, sp, #0x100
  202918:	f90037e0 	str	x0, [sp, #104]
  20291c:	128004e0 	mov	w0, #0xffffffd8            	// #-40
  202920:	b90073e0 	str	w0, [sp, #112]
  202924:	12800fe0 	mov	w0, #0xffffff80            	// #-128
  202928:	b90077e0 	str	w0, [sp, #116]
/Users/jd/trustworthy-systems/arinc/ARINC/t1_prototype/microkit_tutorial/prototype_t1/build/../printf.c:887
  20292c:	f9402fe0 	ldr	x0, [sp, #88]
  202930:	f9000be0 	str	x0, [sp, #16]
  202934:	f94033e0 	ldr	x0, [sp, #96]
  202938:	f9000fe0 	str	x0, [sp, #24]
  20293c:	f94037e0 	ldr	x0, [sp, #104]
  202940:	f90013e0 	str	x0, [sp, #32]
  202944:	f9403be0 	ldr	x0, [sp, #112]
  202948:	f90017e0 	str	x0, [sp, #40]
  20294c:	910043e0 	add	x0, sp, #0x10
  202950:	aa0003e4 	mov	x4, x0
  202954:	f9401fe3 	ldr	x3, [sp, #56]
  202958:	f94023e2 	ldr	x2, [sp, #64]
  20295c:	f94027e1 	ldr	x1, [sp, #72]
  202960:	d0ffffe0 	adrp	x0, 200000 <_start>
  202964:	91001000 	add	x0, x0, #0x4
  202968:	97fffaba 	bl	201450 <_vsnprintf>
  20296c:	b9007fe0 	str	w0, [sp, #124]
/Users/jd/trustworthy-systems/arinc/ARINC/t1_prototype/microkit_tutorial/prototype_t1/build/../printf.c:889
  202970:	b9407fe0 	ldr	w0, [sp, #124]
/Users/jd/trustworthy-systems/arinc/ARINC/t1_prototype/microkit_tutorial/prototype_t1/build/../printf.c:890
  202974:	a8d37bfd 	ldp	x29, x30, [sp], #304
  202978:	d65f03c0 	ret

000000000020297c <vprintf_>:
vprintf_():
/Users/jd/trustworthy-systems/arinc/ARINC/t1_prototype/microkit_tutorial/prototype_t1/build/../printf.c:894
  20297c:	a9ba7bfd 	stp	x29, x30, [sp, #-96]!
  202980:	910003fd 	mov	x29, sp
  202984:	f9000bf3 	str	x19, [sp, #16]
  202988:	f90027e0 	str	x0, [sp, #72]
  20298c:	aa0103f3 	mov	x19, x1
/Users/jd/trustworthy-systems/arinc/ARINC/t1_prototype/microkit_tutorial/prototype_t1/build/../printf.c:896
  202990:	f9400260 	ldr	x0, [x19]
  202994:	f90013e0 	str	x0, [sp, #32]
  202998:	f9400660 	ldr	x0, [x19, #8]
  20299c:	f90017e0 	str	x0, [sp, #40]
  2029a0:	f9400a60 	ldr	x0, [x19, #16]
  2029a4:	f9001be0 	str	x0, [sp, #48]
  2029a8:	f9400e60 	ldr	x0, [x19, #24]
  2029ac:	f9001fe0 	str	x0, [sp, #56]
  2029b0:	910083e1 	add	x1, sp, #0x20
  2029b4:	910163e0 	add	x0, sp, #0x58
  2029b8:	aa0103e4 	mov	x4, x1
  2029bc:	f94027e3 	ldr	x3, [sp, #72]
  2029c0:	92800002 	mov	x2, #0xffffffffffffffff    	// #-1
  2029c4:	aa0003e1 	mov	x1, x0
  2029c8:	d0ffffe0 	adrp	x0, 200000 <_start>
  2029cc:	9101a000 	add	x0, x0, #0x68
  2029d0:	97fffaa0 	bl	201450 <_vsnprintf>
/Users/jd/trustworthy-systems/arinc/ARINC/t1_prototype/microkit_tutorial/prototype_t1/build/../printf.c:897
  2029d4:	f9400bf3 	ldr	x19, [sp, #16]
  2029d8:	a8c67bfd 	ldp	x29, x30, [sp], #96
  2029dc:	d65f03c0 	ret

00000000002029e0 <vsnprintf_>:
vsnprintf_():
/Users/jd/trustworthy-systems/arinc/ARINC/t1_prototype/microkit_tutorial/prototype_t1/build/../printf.c:901
  2029e0:	a9ba7bfd 	stp	x29, x30, [sp, #-96]!
  2029e4:	910003fd 	mov	x29, sp
  2029e8:	f9000bf3 	str	x19, [sp, #16]
  2029ec:	f9002fe0 	str	x0, [sp, #88]
  2029f0:	f9002be1 	str	x1, [sp, #80]
  2029f4:	f90027e2 	str	x2, [sp, #72]
  2029f8:	aa0303f3 	mov	x19, x3
/Users/jd/trustworthy-systems/arinc/ARINC/t1_prototype/microkit_tutorial/prototype_t1/build/../printf.c:902
  2029fc:	f9400260 	ldr	x0, [x19]
  202a00:	f90013e0 	str	x0, [sp, #32]
  202a04:	f9400660 	ldr	x0, [x19, #8]
  202a08:	f90017e0 	str	x0, [sp, #40]
  202a0c:	f9400a60 	ldr	x0, [x19, #16]
  202a10:	f9001be0 	str	x0, [sp, #48]
  202a14:	f9400e60 	ldr	x0, [x19, #24]
  202a18:	f9001fe0 	str	x0, [sp, #56]
  202a1c:	910083e0 	add	x0, sp, #0x20
  202a20:	aa0003e4 	mov	x4, x0
  202a24:	f94027e3 	ldr	x3, [sp, #72]
  202a28:	f9402be2 	ldr	x2, [sp, #80]
  202a2c:	f9402fe1 	ldr	x1, [sp, #88]
  202a30:	d0ffffe0 	adrp	x0, 200000 <_start>
  202a34:	91001000 	add	x0, x0, #0x4
  202a38:	97fffa86 	bl	201450 <_vsnprintf>
/Users/jd/trustworthy-systems/arinc/ARINC/t1_prototype/microkit_tutorial/prototype_t1/build/../printf.c:903
  202a3c:	f9400bf3 	ldr	x19, [sp, #16]
  202a40:	a8c67bfd 	ldp	x29, x30, [sp], #96
  202a44:	d65f03c0 	ret

0000000000202a48 <fctprintf>:
fctprintf():
/Users/jd/trustworthy-systems/arinc/ARINC/t1_prototype/microkit_tutorial/prototype_t1/build/../printf.c:907
  202a48:	a9ac7bfd 	stp	x29, x30, [sp, #-320]!
  202a4c:	910003fd 	mov	x29, sp
  202a50:	f90027e0 	str	x0, [sp, #72]
  202a54:	f90023e1 	str	x1, [sp, #64]
  202a58:	f9001fe2 	str	x2, [sp, #56]
  202a5c:	f9008fe3 	str	x3, [sp, #280]
  202a60:	f90093e4 	str	x4, [sp, #288]
  202a64:	f90097e5 	str	x5, [sp, #296]
  202a68:	f9009be6 	str	x6, [sp, #304]
  202a6c:	f9009fe7 	str	x7, [sp, #312]
  202a70:	3d8027e0 	str	q0, [sp, #144]
  202a74:	3d802be1 	str	q1, [sp, #160]
  202a78:	3d802fe2 	str	q2, [sp, #176]
  202a7c:	3d8033e3 	str	q3, [sp, #192]
  202a80:	3d8037e4 	str	q4, [sp, #208]
  202a84:	3d803be5 	str	q5, [sp, #224]
  202a88:	3d803fe6 	str	q6, [sp, #240]
  202a8c:	3d8043e7 	str	q7, [sp, #256]
/Users/jd/trustworthy-systems/arinc/ARINC/t1_prototype/microkit_tutorial/prototype_t1/build/../printf.c:909
  202a90:	910503e0 	add	x0, sp, #0x140
  202a94:	f90037e0 	str	x0, [sp, #104]
  202a98:	910503e0 	add	x0, sp, #0x140
  202a9c:	f9003be0 	str	x0, [sp, #112]
  202aa0:	910443e0 	add	x0, sp, #0x110
  202aa4:	f9003fe0 	str	x0, [sp, #120]
  202aa8:	128004e0 	mov	w0, #0xffffffd8            	// #-40
  202aac:	b90083e0 	str	w0, [sp, #128]
  202ab0:	12800fe0 	mov	w0, #0xffffff80            	// #-128
  202ab4:	b90087e0 	str	w0, [sp, #132]
/Users/jd/trustworthy-systems/arinc/ARINC/t1_prototype/microkit_tutorial/prototype_t1/build/../printf.c:910
  202ab8:	f94027e0 	ldr	x0, [sp, #72]
  202abc:	f9002fe0 	str	x0, [sp, #88]
  202ac0:	f94023e0 	ldr	x0, [sp, #64]
  202ac4:	f90033e0 	str	x0, [sp, #96]
/Users/jd/trustworthy-systems/arinc/ARINC/t1_prototype/microkit_tutorial/prototype_t1/build/../printf.c:911
  202ac8:	f94037e0 	ldr	x0, [sp, #104]
  202acc:	f9000be0 	str	x0, [sp, #16]
  202ad0:	f9403be0 	ldr	x0, [sp, #112]
  202ad4:	f9000fe0 	str	x0, [sp, #24]
  202ad8:	f9403fe0 	ldr	x0, [sp, #120]
  202adc:	f90013e0 	str	x0, [sp, #32]
  202ae0:	f94043e0 	ldr	x0, [sp, #128]
  202ae4:	f90017e0 	str	x0, [sp, #40]
  202ae8:	910043e1 	add	x1, sp, #0x10
  202aec:	910163e0 	add	x0, sp, #0x58
  202af0:	aa0103e4 	mov	x4, x1
  202af4:	f9401fe3 	ldr	x3, [sp, #56]
  202af8:	92800002 	mov	x2, #0xffffffffffffffff    	// #-1
  202afc:	aa0003e1 	mov	x1, x0
  202b00:	d0ffffe0 	adrp	x0, 200000 <_start>
  202b04:	91028000 	add	x0, x0, #0xa0
  202b08:	97fffa52 	bl	201450 <_vsnprintf>
  202b0c:	b9008fe0 	str	w0, [sp, #140]
/Users/jd/trustworthy-systems/arinc/ARINC/t1_prototype/microkit_tutorial/prototype_t1/build/../printf.c:913
  202b10:	b9408fe0 	ldr	w0, [sp, #140]
/Users/jd/trustworthy-systems/arinc/ARINC/t1_prototype/microkit_tutorial/prototype_t1/build/../printf.c:914
  202b14:	a8d47bfd 	ldp	x29, x30, [sp], #320
  202b18:	d65f03c0 	ret

0000000000202b1c <seL4_MessageInfo_new>:
seL4_MessageInfo_new():
/Users/jd/trustworthy-systems/microkit-sdk-1.4.1/board/qemu_virt_aarch64/debug/include/sel4/shared_types_gen.h:318
  202b1c:	a9bc7bfd 	stp	x29, x30, [sp, #-64]!
  202b20:	910003fd 	mov	x29, sp
  202b24:	f90017e0 	str	x0, [sp, #40]
  202b28:	f90013e1 	str	x1, [sp, #32]
  202b2c:	f9000fe2 	str	x2, [sp, #24]
  202b30:	f9000be3 	str	x3, [sp, #16]
/Users/jd/trustworthy-systems/microkit-sdk-1.4.1/board/qemu_virt_aarch64/debug/include/sel4/shared_types_gen.h:322
  202b34:	f94017e1 	ldr	x1, [sp, #40]
  202b38:	92fffe00 	mov	x0, #0xfffffffffffff       	// #4503599627370495
  202b3c:	eb00003f 	cmp	x1, x0
  202b40:	54000129 	b.ls	202b64 <seL4_MessageInfo_new+0x48>  // b.plast
/Users/jd/trustworthy-systems/microkit-sdk-1.4.1/board/qemu_virt_aarch64/debug/include/sel4/shared_types_gen.h:322 (discriminator 1)
  202b44:	d0000000 	adrp	x0, 204000 <main+0xc0>
  202b48:	91222003 	add	x3, x0, #0x888
  202b4c:	52802842 	mov	w2, #0x142                 	// #322
  202b50:	d0000000 	adrp	x0, 204000 <main+0xc0>
  202b54:	91104001 	add	x1, x0, #0x410
  202b58:	d0000000 	adrp	x0, 204000 <main+0xc0>
  202b5c:	91120000 	add	x0, x0, #0x480
  202b60:	9400056c 	bl	204110 <__assert_fail>
/Users/jd/trustworthy-systems/microkit-sdk-1.4.1/board/qemu_virt_aarch64/debug/include/sel4/shared_types_gen.h:323
  202b64:	f94013e0 	ldr	x0, [sp, #32]
  202b68:	f1001c1f 	cmp	x0, #0x7
  202b6c:	54000129 	b.ls	202b90 <seL4_MessageInfo_new+0x74>  // b.plast
/Users/jd/trustworthy-systems/microkit-sdk-1.4.1/board/qemu_virt_aarch64/debug/include/sel4/shared_types_gen.h:323 (discriminator 1)
  202b70:	d0000000 	adrp	x0, 204000 <main+0xc0>
  202b74:	91222003 	add	x3, x0, #0x888
  202b78:	52802862 	mov	w2, #0x143                 	// #323
  202b7c:	d0000000 	adrp	x0, 204000 <main+0xc0>
  202b80:	91104001 	add	x1, x0, #0x410
  202b84:	d0000000 	adrp	x0, 204000 <main+0xc0>
  202b88:	91134000 	add	x0, x0, #0x4d0
  202b8c:	94000561 	bl	204110 <__assert_fail>
/Users/jd/trustworthy-systems/microkit-sdk-1.4.1/board/qemu_virt_aarch64/debug/include/sel4/shared_types_gen.h:324
  202b90:	f9400fe0 	ldr	x0, [sp, #24]
  202b94:	f1000c1f 	cmp	x0, #0x3
  202b98:	54000129 	b.ls	202bbc <seL4_MessageInfo_new+0xa0>  // b.plast
/Users/jd/trustworthy-systems/microkit-sdk-1.4.1/board/qemu_virt_aarch64/debug/include/sel4/shared_types_gen.h:324 (discriminator 1)
  202b9c:	d0000000 	adrp	x0, 204000 <main+0xc0>
  202ba0:	91222003 	add	x3, x0, #0x888
  202ba4:	52802882 	mov	w2, #0x144                 	// #324
  202ba8:	d0000000 	adrp	x0, 204000 <main+0xc0>
  202bac:	91104001 	add	x1, x0, #0x410
  202bb0:	d0000000 	adrp	x0, 204000 <main+0xc0>
  202bb4:	91148000 	add	x0, x0, #0x520
  202bb8:	94000556 	bl	204110 <__assert_fail>
/Users/jd/trustworthy-systems/microkit-sdk-1.4.1/board/qemu_virt_aarch64/debug/include/sel4/shared_types_gen.h:325
  202bbc:	f9400be0 	ldr	x0, [sp, #16]
  202bc0:	f101fc1f 	cmp	x0, #0x7f
  202bc4:	54000129 	b.ls	202be8 <seL4_MessageInfo_new+0xcc>  // b.plast
/Users/jd/trustworthy-systems/microkit-sdk-1.4.1/board/qemu_virt_aarch64/debug/include/sel4/shared_types_gen.h:325 (discriminator 1)
  202bc8:	d0000000 	adrp	x0, 204000 <main+0xc0>
  202bcc:	91222003 	add	x3, x0, #0x888
  202bd0:	528028a2 	mov	w2, #0x145                 	// #325
  202bd4:	d0000000 	adrp	x0, 204000 <main+0xc0>
  202bd8:	91104001 	add	x1, x0, #0x410
  202bdc:	d0000000 	adrp	x0, 204000 <main+0xc0>
  202be0:	9115a000 	add	x0, x0, #0x568
  202be4:	9400054b 	bl	204110 <__assert_fail>
/Users/jd/trustworthy-systems/microkit-sdk-1.4.1/board/qemu_virt_aarch64/debug/include/sel4/shared_types_gen.h:328
  202be8:	f94017e0 	ldr	x0, [sp, #40]
  202bec:	d374cc01 	lsl	x1, x0, #12
/Users/jd/trustworthy-systems/microkit-sdk-1.4.1/board/qemu_virt_aarch64/debug/include/sel4/shared_types_gen.h:329
  202bf0:	f94013e0 	ldr	x0, [sp, #32]
  202bf4:	d377d800 	lsl	x0, x0, #9
  202bf8:	92770800 	and	x0, x0, #0xe00
  202bfc:	aa000021 	orr	x1, x1, x0
/Users/jd/trustworthy-systems/microkit-sdk-1.4.1/board/qemu_virt_aarch64/debug/include/sel4/shared_types_gen.h:330
  202c00:	f9400fe0 	ldr	x0, [sp, #24]
  202c04:	d379e000 	lsl	x0, x0, #7
  202c08:	92790400 	and	x0, x0, #0x180
  202c0c:	aa000021 	orr	x1, x1, x0
/Users/jd/trustworthy-systems/microkit-sdk-1.4.1/board/qemu_virt_aarch64/debug/include/sel4/shared_types_gen.h:331
  202c10:	f9400be0 	ldr	x0, [sp, #16]
  202c14:	92401800 	and	x0, x0, #0x7f
  202c18:	aa000020 	orr	x0, x1, x0
/Users/jd/trustworthy-systems/microkit-sdk-1.4.1/board/qemu_virt_aarch64/debug/include/sel4/shared_types_gen.h:327
  202c1c:	f9001fe0 	str	x0, [sp, #56]
/Users/jd/trustworthy-systems/microkit-sdk-1.4.1/board/qemu_virt_aarch64/debug/include/sel4/shared_types_gen.h:333
  202c20:	f9401fe0 	ldr	x0, [sp, #56]
/Users/jd/trustworthy-systems/microkit-sdk-1.4.1/board/qemu_virt_aarch64/debug/include/sel4/shared_types_gen.h:334
  202c24:	a8c47bfd 	ldp	x29, x30, [sp], #64
  202c28:	d65f03c0 	ret

0000000000202c2c <seL4_MessageInfo_get_label>:
seL4_MessageInfo_get_label():
/Users/jd/trustworthy-systems/microkit-sdk-1.4.1/board/qemu_virt_aarch64/debug/include/sel4/shared_types_gen.h:352
  202c2c:	d10083ff 	sub	sp, sp, #0x20
  202c30:	f90007e0 	str	x0, [sp, #8]
/Users/jd/trustworthy-systems/microkit-sdk-1.4.1/board/qemu_virt_aarch64/debug/include/sel4/shared_types_gen.h:354
  202c34:	f94007e0 	ldr	x0, [sp, #8]
  202c38:	d34cfc00 	lsr	x0, x0, #12
  202c3c:	f9000fe0 	str	x0, [sp, #24]
/Users/jd/trustworthy-systems/microkit-sdk-1.4.1/board/qemu_virt_aarch64/debug/include/sel4/shared_types_gen.h:359
  202c40:	f9400fe0 	ldr	x0, [sp, #24]
/Users/jd/trustworthy-systems/microkit-sdk-1.4.1/board/qemu_virt_aarch64/debug/include/sel4/shared_types_gen.h:360
  202c44:	910083ff 	add	sp, sp, #0x20
  202c48:	d65f03c0 	ret

0000000000202c4c <seL4_MessageInfo_get_length>:
seL4_MessageInfo_get_length():
/Users/jd/trustworthy-systems/microkit-sdk-1.4.1/board/qemu_virt_aarch64/debug/include/sel4/shared_types_gen.h:469
  202c4c:	d10083ff 	sub	sp, sp, #0x20
  202c50:	f90007e0 	str	x0, [sp, #8]
/Users/jd/trustworthy-systems/microkit-sdk-1.4.1/board/qemu_virt_aarch64/debug/include/sel4/shared_types_gen.h:471
  202c54:	f94007e0 	ldr	x0, [sp, #8]
  202c58:	92401800 	and	x0, x0, #0x7f
  202c5c:	f9000fe0 	str	x0, [sp, #24]
/Users/jd/trustworthy-systems/microkit-sdk-1.4.1/board/qemu_virt_aarch64/debug/include/sel4/shared_types_gen.h:476
  202c60:	f9400fe0 	ldr	x0, [sp, #24]
/Users/jd/trustworthy-systems/microkit-sdk-1.4.1/board/qemu_virt_aarch64/debug/include/sel4/shared_types_gen.h:477
  202c64:	910083ff 	add	sp, sp, #0x20
  202c68:	d65f03c0 	ret

0000000000202c6c <seL4_GetIPCBuffer>:
seL4_GetIPCBuffer():
/Users/jd/trustworthy-systems/microkit-sdk-1.4.1/board/qemu_virt_aarch64/debug/include/sel4/functions.h:43
  202c6c:	90000020 	adrp	x0, 206000 <plist_head>
  202c70:	91002000 	add	x0, x0, #0x8
  202c74:	f9400000 	ldr	x0, [x0]
/Users/jd/trustworthy-systems/microkit-sdk-1.4.1/board/qemu_virt_aarch64/debug/include/sel4/functions.h:44
  202c78:	d65f03c0 	ret

0000000000202c7c <seL4_GetMR>:
seL4_GetMR():
/Users/jd/trustworthy-systems/microkit-sdk-1.4.1/board/qemu_virt_aarch64/debug/include/sel4/functions.h:47
  202c7c:	a9be7bfd 	stp	x29, x30, [sp, #-32]!
  202c80:	910003fd 	mov	x29, sp
  202c84:	b9001fe0 	str	w0, [sp, #28]
/Users/jd/trustworthy-systems/microkit-sdk-1.4.1/board/qemu_virt_aarch64/debug/include/sel4/functions.h:48
  202c88:	97fffff9 	bl	202c6c <seL4_GetIPCBuffer>
  202c8c:	aa0003e1 	mov	x1, x0
/Users/jd/trustworthy-systems/microkit-sdk-1.4.1/board/qemu_virt_aarch64/debug/include/sel4/functions.h:48 (discriminator 1)
  202c90:	b9801fe0 	ldrsw	x0, [sp, #28]
  202c94:	d37df000 	lsl	x0, x0, #3
  202c98:	8b000020 	add	x0, x1, x0
  202c9c:	f9400400 	ldr	x0, [x0, #8]
/Users/jd/trustworthy-systems/microkit-sdk-1.4.1/board/qemu_virt_aarch64/debug/include/sel4/functions.h:49
  202ca0:	a8c27bfd 	ldp	x29, x30, [sp], #32
  202ca4:	d65f03c0 	ret

0000000000202ca8 <seL4_SetMR>:
seL4_SetMR():
/Users/jd/trustworthy-systems/microkit-sdk-1.4.1/board/qemu_virt_aarch64/debug/include/sel4/functions.h:52
  202ca8:	a9be7bfd 	stp	x29, x30, [sp, #-32]!
  202cac:	910003fd 	mov	x29, sp
  202cb0:	b9001fe0 	str	w0, [sp, #28]
  202cb4:	f9000be1 	str	x1, [sp, #16]
/Users/jd/trustworthy-systems/microkit-sdk-1.4.1/board/qemu_virt_aarch64/debug/include/sel4/functions.h:53
  202cb8:	97ffffed 	bl	202c6c <seL4_GetIPCBuffer>
  202cbc:	aa0003e1 	mov	x1, x0
/Users/jd/trustworthy-systems/microkit-sdk-1.4.1/board/qemu_virt_aarch64/debug/include/sel4/functions.h:53 (discriminator 1)
  202cc0:	b9801fe0 	ldrsw	x0, [sp, #28]
  202cc4:	d37df000 	lsl	x0, x0, #3
  202cc8:	8b000020 	add	x0, x1, x0
  202ccc:	f9400be1 	ldr	x1, [sp, #16]
  202cd0:	f9000401 	str	x1, [x0, #8]
/Users/jd/trustworthy-systems/microkit-sdk-1.4.1/board/qemu_virt_aarch64/debug/include/sel4/functions.h:54
  202cd4:	d503201f 	nop
  202cd8:	a8c27bfd 	ldp	x29, x30, [sp], #32
  202cdc:	d65f03c0 	ret

0000000000202ce0 <arm_sys_send>:
arm_sys_send():
/Users/jd/trustworthy-systems/microkit-sdk-1.4.1/board/qemu_virt_aarch64/debug/include/sel4/sel4_arch/syscalls.h:59
  202ce0:	d10103ff 	sub	sp, sp, #0x40
  202ce4:	f9001fe0 	str	x0, [sp, #56]
  202ce8:	f9001be1 	str	x1, [sp, #48]
  202cec:	f90017e2 	str	x2, [sp, #40]
  202cf0:	f90013e3 	str	x3, [sp, #32]
  202cf4:	f9000fe4 	str	x4, [sp, #24]
  202cf8:	f9000be5 	str	x5, [sp, #16]
  202cfc:	f90007e6 	str	x6, [sp, #8]
/Users/jd/trustworthy-systems/microkit-sdk-1.4.1/board/qemu_virt_aarch64/debug/include/sel4/sel4_arch/syscalls.h:60
  202d00:	f9401be0 	ldr	x0, [sp, #48]
/Users/jd/trustworthy-systems/microkit-sdk-1.4.1/board/qemu_virt_aarch64/debug/include/sel4/sel4_arch/syscalls.h:61
  202d04:	f94017e1 	ldr	x1, [sp, #40]
/Users/jd/trustworthy-systems/microkit-sdk-1.4.1/board/qemu_virt_aarch64/debug/include/sel4/sel4_arch/syscalls.h:64
  202d08:	f94013e2 	ldr	x2, [sp, #32]
/Users/jd/trustworthy-systems/microkit-sdk-1.4.1/board/qemu_virt_aarch64/debug/include/sel4/sel4_arch/syscalls.h:65
  202d0c:	f9400fe3 	ldr	x3, [sp, #24]
/Users/jd/trustworthy-systems/microkit-sdk-1.4.1/board/qemu_virt_aarch64/debug/include/sel4/sel4_arch/syscalls.h:66
  202d10:	f9400be4 	ldr	x4, [sp, #16]
/Users/jd/trustworthy-systems/microkit-sdk-1.4.1/board/qemu_virt_aarch64/debug/include/sel4/sel4_arch/syscalls.h:67
  202d14:	f94007e5 	ldr	x5, [sp, #8]
/Users/jd/trustworthy-systems/microkit-sdk-1.4.1/board/qemu_virt_aarch64/debug/include/sel4/sel4_arch/syscalls.h:70
  202d18:	f9401fe7 	ldr	x7, [sp, #56]
/Users/jd/trustworthy-systems/microkit-sdk-1.4.1/board/qemu_virt_aarch64/debug/include/sel4/sel4_arch/syscalls.h:71
  202d1c:	d4000001 	svc	#0x0
/Users/jd/trustworthy-systems/microkit-sdk-1.4.1/board/qemu_virt_aarch64/debug/include/sel4/sel4_arch/syscalls.h:77
  202d20:	d503201f 	nop
  202d24:	910103ff 	add	sp, sp, #0x40
  202d28:	d65f03c0 	ret

0000000000202d2c <arm_sys_send_recv>:
arm_sys_send_recv():
/Users/jd/trustworthy-systems/microkit-sdk-1.4.1/board/qemu_virt_aarch64/debug/include/sel4/sel4_arch/syscalls.h:149
  202d2c:	d10103ff 	sub	sp, sp, #0x40
  202d30:	f9001fe0 	str	x0, [sp, #56]
  202d34:	f9001be1 	str	x1, [sp, #48]
  202d38:	f90017e2 	str	x2, [sp, #40]
  202d3c:	f90013e3 	str	x3, [sp, #32]
  202d40:	f9000fe4 	str	x4, [sp, #24]
  202d44:	f9000be5 	str	x5, [sp, #16]
  202d48:	f90007e6 	str	x6, [sp, #8]
  202d4c:	f90003e7 	str	x7, [sp]
/Users/jd/trustworthy-systems/microkit-sdk-1.4.1/board/qemu_virt_aarch64/debug/include/sel4/sel4_arch/syscalls.h:150
  202d50:	f9401be0 	ldr	x0, [sp, #48]
/Users/jd/trustworthy-systems/microkit-sdk-1.4.1/board/qemu_virt_aarch64/debug/include/sel4/sel4_arch/syscalls.h:151
  202d54:	f94013e1 	ldr	x1, [sp, #32]
/Users/jd/trustworthy-systems/microkit-sdk-1.4.1/board/qemu_virt_aarch64/debug/include/sel4/sel4_arch/syscalls.h:154
  202d58:	f9400be2 	ldr	x2, [sp, #16]
  202d5c:	f9400042 	ldr	x2, [x2]
/Users/jd/trustworthy-systems/microkit-sdk-1.4.1/board/qemu_virt_aarch64/debug/include/sel4/sel4_arch/syscalls.h:155
  202d60:	f94007e3 	ldr	x3, [sp, #8]
  202d64:	f9400063 	ldr	x3, [x3]
/Users/jd/trustworthy-systems/microkit-sdk-1.4.1/board/qemu_virt_aarch64/debug/include/sel4/sel4_arch/syscalls.h:156
  202d68:	f94003e4 	ldr	x4, [sp]
  202d6c:	f9400084 	ldr	x4, [x4]
/Users/jd/trustworthy-systems/microkit-sdk-1.4.1/board/qemu_virt_aarch64/debug/include/sel4/sel4_arch/syscalls.h:157
  202d70:	f94023e5 	ldr	x5, [sp, #64]
  202d74:	f94000a5 	ldr	x5, [x5]
/Users/jd/trustworthy-systems/microkit-sdk-1.4.1/board/qemu_virt_aarch64/debug/include/sel4/sel4_arch/syscalls.h:158
  202d78:	f94027e6 	ldr	x6, [sp, #72]
/Users/jd/trustworthy-systems/microkit-sdk-1.4.1/board/qemu_virt_aarch64/debug/include/sel4/sel4_arch/syscalls.h:161
  202d7c:	f9401fe7 	ldr	x7, [sp, #56]
/Users/jd/trustworthy-systems/microkit-sdk-1.4.1/board/qemu_virt_aarch64/debug/include/sel4/sel4_arch/syscalls.h:162
  202d80:	d4000001 	svc	#0x0
/Users/jd/trustworthy-systems/microkit-sdk-1.4.1/board/qemu_virt_aarch64/debug/include/sel4/sel4_arch/syscalls.h:169
  202d84:	aa0103e6 	mov	x6, x1
  202d88:	f9400fe1 	ldr	x1, [sp, #24]
  202d8c:	f9000026 	str	x6, [x1]
/Users/jd/trustworthy-systems/microkit-sdk-1.4.1/board/qemu_virt_aarch64/debug/include/sel4/sel4_arch/syscalls.h:170
  202d90:	aa0003e1 	mov	x1, x0
  202d94:	f94017e0 	ldr	x0, [sp, #40]
  202d98:	f9000001 	str	x1, [x0]
/Users/jd/trustworthy-systems/microkit-sdk-1.4.1/board/qemu_virt_aarch64/debug/include/sel4/sel4_arch/syscalls.h:171
  202d9c:	aa0203e1 	mov	x1, x2
  202da0:	f9400be0 	ldr	x0, [sp, #16]
  202da4:	f9000001 	str	x1, [x0]
/Users/jd/trustworthy-systems/microkit-sdk-1.4.1/board/qemu_virt_aarch64/debug/include/sel4/sel4_arch/syscalls.h:172
  202da8:	aa0303e1 	mov	x1, x3
  202dac:	f94007e0 	ldr	x0, [sp, #8]
  202db0:	f9000001 	str	x1, [x0]
/Users/jd/trustworthy-systems/microkit-sdk-1.4.1/board/qemu_virt_aarch64/debug/include/sel4/sel4_arch/syscalls.h:173
  202db4:	aa0403e1 	mov	x1, x4
  202db8:	f94003e0 	ldr	x0, [sp]
  202dbc:	f9000001 	str	x1, [x0]
/Users/jd/trustworthy-systems/microkit-sdk-1.4.1/board/qemu_virt_aarch64/debug/include/sel4/sel4_arch/syscalls.h:174
  202dc0:	aa0503e1 	mov	x1, x5
  202dc4:	f94023e0 	ldr	x0, [sp, #64]
  202dc8:	f9000001 	str	x1, [x0]
/Users/jd/trustworthy-systems/microkit-sdk-1.4.1/board/qemu_virt_aarch64/debug/include/sel4/sel4_arch/syscalls.h:175
  202dcc:	d503201f 	nop
  202dd0:	910103ff 	add	sp, sp, #0x40
  202dd4:	d65f03c0 	ret

0000000000202dd8 <seL4_Send>:
seL4_Send():
/Users/jd/trustworthy-systems/microkit-sdk-1.4.1/board/qemu_virt_aarch64/debug/include/sel4/arch/syscalls.h:21
  202dd8:	a9bc7bfd 	stp	x29, x30, [sp, #-64]!
  202ddc:	910003fd 	mov	x29, sp
  202de0:	a90153f3 	stp	x19, x20, [sp, #16]
  202de4:	a9025bf5 	stp	x21, x22, [sp, #32]
  202de8:	f9001fe0 	str	x0, [sp, #56]
  202dec:	f9001be1 	str	x1, [sp, #48]
/Users/jd/trustworthy-systems/microkit-sdk-1.4.1/board/qemu_virt_aarch64/debug/include/sel4/arch/syscalls.h:22
  202df0:	f9401bf3 	ldr	x19, [sp, #48]
  202df4:	52800000 	mov	w0, #0x0                   	// #0
  202df8:	97ffffa1 	bl	202c7c <seL4_GetMR>
  202dfc:	aa0003f4 	mov	x20, x0
/Users/jd/trustworthy-systems/microkit-sdk-1.4.1/board/qemu_virt_aarch64/debug/include/sel4/arch/syscalls.h:22 (discriminator 1)
  202e00:	52800020 	mov	w0, #0x1                   	// #1
  202e04:	97ffff9e 	bl	202c7c <seL4_GetMR>
  202e08:	aa0003f5 	mov	x21, x0
/Users/jd/trustworthy-systems/microkit-sdk-1.4.1/board/qemu_virt_aarch64/debug/include/sel4/arch/syscalls.h:22 (discriminator 2)
  202e0c:	52800040 	mov	w0, #0x2                   	// #2
  202e10:	97ffff9b 	bl	202c7c <seL4_GetMR>
  202e14:	aa0003f6 	mov	x22, x0
/Users/jd/trustworthy-systems/microkit-sdk-1.4.1/board/qemu_virt_aarch64/debug/include/sel4/arch/syscalls.h:22 (discriminator 3)
  202e18:	52800060 	mov	w0, #0x3                   	// #3
  202e1c:	97ffff98 	bl	202c7c <seL4_GetMR>
/Users/jd/trustworthy-systems/microkit-sdk-1.4.1/board/qemu_virt_aarch64/debug/include/sel4/arch/syscalls.h:22 (discriminator 4)
  202e20:	aa0003e6 	mov	x6, x0
  202e24:	aa1603e5 	mov	x5, x22
  202e28:	aa1503e4 	mov	x4, x21
  202e2c:	aa1403e3 	mov	x3, x20
  202e30:	aa1303e2 	mov	x2, x19
  202e34:	f9401fe1 	ldr	x1, [sp, #56]
  202e38:	92800080 	mov	x0, #0xfffffffffffffffb    	// #-5
  202e3c:	97ffffa9 	bl	202ce0 <arm_sys_send>
/Users/jd/trustworthy-systems/microkit-sdk-1.4.1/board/qemu_virt_aarch64/debug/include/sel4/arch/syscalls.h:23
  202e40:	d503201f 	nop
  202e44:	a94153f3 	ldp	x19, x20, [sp, #16]
  202e48:	a9425bf5 	ldp	x21, x22, [sp, #32]
  202e4c:	a8c47bfd 	ldp	x29, x30, [sp], #64
  202e50:	d65f03c0 	ret

0000000000202e54 <seL4_CallWithMRs>:
seL4_CallWithMRs():
/Users/jd/trustworthy-systems/microkit-sdk-1.4.1/board/qemu_virt_aarch64/debug/include/sel4/arch/syscalls.h:189
  202e54:	d10203ff 	sub	sp, sp, #0x80
  202e58:	a9017bfd 	stp	x29, x30, [sp, #16]
  202e5c:	910043fd 	add	x29, sp, #0x10
  202e60:	f90027e0 	str	x0, [sp, #72]
  202e64:	f90023e1 	str	x1, [sp, #64]
  202e68:	f9001fe2 	str	x2, [sp, #56]
  202e6c:	f9001be3 	str	x3, [sp, #48]
  202e70:	f90017e4 	str	x4, [sp, #40]
  202e74:	f90013e5 	str	x5, [sp, #32]
/Users/jd/trustworthy-systems/microkit-sdk-1.4.1/board/qemu_virt_aarch64/debug/include/sel4/arch/syscalls.h:191
  202e78:	f9003bff 	str	xzr, [sp, #112]
/Users/jd/trustworthy-systems/microkit-sdk-1.4.1/board/qemu_virt_aarch64/debug/include/sel4/arch/syscalls.h:192
  202e7c:	f90037ff 	str	xzr, [sp, #104]
/Users/jd/trustworthy-systems/microkit-sdk-1.4.1/board/qemu_virt_aarch64/debug/include/sel4/arch/syscalls.h:193
  202e80:	f90033ff 	str	xzr, [sp, #96]
/Users/jd/trustworthy-systems/microkit-sdk-1.4.1/board/qemu_virt_aarch64/debug/include/sel4/arch/syscalls.h:194
  202e84:	f9002fff 	str	xzr, [sp, #88]
/Users/jd/trustworthy-systems/microkit-sdk-1.4.1/board/qemu_virt_aarch64/debug/include/sel4/arch/syscalls.h:197
  202e88:	f9401fe0 	ldr	x0, [sp, #56]
  202e8c:	f100001f 	cmp	x0, #0x0
  202e90:	54000100 	b.eq	202eb0 <seL4_CallWithMRs+0x5c>  // b.none
/Users/jd/trustworthy-systems/microkit-sdk-1.4.1/board/qemu_virt_aarch64/debug/include/sel4/arch/syscalls.h:197 (discriminator 1)
  202e94:	f94023e0 	ldr	x0, [sp, #64]
  202e98:	97ffff6d 	bl	202c4c <seL4_MessageInfo_get_length>
  202e9c:	f100001f 	cmp	x0, #0x0
  202ea0:	54000080 	b.eq	202eb0 <seL4_CallWithMRs+0x5c>  // b.none
/Users/jd/trustworthy-systems/microkit-sdk-1.4.1/board/qemu_virt_aarch64/debug/include/sel4/arch/syscalls.h:198
  202ea4:	f9401fe0 	ldr	x0, [sp, #56]
  202ea8:	f9400000 	ldr	x0, [x0]
  202eac:	f9003be0 	str	x0, [sp, #112]
/Users/jd/trustworthy-systems/microkit-sdk-1.4.1/board/qemu_virt_aarch64/debug/include/sel4/arch/syscalls.h:200
  202eb0:	f9401be0 	ldr	x0, [sp, #48]
  202eb4:	f100001f 	cmp	x0, #0x0
  202eb8:	54000100 	b.eq	202ed8 <seL4_CallWithMRs+0x84>  // b.none
/Users/jd/trustworthy-systems/microkit-sdk-1.4.1/board/qemu_virt_aarch64/debug/include/sel4/arch/syscalls.h:200 (discriminator 1)
  202ebc:	f94023e0 	ldr	x0, [sp, #64]
  202ec0:	97ffff63 	bl	202c4c <seL4_MessageInfo_get_length>
  202ec4:	f100041f 	cmp	x0, #0x1
  202ec8:	54000089 	b.ls	202ed8 <seL4_CallWithMRs+0x84>  // b.plast
/Users/jd/trustworthy-systems/microkit-sdk-1.4.1/board/qemu_virt_aarch64/debug/include/sel4/arch/syscalls.h:201
  202ecc:	f9401be0 	ldr	x0, [sp, #48]
  202ed0:	f9400000 	ldr	x0, [x0]
  202ed4:	f90037e0 	str	x0, [sp, #104]
/Users/jd/trustworthy-systems/microkit-sdk-1.4.1/board/qemu_virt_aarch64/debug/include/sel4/arch/syscalls.h:203
  202ed8:	f94017e0 	ldr	x0, [sp, #40]
  202edc:	f100001f 	cmp	x0, #0x0
  202ee0:	54000100 	b.eq	202f00 <seL4_CallWithMRs+0xac>  // b.none
/Users/jd/trustworthy-systems/microkit-sdk-1.4.1/board/qemu_virt_aarch64/debug/include/sel4/arch/syscalls.h:203 (discriminator 1)
  202ee4:	f94023e0 	ldr	x0, [sp, #64]
  202ee8:	97ffff59 	bl	202c4c <seL4_MessageInfo_get_length>
  202eec:	f100081f 	cmp	x0, #0x2
  202ef0:	54000089 	b.ls	202f00 <seL4_CallWithMRs+0xac>  // b.plast
/Users/jd/trustworthy-systems/microkit-sdk-1.4.1/board/qemu_virt_aarch64/debug/include/sel4/arch/syscalls.h:204
  202ef4:	f94017e0 	ldr	x0, [sp, #40]
  202ef8:	f9400000 	ldr	x0, [x0]
  202efc:	f90033e0 	str	x0, [sp, #96]
/Users/jd/trustworthy-systems/microkit-sdk-1.4.1/board/qemu_virt_aarch64/debug/include/sel4/arch/syscalls.h:206
  202f00:	f94013e0 	ldr	x0, [sp, #32]
  202f04:	f100001f 	cmp	x0, #0x0
  202f08:	54000100 	b.eq	202f28 <seL4_CallWithMRs+0xd4>  // b.none
/Users/jd/trustworthy-systems/microkit-sdk-1.4.1/board/qemu_virt_aarch64/debug/include/sel4/arch/syscalls.h:206 (discriminator 1)
  202f0c:	f94023e0 	ldr	x0, [sp, #64]
  202f10:	97ffff4f 	bl	202c4c <seL4_MessageInfo_get_length>
  202f14:	f1000c1f 	cmp	x0, #0x3
  202f18:	54000089 	b.ls	202f28 <seL4_CallWithMRs+0xd4>  // b.plast
/Users/jd/trustworthy-systems/microkit-sdk-1.4.1/board/qemu_virt_aarch64/debug/include/sel4/arch/syscalls.h:207
  202f1c:	f94013e0 	ldr	x0, [sp, #32]
  202f20:	f9400000 	ldr	x0, [x0]
  202f24:	f9002fe0 	str	x0, [sp, #88]
/Users/jd/trustworthy-systems/microkit-sdk-1.4.1/board/qemu_virt_aarch64/debug/include/sel4/arch/syscalls.h:210
  202f28:	f94027e1 	ldr	x1, [sp, #72]
  202f2c:	f94023e3 	ldr	x3, [sp, #64]
  202f30:	910183e7 	add	x7, sp, #0x60
  202f34:	9101a3e6 	add	x6, sp, #0x68
  202f38:	9101c3e5 	add	x5, sp, #0x70
  202f3c:	9101e3e4 	add	x4, sp, #0x78
  202f40:	910123e2 	add	x2, sp, #0x48
  202f44:	f90007ff 	str	xzr, [sp, #8]
  202f48:	910163e0 	add	x0, sp, #0x58
  202f4c:	f90003e0 	str	x0, [sp]
  202f50:	92800000 	mov	x0, #0xffffffffffffffff    	// #-1
  202f54:	97ffff76 	bl	202d2c <arm_sys_send_recv>
/Users/jd/trustworthy-systems/microkit-sdk-1.4.1/board/qemu_virt_aarch64/debug/include/sel4/arch/syscalls.h:213
  202f58:	f9401fe0 	ldr	x0, [sp, #56]
  202f5c:	f100001f 	cmp	x0, #0x0
  202f60:	54000080 	b.eq	202f70 <seL4_CallWithMRs+0x11c>  // b.none
/Users/jd/trustworthy-systems/microkit-sdk-1.4.1/board/qemu_virt_aarch64/debug/include/sel4/arch/syscalls.h:214
  202f64:	f9403be1 	ldr	x1, [sp, #112]
  202f68:	f9401fe0 	ldr	x0, [sp, #56]
  202f6c:	f9000001 	str	x1, [x0]
/Users/jd/trustworthy-systems/microkit-sdk-1.4.1/board/qemu_virt_aarch64/debug/include/sel4/arch/syscalls.h:216
  202f70:	f9401be0 	ldr	x0, [sp, #48]
  202f74:	f100001f 	cmp	x0, #0x0
  202f78:	54000080 	b.eq	202f88 <seL4_CallWithMRs+0x134>  // b.none
/Users/jd/trustworthy-systems/microkit-sdk-1.4.1/board/qemu_virt_aarch64/debug/include/sel4/arch/syscalls.h:217
  202f7c:	f94037e1 	ldr	x1, [sp, #104]
  202f80:	f9401be0 	ldr	x0, [sp, #48]
  202f84:	f9000001 	str	x1, [x0]
/Users/jd/trustworthy-systems/microkit-sdk-1.4.1/board/qemu_virt_aarch64/debug/include/sel4/arch/syscalls.h:219
  202f88:	f94017e0 	ldr	x0, [sp, #40]
  202f8c:	f100001f 	cmp	x0, #0x0
  202f90:	54000080 	b.eq	202fa0 <seL4_CallWithMRs+0x14c>  // b.none
/Users/jd/trustworthy-systems/microkit-sdk-1.4.1/board/qemu_virt_aarch64/debug/include/sel4/arch/syscalls.h:220
  202f94:	f94033e1 	ldr	x1, [sp, #96]
  202f98:	f94017e0 	ldr	x0, [sp, #40]
  202f9c:	f9000001 	str	x1, [x0]
/Users/jd/trustworthy-systems/microkit-sdk-1.4.1/board/qemu_virt_aarch64/debug/include/sel4/arch/syscalls.h:222
  202fa0:	f94013e0 	ldr	x0, [sp, #32]
  202fa4:	f100001f 	cmp	x0, #0x0
  202fa8:	54000080 	b.eq	202fb8 <seL4_CallWithMRs+0x164>  // b.none
/Users/jd/trustworthy-systems/microkit-sdk-1.4.1/board/qemu_virt_aarch64/debug/include/sel4/arch/syscalls.h:223
  202fac:	f9402fe1 	ldr	x1, [sp, #88]
  202fb0:	f94013e0 	ldr	x0, [sp, #32]
  202fb4:	f9000001 	str	x1, [x0]
/Users/jd/trustworthy-systems/microkit-sdk-1.4.1/board/qemu_virt_aarch64/debug/include/sel4/arch/syscalls.h:226
  202fb8:	f9403fe0 	ldr	x0, [sp, #120]
/Users/jd/trustworthy-systems/microkit-sdk-1.4.1/board/qemu_virt_aarch64/debug/include/sel4/arch/syscalls.h:227
  202fbc:	a9417bfd 	ldp	x29, x30, [sp, #16]
  202fc0:	910203ff 	add	sp, sp, #0x80
  202fc4:	d65f03c0 	ret

0000000000202fc8 <seL4_ARM_VCPU_ReadRegs>:
seL4_ARM_VCPU_ReadRegs():
/Users/jd/trustworthy-systems/microkit-sdk-1.4.1/board/qemu_virt_aarch64/debug/include/interfaces/sel4_client.h:1409
  202fc8:	a9b87bfd 	stp	x29, x30, [sp, #-128]!
  202fcc:	910003fd 	mov	x29, sp
  202fd0:	a90157f4 	stp	x20, x21, [sp, #16]
  202fd4:	f90017e0 	str	x0, [sp, #40]
  202fd8:	f90013e1 	str	x1, [sp, #32]
/Users/jd/trustworthy-systems/microkit-sdk-1.4.1/board/qemu_virt_aarch64/debug/include/interfaces/sel4_client.h:1411
  202fdc:	d2800023 	mov	x3, #0x1                   	// #1
  202fe0:	d2800002 	mov	x2, #0x0                   	// #0
  202fe4:	d2800001 	mov	x1, #0x0                   	// #0
  202fe8:	d28006c0 	mov	x0, #0x36                  	// #54
  202fec:	97fffecc 	bl	202b1c <seL4_MessageInfo_new>
  202ff0:	f9002fe0 	str	x0, [sp, #88]
/Users/jd/trustworthy-systems/microkit-sdk-1.4.1/board/qemu_virt_aarch64/debug/include/interfaces/sel4_client.h:1419
  202ff4:	f94013e0 	ldr	x0, [sp, #32]
  202ff8:	f90027e0 	str	x0, [sp, #72]
/Users/jd/trustworthy-systems/microkit-sdk-1.4.1/board/qemu_virt_aarch64/debug/include/interfaces/sel4_client.h:1420
  202ffc:	f90023ff 	str	xzr, [sp, #64]
/Users/jd/trustworthy-systems/microkit-sdk-1.4.1/board/qemu_virt_aarch64/debug/include/interfaces/sel4_client.h:1421
  203000:	f9001fff 	str	xzr, [sp, #56]
/Users/jd/trustworthy-systems/microkit-sdk-1.4.1/board/qemu_virt_aarch64/debug/include/interfaces/sel4_client.h:1422
  203004:	f9001bff 	str	xzr, [sp, #48]
/Users/jd/trustworthy-systems/microkit-sdk-1.4.1/board/qemu_virt_aarch64/debug/include/interfaces/sel4_client.h:1425
  203008:	9100c3e3 	add	x3, sp, #0x30
  20300c:	9100e3e2 	add	x2, sp, #0x38
  203010:	910103e1 	add	x1, sp, #0x40
  203014:	910123e0 	add	x0, sp, #0x48
  203018:	aa0303e5 	mov	x5, x3
  20301c:	aa0203e4 	mov	x4, x2
  203020:	aa0103e3 	mov	x3, x1
  203024:	aa0003e2 	mov	x2, x0
  203028:	f9402fe1 	ldr	x1, [sp, #88]
  20302c:	f94017e0 	ldr	x0, [sp, #40]
  203030:	97ffff89 	bl	202e54 <seL4_CallWithMRs>
  203034:	f9002be0 	str	x0, [sp, #80]
/Users/jd/trustworthy-systems/microkit-sdk-1.4.1/board/qemu_virt_aarch64/debug/include/interfaces/sel4_client.h:1427
  203038:	f9402be0 	ldr	x0, [sp, #80]
  20303c:	97fffefc 	bl	202c2c <seL4_MessageInfo_get_label>
/Users/jd/trustworthy-systems/microkit-sdk-1.4.1/board/qemu_virt_aarch64/debug/include/interfaces/sel4_client.h:1427 (discriminator 1)
  203040:	b90063e0 	str	w0, [sp, #96]
/Users/jd/trustworthy-systems/microkit-sdk-1.4.1/board/qemu_virt_aarch64/debug/include/interfaces/sel4_client.h:1430
  203044:	b94063e0 	ldr	w0, [sp, #96]
  203048:	7100001f 	cmp	w0, #0x0
  20304c:	54000280 	b.eq	20309c <seL4_ARM_VCPU_ReadRegs+0xd4>  // b.none
/Users/jd/trustworthy-systems/microkit-sdk-1.4.1/board/qemu_virt_aarch64/debug/include/interfaces/sel4_client.h:1431
  203050:	f94027e0 	ldr	x0, [sp, #72]
  203054:	aa0003e1 	mov	x1, x0
  203058:	52800000 	mov	w0, #0x0                   	// #0
  20305c:	97ffff13 	bl	202ca8 <seL4_SetMR>
/Users/jd/trustworthy-systems/microkit-sdk-1.4.1/board/qemu_virt_aarch64/debug/include/interfaces/sel4_client.h:1432
  203060:	f94023e0 	ldr	x0, [sp, #64]
  203064:	aa0003e1 	mov	x1, x0
  203068:	52800020 	mov	w0, #0x1                   	// #1
  20306c:	97ffff0f 	bl	202ca8 <seL4_SetMR>
/Users/jd/trustworthy-systems/microkit-sdk-1.4.1/board/qemu_virt_aarch64/debug/include/interfaces/sel4_client.h:1433
  203070:	f9401fe0 	ldr	x0, [sp, #56]
  203074:	aa0003e1 	mov	x1, x0
  203078:	52800040 	mov	w0, #0x2                   	// #2
  20307c:	97ffff0b 	bl	202ca8 <seL4_SetMR>
/Users/jd/trustworthy-systems/microkit-sdk-1.4.1/board/qemu_virt_aarch64/debug/include/interfaces/sel4_client.h:1434
  203080:	f9401be0 	ldr	x0, [sp, #48]
  203084:	aa0003e1 	mov	x1, x0
  203088:	52800060 	mov	w0, #0x3                   	// #3
  20308c:	97ffff07 	bl	202ca8 <seL4_SetMR>
/Users/jd/trustworthy-systems/microkit-sdk-1.4.1/board/qemu_virt_aarch64/debug/include/interfaces/sel4_client.h:1440
  203090:	a94607e0 	ldp	x0, x1, [sp, #96]
  203094:	a90707e0 	stp	x0, x1, [sp, #112]
  203098:	14000005 	b	2030ac <seL4_ARM_VCPU_ReadRegs+0xe4>
/Users/jd/trustworthy-systems/microkit-sdk-1.4.1/board/qemu_virt_aarch64/debug/include/interfaces/sel4_client.h:1444
  20309c:	f94027e0 	ldr	x0, [sp, #72]
  2030a0:	f90037e0 	str	x0, [sp, #104]
/Users/jd/trustworthy-systems/microkit-sdk-1.4.1/board/qemu_virt_aarch64/debug/include/interfaces/sel4_client.h:1445
  2030a4:	a94607e0 	ldp	x0, x1, [sp, #96]
  2030a8:	a90707e0 	stp	x0, x1, [sp, #112]
/Users/jd/trustworthy-systems/microkit-sdk-1.4.1/board/qemu_virt_aarch64/debug/include/interfaces/sel4_client.h:1446
  2030ac:	f9403be1 	ldr	x1, [sp, #112]
  2030b0:	f9403fe0 	ldr	x0, [sp, #120]
  2030b4:	aa0103f4 	mov	x20, x1
  2030b8:	aa0003f5 	mov	x21, x0
  2030bc:	aa1403e0 	mov	x0, x20
  2030c0:	aa1503e1 	mov	x1, x21
  2030c4:	a94157f4 	ldp	x20, x21, [sp, #16]
  2030c8:	a8c87bfd 	ldp	x29, x30, [sp], #128
  2030cc:	d65f03c0 	ret

00000000002030d0 <microkit_internal_crash>:
microkit_internal_crash():
/Users/jd/trustworthy-systems/microkit-sdk-1.4.1/board/qemu_virt_aarch64/debug/include/microkit.h:56
  2030d0:	d10083ff 	sub	sp, sp, #0x20
  2030d4:	b9000fe0 	str	w0, [sp, #12]
/Users/jd/trustworthy-systems/microkit-sdk-1.4.1/board/qemu_virt_aarch64/debug/include/microkit.h:64
  2030d8:	b9400fe0 	ldr	w0, [sp, #12]
  2030dc:	f9000fe0 	str	x0, [sp, #24]
/Users/jd/trustworthy-systems/microkit-sdk-1.4.1/board/qemu_virt_aarch64/debug/include/microkit.h:65
  2030e0:	f9400fe0 	ldr	x0, [sp, #24]
  2030e4:	b900001f 	str	wzr, [x0]
/Users/jd/trustworthy-systems/microkit-sdk-1.4.1/board/qemu_virt_aarch64/debug/include/microkit.h:66
  2030e8:	d503201f 	nop
  2030ec:	910083ff 	add	sp, sp, #0x20
  2030f0:	d65f03c0 	ret

00000000002030f4 <microkit_msginfo_new>:
microkit_msginfo_new():
/Users/jd/trustworthy-systems/microkit-sdk-1.4.1/board/qemu_virt_aarch64/debug/include/microkit.h:113
  2030f4:	a9be7bfd 	stp	x29, x30, [sp, #-32]!
  2030f8:	910003fd 	mov	x29, sp
  2030fc:	f9000fe0 	str	x0, [sp, #24]
  203100:	79002fe1 	strh	w1, [sp, #22]
/Users/jd/trustworthy-systems/microkit-sdk-1.4.1/board/qemu_virt_aarch64/debug/include/microkit.h:114
  203104:	79402fe0 	ldrh	w0, [sp, #22]
  203108:	aa0003e3 	mov	x3, x0
  20310c:	d2800002 	mov	x2, #0x0                   	// #0
  203110:	d2800001 	mov	x1, #0x0                   	// #0
  203114:	f9400fe0 	ldr	x0, [sp, #24]
  203118:	97fffe81 	bl	202b1c <seL4_MessageInfo_new>
/Users/jd/trustworthy-systems/microkit-sdk-1.4.1/board/qemu_virt_aarch64/debug/include/microkit.h:115
  20311c:	a8c27bfd 	ldp	x29, x30, [sp], #32
  203120:	d65f03c0 	ret

0000000000203124 <microkit_mr_set>:
microkit_mr_set():
/Users/jd/trustworthy-systems/microkit-sdk-1.4.1/board/qemu_virt_aarch64/debug/include/microkit.h:128
  203124:	a9be7bfd 	stp	x29, x30, [sp, #-32]!
  203128:	910003fd 	mov	x29, sp
  20312c:	39007fe0 	strb	w0, [sp, #31]
  203130:	f9000be1 	str	x1, [sp, #16]
/Users/jd/trustworthy-systems/microkit-sdk-1.4.1/board/qemu_virt_aarch64/debug/include/microkit.h:129
  203134:	39407fe0 	ldrb	w0, [sp, #31]
  203138:	f9400be1 	ldr	x1, [sp, #16]
  20313c:	97fffedb 	bl	202ca8 <seL4_SetMR>
/Users/jd/trustworthy-systems/microkit-sdk-1.4.1/board/qemu_virt_aarch64/debug/include/microkit.h:130
  203140:	d503201f 	nop
  203144:	a8c27bfd 	ldp	x29, x30, [sp], #32
  203148:	d65f03c0 	ret

000000000020314c <microkit_mr_get>:
microkit_mr_get():
/Users/jd/trustworthy-systems/microkit-sdk-1.4.1/board/qemu_virt_aarch64/debug/include/microkit.h:133
  20314c:	a9be7bfd 	stp	x29, x30, [sp, #-32]!
  203150:	910003fd 	mov	x29, sp
  203154:	39007fe0 	strb	w0, [sp, #31]
/Users/jd/trustworthy-systems/microkit-sdk-1.4.1/board/qemu_virt_aarch64/debug/include/microkit.h:134
  203158:	39407fe0 	ldrb	w0, [sp, #31]
  20315c:	97fffec8 	bl	202c7c <seL4_GetMR>
/Users/jd/trustworthy-systems/microkit-sdk-1.4.1/board/qemu_virt_aarch64/debug/include/microkit.h:135
  203160:	a8c27bfd 	ldp	x29, x30, [sp], #32
  203164:	d65f03c0 	ret

0000000000203168 <microkit_vcpu_arm_read_reg>:
microkit_vcpu_arm_read_reg():
/Users/jd/trustworthy-systems/microkit-sdk-1.4.1/board/qemu_virt_aarch64/debug/include/microkit.h:190
  203168:	a9bd7bfd 	stp	x29, x30, [sp, #-48]!
  20316c:	910003fd 	mov	x29, sp
  203170:	b9001fe0 	str	w0, [sp, #28]
  203174:	f9000be1 	str	x1, [sp, #16]
/Users/jd/trustworthy-systems/microkit-sdk-1.4.1/board/qemu_virt_aarch64/debug/include/microkit.h:192
  203178:	b9401fe0 	ldr	w0, [sp, #28]
  20317c:	11052800 	add	w0, w0, #0x14a
  203180:	2a0003e0 	mov	w0, w0
  203184:	f9400be1 	ldr	x1, [sp, #16]
  203188:	97ffff90 	bl	202fc8 <seL4_ARM_VCPU_ReadRegs>
  20318c:	a90207e0 	stp	x0, x1, [sp, #32]
/Users/jd/trustworthy-systems/microkit-sdk-1.4.1/board/qemu_virt_aarch64/debug/include/microkit.h:193
  203190:	b94023e0 	ldr	w0, [sp, #32]
  203194:	7100001f 	cmp	w0, #0x0
  203198:	540000c0 	b.eq	2031b0 <microkit_vcpu_arm_read_reg+0x48>  // b.none
/Users/jd/trustworthy-systems/microkit-sdk-1.4.1/board/qemu_virt_aarch64/debug/include/microkit.h:194
  20319c:	b0000000 	adrp	x0, 204000 <main+0xc0>
  2031a0:	9116c000 	add	x0, x0, #0x5b0
  2031a4:	940003cb 	bl	2040d0 <microkit_dbg_puts>
/Users/jd/trustworthy-systems/microkit-sdk-1.4.1/board/qemu_virt_aarch64/debug/include/microkit.h:195
  2031a8:	b94023e0 	ldr	w0, [sp, #32]
  2031ac:	97ffffc9 	bl	2030d0 <microkit_internal_crash>
/Users/jd/trustworthy-systems/microkit-sdk-1.4.1/board/qemu_virt_aarch64/debug/include/microkit.h:198
  2031b0:	f94017e0 	ldr	x0, [sp, #40]
/Users/jd/trustworthy-systems/microkit-sdk-1.4.1/board/qemu_virt_aarch64/debug/include/microkit.h:199
  2031b4:	a8c37bfd 	ldp	x29, x30, [sp], #48
  2031b8:	d65f03c0 	ret

00000000002031bc <decchar>:
decchar():
/Users/jd/trustworthy-systems/arinc/ARINC/t1_prototype/microkit_tutorial/prototype_t1/build/../util.h:42
  2031bc:	d10043ff 	sub	sp, sp, #0x10
  2031c0:	b9000fe0 	str	w0, [sp, #12]
/Users/jd/trustworthy-systems/arinc/ARINC/t1_prototype/microkit_tutorial/prototype_t1/build/../util.h:43
  2031c4:	b9400fe0 	ldr	w0, [sp, #12]
  2031c8:	12001c00 	and	w0, w0, #0xff
  2031cc:	1100c000 	add	w0, w0, #0x30
  2031d0:	12001c00 	and	w0, w0, #0xff
/Users/jd/trustworthy-systems/arinc/ARINC/t1_prototype/microkit_tutorial/prototype_t1/build/../util.h:44
  2031d4:	910043ff 	add	sp, sp, #0x10
  2031d8:	d65f03c0 	ret

00000000002031dc <put8>:
put8():
/Users/jd/trustworthy-systems/arinc/ARINC/t1_prototype/microkit_tutorial/prototype_t1/build/../util.h:48
  2031dc:	a9bd7bfd 	stp	x29, x30, [sp, #-48]!
  2031e0:	910003fd 	mov	x29, sp
  2031e4:	39007fe0 	strb	w0, [sp, #31]
/Users/jd/trustworthy-systems/arinc/ARINC/t1_prototype/microkit_tutorial/prototype_t1/build/../util.h:50
  2031e8:	52800060 	mov	w0, #0x3                   	// #3
  2031ec:	b9002fe0 	str	w0, [sp, #44]
/Users/jd/trustworthy-systems/arinc/ARINC/t1_prototype/microkit_tutorial/prototype_t1/build/../util.h:51
  2031f0:	39008fff 	strb	wzr, [sp, #35]
/Users/jd/trustworthy-systems/arinc/ARINC/t1_prototype/microkit_tutorial/prototype_t1/build/../util.h:53
  2031f4:	39407fe0 	ldrb	w0, [sp, #31]
  2031f8:	529999a1 	mov	w1, #0xcccd                	// #52429
  2031fc:	72b99981 	movk	w1, #0xcccc, lsl #16
  203200:	9ba17c01 	umull	x1, w0, w1
  203204:	d360fc21 	lsr	x1, x1, #32
  203208:	53037c22 	lsr	w2, w1, #3
  20320c:	52800141 	mov	w1, #0xa                   	// #10
  203210:	1b017c41 	mul	w1, w2, w1
  203214:	4b010000 	sub	w0, w0, w1
  203218:	3900afe0 	strb	w0, [sp, #43]
/Users/jd/trustworthy-systems/arinc/ARINC/t1_prototype/microkit_tutorial/prototype_t1/build/../util.h:54
  20321c:	3940afe1 	ldrb	w1, [sp, #43]
  203220:	b9402fe0 	ldr	w0, [sp, #44]
  203224:	51000400 	sub	w0, w0, #0x1
  203228:	b9002fe0 	str	w0, [sp, #44]
  20322c:	2a0103e0 	mov	w0, w1
  203230:	97ffffe3 	bl	2031bc <decchar>
  203234:	12001c02 	and	w2, w0, #0xff
/Users/jd/trustworthy-systems/arinc/ARINC/t1_prototype/microkit_tutorial/prototype_t1/build/../util.h:54 (discriminator 1)
  203238:	b9402fe0 	ldr	w0, [sp, #44]
  20323c:	910083e1 	add	x1, sp, #0x20
  203240:	38206822 	strb	w2, [x1, x0]
/Users/jd/trustworthy-systems/arinc/ARINC/t1_prototype/microkit_tutorial/prototype_t1/build/../util.h:55
  203244:	39407fe1 	ldrb	w1, [sp, #31]
  203248:	529999a0 	mov	w0, #0xcccd                	// #52429
  20324c:	72b99980 	movk	w0, #0xcccc, lsl #16
  203250:	9ba07c20 	umull	x0, w1, w0
  203254:	d360fc00 	lsr	x0, x0, #32
  203258:	53037c00 	lsr	w0, w0, #3
  20325c:	39007fe0 	strb	w0, [sp, #31]
/Users/jd/trustworthy-systems/arinc/ARINC/t1_prototype/microkit_tutorial/prototype_t1/build/../util.h:56 (discriminator 1)
  203260:	39407fe0 	ldrb	w0, [sp, #31]
  203264:	7100001f 	cmp	w0, #0x0
  203268:	54fffc61 	b.ne	2031f4 <put8+0x18>  // b.any
/Users/jd/trustworthy-systems/arinc/ARINC/t1_prototype/microkit_tutorial/prototype_t1/build/../util.h:57
  20326c:	910083e1 	add	x1, sp, #0x20
  203270:	b9402fe0 	ldr	w0, [sp, #44]
  203274:	8b000020 	add	x0, x1, x0
  203278:	94000396 	bl	2040d0 <microkit_dbg_puts>
/Users/jd/trustworthy-systems/arinc/ARINC/t1_prototype/microkit_tutorial/prototype_t1/build/../util.h:58
  20327c:	d503201f 	nop
  203280:	a8c37bfd 	ldp	x29, x30, [sp], #48
  203284:	d65f03c0 	ret

0000000000203288 <reply_to_fault>:
reply_to_fault():
/Users/jd/trustworthy-systems/arinc/ARINC/t1_prototype/microkit_tutorial/prototype_t1/build/../util.h:63
  203288:	a9be7bfd 	stp	x29, x30, [sp, #-32]!
  20328c:	910003fd 	mov	x29, sp
/Users/jd/trustworthy-systems/arinc/ARINC/t1_prototype/microkit_tutorial/prototype_t1/build/../util.h:64
  203290:	52800001 	mov	w1, #0x0                   	// #0
  203294:	d2800000 	mov	x0, #0x0                   	// #0
  203298:	97ffff97 	bl	2030f4 <microkit_msginfo_new>
  20329c:	f9000fe0 	str	x0, [sp, #24]
/Users/jd/trustworthy-systems/arinc/ARINC/t1_prototype/microkit_tutorial/prototype_t1/build/../util.h:65
  2032a0:	f9400fe1 	ldr	x1, [sp, #24]
  2032a4:	d2800080 	mov	x0, #0x4                   	// #4
  2032a8:	97fffecc 	bl	202dd8 <seL4_Send>
/Users/jd/trustworthy-systems/arinc/ARINC/t1_prototype/microkit_tutorial/prototype_t1/build/../util.h:66
  2032ac:	d503201f 	nop
  2032b0:	a8c27bfd 	ldp	x29, x30, [sp], #32
  2032b4:	d65f03c0 	ret

00000000002032b8 <get_vmm_id>:
get_vmm_id():
/Users/jd/trustworthy-systems/arinc/ARINC/t1_prototype/microkit_tutorial/prototype_t1/build/../util.h:69
  2032b8:	d10043ff 	sub	sp, sp, #0x10
  2032bc:	f90007e0 	str	x0, [sp, #8]
/Users/jd/trustworthy-systems/arinc/ARINC/t1_prototype/microkit_tutorial/prototype_t1/build/../util.h:71
  2032c0:	f94007e0 	ldr	x0, [sp, #8]
  2032c4:	91001000 	add	x0, x0, #0x4
  2032c8:	39400000 	ldrb	w0, [x0]
  2032cc:	5100c000 	sub	w0, w0, #0x30
  2032d0:	93407c00 	sxtw	x0, w0
/Users/jd/trustworthy-systems/arinc/ARINC/t1_prototype/microkit_tutorial/prototype_t1/build/../util.h:72
  2032d4:	910043ff 	add	sp, sp, #0x10
  2032d8:	d65f03c0 	ret

00000000002032dc <print_tcb_regs>:
print_tcb_regs():
/Users/jd/trustworthy-systems/arinc/ARINC/t1_prototype/microkit_tutorial/prototype_t1/build/../util.h:75
  2032dc:	d10043ff 	sub	sp, sp, #0x10
  2032e0:	f90007e0 	str	x0, [sp, #8]
/Users/jd/trustworthy-systems/arinc/ARINC/t1_prototype/microkit_tutorial/prototype_t1/build/../util.h:118
  2032e4:	d503201f 	nop
  2032e8:	910043ff 	add	sp, sp, #0x10
  2032ec:	d65f03c0 	ret

00000000002032f0 <print_vcpu_regs>:
print_vcpu_regs():
/Users/jd/trustworthy-systems/arinc/ARINC/t1_prototype/microkit_tutorial/prototype_t1/build/../util.h:122
  2032f0:	a9be7bfd 	stp	x29, x30, [sp, #-32]!
  2032f4:	910003fd 	mov	x29, sp
  2032f8:	f9000fe0 	str	x0, [sp, #24]
/Users/jd/trustworthy-systems/arinc/ARINC/t1_prototype/microkit_tutorial/prototype_t1/build/../util.h:123
  2032fc:	b0000000 	adrp	x0, 204000 <main+0xc0>
  203300:	9117c000 	add	x0, x0, #0x5f0
  203304:	97fffd0d 	bl	202738 <printf_>
/Users/jd/trustworthy-systems/arinc/ARINC/t1_prototype/microkit_tutorial/prototype_t1/build/../util.h:125
  203308:	f9400fe0 	ldr	x0, [sp, #24]
  20330c:	d2800001 	mov	x1, #0x0                   	// #0
  203310:	97ffff96 	bl	203168 <microkit_vcpu_arm_read_reg>
/Users/jd/trustworthy-systems/arinc/ARINC/t1_prototype/microkit_tutorial/prototype_t1/build/../util.h:125 (discriminator 1)
  203314:	aa0003e1 	mov	x1, x0
  203318:	b0000000 	adrp	x0, 204000 <main+0xc0>
  20331c:	91184000 	add	x0, x0, #0x610
  203320:	97fffd06 	bl	202738 <printf_>
/Users/jd/trustworthy-systems/arinc/ARINC/t1_prototype/microkit_tutorial/prototype_t1/build/../util.h:126
  203324:	f9400fe0 	ldr	x0, [sp, #24]
  203328:	d2800021 	mov	x1, #0x1                   	// #1
  20332c:	97ffff8f 	bl	203168 <microkit_vcpu_arm_read_reg>
/Users/jd/trustworthy-systems/arinc/ARINC/t1_prototype/microkit_tutorial/prototype_t1/build/../util.h:126 (discriminator 1)
  203330:	aa0003e1 	mov	x1, x0
  203334:	b0000000 	adrp	x0, 204000 <main+0xc0>
  203338:	9118a000 	add	x0, x0, #0x628
  20333c:	97fffcff 	bl	202738 <printf_>
/Users/jd/trustworthy-systems/arinc/ARINC/t1_prototype/microkit_tutorial/prototype_t1/build/../util.h:127
  203340:	f9400fe0 	ldr	x0, [sp, #24]
  203344:	d2800041 	mov	x1, #0x2                   	// #2
  203348:	97ffff88 	bl	203168 <microkit_vcpu_arm_read_reg>
/Users/jd/trustworthy-systems/arinc/ARINC/t1_prototype/microkit_tutorial/prototype_t1/build/../util.h:127 (discriminator 1)
  20334c:	aa0003e1 	mov	x1, x0
  203350:	b0000000 	adrp	x0, 204000 <main+0xc0>
  203354:	91190000 	add	x0, x0, #0x640
  203358:	97fffcf8 	bl	202738 <printf_>
/Users/jd/trustworthy-systems/arinc/ARINC/t1_prototype/microkit_tutorial/prototype_t1/build/../util.h:128
  20335c:	f9400fe0 	ldr	x0, [sp, #24]
  203360:	d2800061 	mov	x1, #0x3                   	// #3
  203364:	97ffff81 	bl	203168 <microkit_vcpu_arm_read_reg>
/Users/jd/trustworthy-systems/arinc/ARINC/t1_prototype/microkit_tutorial/prototype_t1/build/../util.h:128 (discriminator 1)
  203368:	aa0003e1 	mov	x1, x0
  20336c:	b0000000 	adrp	x0, 204000 <main+0xc0>
  203370:	91196000 	add	x0, x0, #0x658
  203374:	97fffcf1 	bl	202738 <printf_>
/Users/jd/trustworthy-systems/arinc/ARINC/t1_prototype/microkit_tutorial/prototype_t1/build/../util.h:129
  203378:	f9400fe0 	ldr	x0, [sp, #24]
  20337c:	d2800081 	mov	x1, #0x4                   	// #4
  203380:	97ffff7a 	bl	203168 <microkit_vcpu_arm_read_reg>
/Users/jd/trustworthy-systems/arinc/ARINC/t1_prototype/microkit_tutorial/prototype_t1/build/../util.h:129 (discriminator 1)
  203384:	aa0003e1 	mov	x1, x0
  203388:	b0000000 	adrp	x0, 204000 <main+0xc0>
  20338c:	9119c000 	add	x0, x0, #0x670
  203390:	97fffcea 	bl	202738 <printf_>
/Users/jd/trustworthy-systems/arinc/ARINC/t1_prototype/microkit_tutorial/prototype_t1/build/../util.h:130
  203394:	f9400fe0 	ldr	x0, [sp, #24]
  203398:	d28000a1 	mov	x1, #0x5                   	// #5
  20339c:	97ffff73 	bl	203168 <microkit_vcpu_arm_read_reg>
/Users/jd/trustworthy-systems/arinc/ARINC/t1_prototype/microkit_tutorial/prototype_t1/build/../util.h:130 (discriminator 1)
  2033a0:	aa0003e1 	mov	x1, x0
  2033a4:	b0000000 	adrp	x0, 204000 <main+0xc0>
  2033a8:	911a2000 	add	x0, x0, #0x688
  2033ac:	97fffce3 	bl	202738 <printf_>
/Users/jd/trustworthy-systems/arinc/ARINC/t1_prototype/microkit_tutorial/prototype_t1/build/../util.h:131
  2033b0:	f9400fe0 	ldr	x0, [sp, #24]
  2033b4:	d28000c1 	mov	x1, #0x6                   	// #6
  2033b8:	97ffff6c 	bl	203168 <microkit_vcpu_arm_read_reg>
/Users/jd/trustworthy-systems/arinc/ARINC/t1_prototype/microkit_tutorial/prototype_t1/build/../util.h:131 (discriminator 1)
  2033bc:	aa0003e1 	mov	x1, x0
  2033c0:	b0000000 	adrp	x0, 204000 <main+0xc0>
  2033c4:	911a8000 	add	x0, x0, #0x6a0
  2033c8:	97fffcdc 	bl	202738 <printf_>
/Users/jd/trustworthy-systems/arinc/ARINC/t1_prototype/microkit_tutorial/prototype_t1/build/../util.h:133
  2033cc:	f9400fe0 	ldr	x0, [sp, #24]
  2033d0:	d28000e1 	mov	x1, #0x7                   	// #7
  2033d4:	97ffff65 	bl	203168 <microkit_vcpu_arm_read_reg>
/Users/jd/trustworthy-systems/arinc/ARINC/t1_prototype/microkit_tutorial/prototype_t1/build/../util.h:133 (discriminator 1)
  2033d8:	aa0003e1 	mov	x1, x0
  2033dc:	b0000000 	adrp	x0, 204000 <main+0xc0>
  2033e0:	911ae000 	add	x0, x0, #0x6b8
  2033e4:	97fffcd5 	bl	202738 <printf_>
/Users/jd/trustworthy-systems/arinc/ARINC/t1_prototype/microkit_tutorial/prototype_t1/build/../util.h:134
  2033e8:	f9400fe0 	ldr	x0, [sp, #24]
  2033ec:	d2800101 	mov	x1, #0x8                   	// #8
  2033f0:	97ffff5e 	bl	203168 <microkit_vcpu_arm_read_reg>
/Users/jd/trustworthy-systems/arinc/ARINC/t1_prototype/microkit_tutorial/prototype_t1/build/../util.h:134 (discriminator 1)
  2033f4:	aa0003e1 	mov	x1, x0
  2033f8:	b0000000 	adrp	x0, 204000 <main+0xc0>
  2033fc:	911b4000 	add	x0, x0, #0x6d0
  203400:	97fffcce 	bl	202738 <printf_>
/Users/jd/trustworthy-systems/arinc/ARINC/t1_prototype/microkit_tutorial/prototype_t1/build/../util.h:136
  203404:	f9400fe0 	ldr	x0, [sp, #24]
  203408:	d2800121 	mov	x1, #0x9                   	// #9
  20340c:	97ffff57 	bl	203168 <microkit_vcpu_arm_read_reg>
/Users/jd/trustworthy-systems/arinc/ARINC/t1_prototype/microkit_tutorial/prototype_t1/build/../util.h:136 (discriminator 1)
  203410:	aa0003e1 	mov	x1, x0
  203414:	b0000000 	adrp	x0, 204000 <main+0xc0>
  203418:	911ba000 	add	x0, x0, #0x6e8
  20341c:	97fffcc7 	bl	202738 <printf_>
/Users/jd/trustworthy-systems/arinc/ARINC/t1_prototype/microkit_tutorial/prototype_t1/build/../util.h:137
  203420:	f9400fe0 	ldr	x0, [sp, #24]
  203424:	d2800141 	mov	x1, #0xa                   	// #10
  203428:	97ffff50 	bl	203168 <microkit_vcpu_arm_read_reg>
/Users/jd/trustworthy-systems/arinc/ARINC/t1_prototype/microkit_tutorial/prototype_t1/build/../util.h:137 (discriminator 1)
  20342c:	aa0003e1 	mov	x1, x0
  203430:	b0000000 	adrp	x0, 204000 <main+0xc0>
  203434:	911c0000 	add	x0, x0, #0x700
  203438:	97fffcc0 	bl	202738 <printf_>
/Users/jd/trustworthy-systems/arinc/ARINC/t1_prototype/microkit_tutorial/prototype_t1/build/../util.h:138
  20343c:	f9400fe0 	ldr	x0, [sp, #24]
  203440:	d2800161 	mov	x1, #0xb                   	// #11
  203444:	97ffff49 	bl	203168 <microkit_vcpu_arm_read_reg>
/Users/jd/trustworthy-systems/arinc/ARINC/t1_prototype/microkit_tutorial/prototype_t1/build/../util.h:138 (discriminator 1)
  203448:	aa0003e1 	mov	x1, x0
  20344c:	b0000000 	adrp	x0, 204000 <main+0xc0>
  203450:	911c6000 	add	x0, x0, #0x718
  203454:	97fffcb9 	bl	202738 <printf_>
/Users/jd/trustworthy-systems/arinc/ARINC/t1_prototype/microkit_tutorial/prototype_t1/build/../util.h:139
  203458:	f9400fe0 	ldr	x0, [sp, #24]
  20345c:	d2800181 	mov	x1, #0xc                   	// #12
  203460:	97ffff42 	bl	203168 <microkit_vcpu_arm_read_reg>
/Users/jd/trustworthy-systems/arinc/ARINC/t1_prototype/microkit_tutorial/prototype_t1/build/../util.h:139 (discriminator 1)
  203464:	aa0003e1 	mov	x1, x0
  203468:	b0000000 	adrp	x0, 204000 <main+0xc0>
  20346c:	911cc000 	add	x0, x0, #0x730
  203470:	97fffcb2 	bl	202738 <printf_>
/Users/jd/trustworthy-systems/arinc/ARINC/t1_prototype/microkit_tutorial/prototype_t1/build/../util.h:140
  203474:	f9400fe0 	ldr	x0, [sp, #24]
  203478:	d28001a1 	mov	x1, #0xd                   	// #13
  20347c:	97ffff3b 	bl	203168 <microkit_vcpu_arm_read_reg>
/Users/jd/trustworthy-systems/arinc/ARINC/t1_prototype/microkit_tutorial/prototype_t1/build/../util.h:140 (discriminator 1)
  203480:	aa0003e1 	mov	x1, x0
  203484:	b0000000 	adrp	x0, 204000 <main+0xc0>
  203488:	911d2000 	add	x0, x0, #0x748
  20348c:	97fffcab 	bl	202738 <printf_>
/Users/jd/trustworthy-systems/arinc/ARINC/t1_prototype/microkit_tutorial/prototype_t1/build/../util.h:141
  203490:	f9400fe0 	ldr	x0, [sp, #24]
  203494:	d28001c1 	mov	x1, #0xe                   	// #14
  203498:	97ffff34 	bl	203168 <microkit_vcpu_arm_read_reg>
/Users/jd/trustworthy-systems/arinc/ARINC/t1_prototype/microkit_tutorial/prototype_t1/build/../util.h:141 (discriminator 1)
  20349c:	aa0003e1 	mov	x1, x0
  2034a0:	b0000000 	adrp	x0, 204000 <main+0xc0>
  2034a4:	911d8000 	add	x0, x0, #0x760
  2034a8:	97fffca4 	bl	202738 <printf_>
/Users/jd/trustworthy-systems/arinc/ARINC/t1_prototype/microkit_tutorial/prototype_t1/build/../util.h:143
  2034ac:	f9400fe0 	ldr	x0, [sp, #24]
  2034b0:	d28001e1 	mov	x1, #0xf                   	// #15
  2034b4:	97ffff2d 	bl	203168 <microkit_vcpu_arm_read_reg>
/Users/jd/trustworthy-systems/arinc/ARINC/t1_prototype/microkit_tutorial/prototype_t1/build/../util.h:143 (discriminator 1)
  2034b8:	aa0003e1 	mov	x1, x0
  2034bc:	b0000000 	adrp	x0, 204000 <main+0xc0>
  2034c0:	911de000 	add	x0, x0, #0x778
  2034c4:	97fffc9d 	bl	202738 <printf_>
/Users/jd/trustworthy-systems/arinc/ARINC/t1_prototype/microkit_tutorial/prototype_t1/build/../util.h:149
  2034c8:	f9400fe0 	ldr	x0, [sp, #24]
  2034cc:	d2800221 	mov	x1, #0x11                  	// #17
  2034d0:	97ffff26 	bl	203168 <microkit_vcpu_arm_read_reg>
/Users/jd/trustworthy-systems/arinc/ARINC/t1_prototype/microkit_tutorial/prototype_t1/build/../util.h:149 (discriminator 1)
  2034d4:	aa0003e1 	mov	x1, x0
  2034d8:	b0000000 	adrp	x0, 204000 <main+0xc0>
  2034dc:	911e4000 	add	x0, x0, #0x790
  2034e0:	97fffc96 	bl	202738 <printf_>
/Users/jd/trustworthy-systems/arinc/ARINC/t1_prototype/microkit_tutorial/prototype_t1/build/../util.h:150
  2034e4:	f9400fe0 	ldr	x0, [sp, #24]
  2034e8:	d2800241 	mov	x1, #0x12                  	// #18
  2034ec:	97ffff1f 	bl	203168 <microkit_vcpu_arm_read_reg>
/Users/jd/trustworthy-systems/arinc/ARINC/t1_prototype/microkit_tutorial/prototype_t1/build/../util.h:150 (discriminator 1)
  2034f0:	aa0003e1 	mov	x1, x0
  2034f4:	b0000000 	adrp	x0, 204000 <main+0xc0>
  2034f8:	911ea000 	add	x0, x0, #0x7a8
  2034fc:	97fffc8f 	bl	202738 <printf_>
/Users/jd/trustworthy-systems/arinc/ARINC/t1_prototype/microkit_tutorial/prototype_t1/build/../util.h:151
  203500:	f9400fe0 	ldr	x0, [sp, #24]
  203504:	d2800261 	mov	x1, #0x13                  	// #19
  203508:	97ffff18 	bl	203168 <microkit_vcpu_arm_read_reg>
/Users/jd/trustworthy-systems/arinc/ARINC/t1_prototype/microkit_tutorial/prototype_t1/build/../util.h:151 (discriminator 1)
  20350c:	aa0003e1 	mov	x1, x0
  203510:	b0000000 	adrp	x0, 204000 <main+0xc0>
  203514:	911f0000 	add	x0, x0, #0x7c0
  203518:	97fffc88 	bl	202738 <printf_>
/Users/jd/trustworthy-systems/arinc/ARINC/t1_prototype/microkit_tutorial/prototype_t1/build/../util.h:153
  20351c:	f9400fe0 	ldr	x0, [sp, #24]
  203520:	d2800281 	mov	x1, #0x14                  	// #20
  203524:	97ffff11 	bl	203168 <microkit_vcpu_arm_read_reg>
/Users/jd/trustworthy-systems/arinc/ARINC/t1_prototype/microkit_tutorial/prototype_t1/build/../util.h:153 (discriminator 1)
  203528:	aa0003e1 	mov	x1, x0
  20352c:	b0000000 	adrp	x0, 204000 <main+0xc0>
  203530:	911f6000 	add	x0, x0, #0x7d8
  203534:	97fffc81 	bl	202738 <printf_>
/Users/jd/trustworthy-systems/arinc/ARINC/t1_prototype/microkit_tutorial/prototype_t1/build/../util.h:154
  203538:	f9400fe0 	ldr	x0, [sp, #24]
  20353c:	d28002a1 	mov	x1, #0x15                  	// #21
  203540:	97ffff0a 	bl	203168 <microkit_vcpu_arm_read_reg>
/Users/jd/trustworthy-systems/arinc/ARINC/t1_prototype/microkit_tutorial/prototype_t1/build/../util.h:154 (discriminator 1)
  203544:	aa0003e1 	mov	x1, x0
  203548:	b0000000 	adrp	x0, 204000 <main+0xc0>
  20354c:	911fc000 	add	x0, x0, #0x7f0
  203550:	97fffc7a 	bl	202738 <printf_>
/Users/jd/trustworthy-systems/arinc/ARINC/t1_prototype/microkit_tutorial/prototype_t1/build/../util.h:155
  203554:	f9400fe0 	ldr	x0, [sp, #24]
  203558:	d28002c1 	mov	x1, #0x16                  	// #22
  20355c:	97ffff03 	bl	203168 <microkit_vcpu_arm_read_reg>
/Users/jd/trustworthy-systems/arinc/ARINC/t1_prototype/microkit_tutorial/prototype_t1/build/../util.h:155 (discriminator 1)
  203560:	aa0003e1 	mov	x1, x0
  203564:	b0000000 	adrp	x0, 204000 <main+0xc0>
  203568:	91202000 	add	x0, x0, #0x808
  20356c:	97fffc73 	bl	202738 <printf_>
/Users/jd/trustworthy-systems/arinc/ARINC/t1_prototype/microkit_tutorial/prototype_t1/build/../util.h:156
  203570:	f9400fe0 	ldr	x0, [sp, #24]
  203574:	d28002e1 	mov	x1, #0x17                  	// #23
  203578:	97fffefc 	bl	203168 <microkit_vcpu_arm_read_reg>
/Users/jd/trustworthy-systems/arinc/ARINC/t1_prototype/microkit_tutorial/prototype_t1/build/../util.h:156 (discriminator 1)
  20357c:	aa0003e1 	mov	x1, x0
  203580:	b0000000 	adrp	x0, 204000 <main+0xc0>
  203584:	91208000 	add	x0, x0, #0x820
  203588:	97fffc6c 	bl	202738 <printf_>
/Users/jd/trustworthy-systems/arinc/ARINC/t1_prototype/microkit_tutorial/prototype_t1/build/../util.h:157
  20358c:	d503201f 	nop
  203590:	a8c27bfd 	ldp	x29, x30, [sp], #32
  203594:	d65f03c0 	ret

0000000000203598 <memcpy>:
memcpy():
/Users/jd/trustworthy-systems/arinc/ARINC/t1_prototype/microkit_tutorial/prototype_t1/build/../util.h:160
  203598:	d100c3ff 	sub	sp, sp, #0x30
  20359c:	f9000fe0 	str	x0, [sp, #24]
  2035a0:	f9000be1 	str	x1, [sp, #16]
  2035a4:	f90007e2 	str	x2, [sp, #8]
/Users/jd/trustworthy-systems/arinc/ARINC/t1_prototype/microkit_tutorial/prototype_t1/build/../util.h:161
  2035a8:	f9400fe0 	ldr	x0, [sp, #24]
  2035ac:	f90017e0 	str	x0, [sp, #40]
/Users/jd/trustworthy-systems/arinc/ARINC/t1_prototype/microkit_tutorial/prototype_t1/build/../util.h:162
  2035b0:	f9400be0 	ldr	x0, [sp, #16]
  2035b4:	f90013e0 	str	x0, [sp, #32]
/Users/jd/trustworthy-systems/arinc/ARINC/t1_prototype/microkit_tutorial/prototype_t1/build/../util.h:163
  2035b8:	1400000c 	b	2035e8 <memcpy+0x50>
/Users/jd/trustworthy-systems/arinc/ARINC/t1_prototype/microkit_tutorial/prototype_t1/build/../util.h:163 (discriminator 2)
  2035bc:	f94013e1 	ldr	x1, [sp, #32]
  2035c0:	91000420 	add	x0, x1, #0x1
  2035c4:	f90013e0 	str	x0, [sp, #32]
  2035c8:	f94017e0 	ldr	x0, [sp, #40]
  2035cc:	91000402 	add	x2, x0, #0x1
  2035d0:	f90017e2 	str	x2, [sp, #40]
  2035d4:	39400021 	ldrb	w1, [x1]
  2035d8:	39000001 	strb	w1, [x0]
  2035dc:	f94007e0 	ldr	x0, [sp, #8]
  2035e0:	d1000400 	sub	x0, x0, #0x1
  2035e4:	f90007e0 	str	x0, [sp, #8]
/Users/jd/trustworthy-systems/arinc/ARINC/t1_prototype/microkit_tutorial/prototype_t1/build/../util.h:163 (discriminator 1)
  2035e8:	f94007e0 	ldr	x0, [sp, #8]
  2035ec:	f100001f 	cmp	x0, #0x0
  2035f0:	54fffe61 	b.ne	2035bc <memcpy+0x24>  // b.any
/Users/jd/trustworthy-systems/arinc/ARINC/t1_prototype/microkit_tutorial/prototype_t1/build/../util.h:164
  2035f4:	f9400fe0 	ldr	x0, [sp, #24]
/Users/jd/trustworthy-systems/arinc/ARINC/t1_prototype/microkit_tutorial/prototype_t1/build/../util.h:165
  2035f8:	9100c3ff 	add	sp, sp, #0x30
  2035fc:	d65f03c0 	ret

0000000000203600 <memset>:
memset():
/Users/jd/trustworthy-systems/arinc/ARINC/t1_prototype/microkit_tutorial/prototype_t1/build/../util.h:168
  203600:	d100c3ff 	sub	sp, sp, #0x30
  203604:	f9000fe0 	str	x0, [sp, #24]
  203608:	b90017e1 	str	w1, [sp, #20]
  20360c:	f90007e2 	str	x2, [sp, #8]
/Users/jd/trustworthy-systems/arinc/ARINC/t1_prototype/microkit_tutorial/prototype_t1/build/../util.h:169
  203610:	f9400fe0 	ldr	x0, [sp, #24]
  203614:	f90017e0 	str	x0, [sp, #40]
/Users/jd/trustworthy-systems/arinc/ARINC/t1_prototype/microkit_tutorial/prototype_t1/build/../util.h:170
  203618:	1400000b 	b	203644 <memset+0x44>
/Users/jd/trustworthy-systems/arinc/ARINC/t1_prototype/microkit_tutorial/prototype_t1/build/../util.h:170 (discriminator 2)
  20361c:	b94017e0 	ldr	w0, [sp, #20]
  203620:	12001c01 	and	w1, w0, #0xff
  203624:	f94017e0 	ldr	x0, [sp, #40]
  203628:	39000001 	strb	w1, [x0]
  20362c:	f94007e0 	ldr	x0, [sp, #8]
  203630:	d1000400 	sub	x0, x0, #0x1
  203634:	f90007e0 	str	x0, [sp, #8]
  203638:	f94017e0 	ldr	x0, [sp, #40]
  20363c:	91000400 	add	x0, x0, #0x1
  203640:	f90017e0 	str	x0, [sp, #40]
/Users/jd/trustworthy-systems/arinc/ARINC/t1_prototype/microkit_tutorial/prototype_t1/build/../util.h:170 (discriminator 1)
  203644:	f94007e0 	ldr	x0, [sp, #8]
  203648:	f100001f 	cmp	x0, #0x0
  20364c:	54fffe81 	b.ne	20361c <memset+0x1c>  // b.any
/Users/jd/trustworthy-systems/arinc/ARINC/t1_prototype/microkit_tutorial/prototype_t1/build/../util.h:171
  203650:	f9400fe0 	ldr	x0, [sp, #24]
/Users/jd/trustworthy-systems/arinc/ARINC/t1_prototype/microkit_tutorial/prototype_t1/build/../util.h:172
  203654:	9100c3ff 	add	sp, sp, #0x30
  203658:	d65f03c0 	ret

000000000020365c <assert_fail>:
assert_fail():
/Users/jd/trustworthy-systems/arinc/ARINC/t1_prototype/microkit_tutorial/prototype_t1/build/../util.h:179
  20365c:	a9bd7bfd 	stp	x29, x30, [sp, #-48]!
  203660:	910003fd 	mov	x29, sp
  203664:	f90017e0 	str	x0, [sp, #40]
  203668:	f90013e1 	str	x1, [sp, #32]
  20366c:	b9001fe2 	str	w2, [sp, #28]
  203670:	f9000be3 	str	x3, [sp, #16]
/Users/jd/trustworthy-systems/arinc/ARINC/t1_prototype/microkit_tutorial/prototype_t1/build/../util.h:180
  203674:	f9400be4 	ldr	x4, [sp, #16]
  203678:	b9401fe3 	ldr	w3, [sp, #28]
  20367c:	f94013e2 	ldr	x2, [sp, #32]
  203680:	f94017e1 	ldr	x1, [sp, #40]
  203684:	b0000000 	adrp	x0, 204000 <main+0xc0>
  203688:	9120e000 	add	x0, x0, #0x838
  20368c:	97fffc2b 	bl	202738 <printf_>
/Users/jd/trustworthy-systems/arinc/ARINC/t1_prototype/microkit_tutorial/prototype_t1/build/../util.h:181
  203690:	d503201f 	nop
  203694:	17ffffff 	b	203690 <assert_fail+0x34>

0000000000203698 <_putchar>:
_putchar():
/Users/jd/trustworthy-systems/arinc/ARINC/t1_prototype/microkit_tutorial/prototype_t1/build/../util.c:13
  203698:	a9be7bfd 	stp	x29, x30, [sp, #-32]!
  20369c:	910003fd 	mov	x29, sp
  2036a0:	39007fe0 	strb	w0, [sp, #31]
/Users/jd/trustworthy-systems/arinc/ARINC/t1_prototype/microkit_tutorial/prototype_t1/build/../util.c:14
  2036a4:	39407fe0 	ldrb	w0, [sp, #31]
  2036a8:	9400027e 	bl	2040a0 <microkit_dbg_putc>
/Users/jd/trustworthy-systems/arinc/ARINC/t1_prototype/microkit_tutorial/prototype_t1/build/../util.c:15
  2036ac:	d503201f 	nop
  2036b0:	a8c27bfd 	ldp	x29, x30, [sp], #32
  2036b4:	d65f03c0 	ret

00000000002036b8 <__assert_func>:
__assert_func():
/Users/jd/trustworthy-systems/arinc/ARINC/t1_prototype/microkit_tutorial/prototype_t1/build/../util.c:19
  2036b8:	a9bd7bfd 	stp	x29, x30, [sp, #-48]!
  2036bc:	910003fd 	mov	x29, sp
  2036c0:	f90017e0 	str	x0, [sp, #40]
  2036c4:	b90027e1 	str	w1, [sp, #36]
  2036c8:	f9000fe2 	str	x2, [sp, #24]
  2036cc:	f9000be3 	str	x3, [sp, #16]
/Users/jd/trustworthy-systems/arinc/ARINC/t1_prototype/microkit_tutorial/prototype_t1/build/../util.c:20
  2036d0:	b0000000 	adrp	x0, 204000 <main+0xc0>
  2036d4:	9121a000 	add	x0, x0, #0x868
  2036d8:	9400027e 	bl	2040d0 <microkit_dbg_puts>
/Users/jd/trustworthy-systems/arinc/ARINC/t1_prototype/microkit_tutorial/prototype_t1/build/../util.c:21
  2036dc:	f9400be0 	ldr	x0, [sp, #16]
  2036e0:	9400027c 	bl	2040d0 <microkit_dbg_puts>
/Users/jd/trustworthy-systems/arinc/ARINC/t1_prototype/microkit_tutorial/prototype_t1/build/../util.c:22
  2036e4:	b0000000 	adrp	x0, 204000 <main+0xc0>
  2036e8:	9121e000 	add	x0, x0, #0x878
  2036ec:	94000279 	bl	2040d0 <microkit_dbg_puts>
/Users/jd/trustworthy-systems/arinc/ARINC/t1_prototype/microkit_tutorial/prototype_t1/build/../util.c:23
  2036f0:	f94017e0 	ldr	x0, [sp, #40]
  2036f4:	94000277 	bl	2040d0 <microkit_dbg_puts>
/Users/jd/trustworthy-systems/arinc/ARINC/t1_prototype/microkit_tutorial/prototype_t1/build/../util.c:24
  2036f8:	b0000000 	adrp	x0, 204000 <main+0xc0>
  2036fc:	9121e000 	add	x0, x0, #0x878
  203700:	94000274 	bl	2040d0 <microkit_dbg_puts>
/Users/jd/trustworthy-systems/arinc/ARINC/t1_prototype/microkit_tutorial/prototype_t1/build/../util.c:25
  203704:	f9400fe0 	ldr	x0, [sp, #24]
  203708:	94000272 	bl	2040d0 <microkit_dbg_puts>
/Users/jd/trustworthy-systems/arinc/ARINC/t1_prototype/microkit_tutorial/prototype_t1/build/../util.c:26
  20370c:	b0000000 	adrp	x0, 204000 <main+0xc0>
  203710:	91220000 	add	x0, x0, #0x880
  203714:	9400026f 	bl	2040d0 <microkit_dbg_puts>
/Users/jd/trustworthy-systems/arinc/ARINC/t1_prototype/microkit_tutorial/prototype_t1/build/../util.c:27
  203718:	d503201f 	nop
  20371c:	17ffffff 	b	203718 <__assert_func+0x60>

0000000000203720 <set_partition_state>:
set_partition_state():
/Users/jd/trustworthy-systems/arinc/ARINC/t1_prototype/microkit_tutorial/prototype_t1/build/../partition.c:3
  203720:	d10043ff 	sub	sp, sp, #0x10
  203724:	f90007e0 	str	x0, [sp, #8]
  203728:	b90007e1 	str	w1, [sp, #4]
/Users/jd/trustworthy-systems/arinc/ARINC/t1_prototype/microkit_tutorial/prototype_t1/build/../partition.c:4
  20372c:	f94007e0 	ldr	x0, [sp, #8]
  203730:	b94007e1 	ldr	w1, [sp, #4]
  203734:	b9000001 	str	w1, [x0]
/Users/jd/trustworthy-systems/arinc/ARINC/t1_prototype/microkit_tutorial/prototype_t1/build/../partition.c:5
  203738:	d503201f 	nop
  20373c:	910043ff 	add	sp, sp, #0x10
  203740:	d65f03c0 	ret

0000000000203744 <seL4_MessageInfo_new>:
seL4_MessageInfo_new():
/Users/jd/trustworthy-systems/microkit-sdk-1.4.1/board/qemu_virt_aarch64/debug/include/sel4/shared_types_gen.h:318
  203744:	a9bc7bfd 	stp	x29, x30, [sp, #-64]!
  203748:	910003fd 	mov	x29, sp
  20374c:	f90017e0 	str	x0, [sp, #40]
  203750:	f90013e1 	str	x1, [sp, #32]
  203754:	f9000fe2 	str	x2, [sp, #24]
  203758:	f9000be3 	str	x3, [sp, #16]
/Users/jd/trustworthy-systems/microkit-sdk-1.4.1/board/qemu_virt_aarch64/debug/include/sel4/shared_types_gen.h:322
  20375c:	f94017e1 	ldr	x1, [sp, #40]
  203760:	92fffe00 	mov	x0, #0xfffffffffffff       	// #4503599627370495
  203764:	eb00003f 	cmp	x1, x0
  203768:	54000129 	b.ls	20378c <seL4_MessageInfo_new+0x48>  // b.plast
/Users/jd/trustworthy-systems/microkit-sdk-1.4.1/board/qemu_virt_aarch64/debug/include/sel4/shared_types_gen.h:322 (discriminator 1)
  20376c:	b0000000 	adrp	x0, 204000 <main+0xc0>
  203770:	912d2003 	add	x3, x0, #0xb48
  203774:	52802842 	mov	w2, #0x142                 	// #322
  203778:	b0000000 	adrp	x0, 204000 <main+0xc0>
  20377c:	9122a001 	add	x1, x0, #0x8a8
  203780:	b0000000 	adrp	x0, 204000 <main+0xc0>
  203784:	91246000 	add	x0, x0, #0x918
  203788:	94000262 	bl	204110 <__assert_fail>
/Users/jd/trustworthy-systems/microkit-sdk-1.4.1/board/qemu_virt_aarch64/debug/include/sel4/shared_types_gen.h:323
  20378c:	f94013e0 	ldr	x0, [sp, #32]
  203790:	f1001c1f 	cmp	x0, #0x7
  203794:	54000129 	b.ls	2037b8 <seL4_MessageInfo_new+0x74>  // b.plast
/Users/jd/trustworthy-systems/microkit-sdk-1.4.1/board/qemu_virt_aarch64/debug/include/sel4/shared_types_gen.h:323 (discriminator 1)
  203798:	b0000000 	adrp	x0, 204000 <main+0xc0>
  20379c:	912d2003 	add	x3, x0, #0xb48
  2037a0:	52802862 	mov	w2, #0x143                 	// #323
  2037a4:	b0000000 	adrp	x0, 204000 <main+0xc0>
  2037a8:	9122a001 	add	x1, x0, #0x8a8
  2037ac:	b0000000 	adrp	x0, 204000 <main+0xc0>
  2037b0:	9125a000 	add	x0, x0, #0x968
  2037b4:	94000257 	bl	204110 <__assert_fail>
/Users/jd/trustworthy-systems/microkit-sdk-1.4.1/board/qemu_virt_aarch64/debug/include/sel4/shared_types_gen.h:324
  2037b8:	f9400fe0 	ldr	x0, [sp, #24]
  2037bc:	f1000c1f 	cmp	x0, #0x3
  2037c0:	54000129 	b.ls	2037e4 <seL4_MessageInfo_new+0xa0>  // b.plast
/Users/jd/trustworthy-systems/microkit-sdk-1.4.1/board/qemu_virt_aarch64/debug/include/sel4/shared_types_gen.h:324 (discriminator 1)
  2037c4:	b0000000 	adrp	x0, 204000 <main+0xc0>
  2037c8:	912d2003 	add	x3, x0, #0xb48
  2037cc:	52802882 	mov	w2, #0x144                 	// #324
  2037d0:	b0000000 	adrp	x0, 204000 <main+0xc0>
  2037d4:	9122a001 	add	x1, x0, #0x8a8
  2037d8:	b0000000 	adrp	x0, 204000 <main+0xc0>
  2037dc:	9126e000 	add	x0, x0, #0x9b8
  2037e0:	9400024c 	bl	204110 <__assert_fail>
/Users/jd/trustworthy-systems/microkit-sdk-1.4.1/board/qemu_virt_aarch64/debug/include/sel4/shared_types_gen.h:325
  2037e4:	f9400be0 	ldr	x0, [sp, #16]
  2037e8:	f101fc1f 	cmp	x0, #0x7f
  2037ec:	54000129 	b.ls	203810 <seL4_MessageInfo_new+0xcc>  // b.plast
/Users/jd/trustworthy-systems/microkit-sdk-1.4.1/board/qemu_virt_aarch64/debug/include/sel4/shared_types_gen.h:325 (discriminator 1)
  2037f0:	b0000000 	adrp	x0, 204000 <main+0xc0>
  2037f4:	912d2003 	add	x3, x0, #0xb48
  2037f8:	528028a2 	mov	w2, #0x145                 	// #325
  2037fc:	b0000000 	adrp	x0, 204000 <main+0xc0>
  203800:	9122a001 	add	x1, x0, #0x8a8
  203804:	b0000000 	adrp	x0, 204000 <main+0xc0>
  203808:	91280000 	add	x0, x0, #0xa00
  20380c:	94000241 	bl	204110 <__assert_fail>
/Users/jd/trustworthy-systems/microkit-sdk-1.4.1/board/qemu_virt_aarch64/debug/include/sel4/shared_types_gen.h:328
  203810:	f94017e0 	ldr	x0, [sp, #40]
  203814:	d374cc01 	lsl	x1, x0, #12
/Users/jd/trustworthy-systems/microkit-sdk-1.4.1/board/qemu_virt_aarch64/debug/include/sel4/shared_types_gen.h:329
  203818:	f94013e0 	ldr	x0, [sp, #32]
  20381c:	d377d800 	lsl	x0, x0, #9
  203820:	92770800 	and	x0, x0, #0xe00
  203824:	aa000021 	orr	x1, x1, x0
/Users/jd/trustworthy-systems/microkit-sdk-1.4.1/board/qemu_virt_aarch64/debug/include/sel4/shared_types_gen.h:330
  203828:	f9400fe0 	ldr	x0, [sp, #24]
  20382c:	d379e000 	lsl	x0, x0, #7
  203830:	92790400 	and	x0, x0, #0x180
  203834:	aa000021 	orr	x1, x1, x0
/Users/jd/trustworthy-systems/microkit-sdk-1.4.1/board/qemu_virt_aarch64/debug/include/sel4/shared_types_gen.h:331
  203838:	f9400be0 	ldr	x0, [sp, #16]
  20383c:	92401800 	and	x0, x0, #0x7f
  203840:	aa000020 	orr	x0, x1, x0
/Users/jd/trustworthy-systems/microkit-sdk-1.4.1/board/qemu_virt_aarch64/debug/include/sel4/shared_types_gen.h:327
  203844:	f9001fe0 	str	x0, [sp, #56]
/Users/jd/trustworthy-systems/microkit-sdk-1.4.1/board/qemu_virt_aarch64/debug/include/sel4/shared_types_gen.h:333
  203848:	f9401fe0 	ldr	x0, [sp, #56]
/Users/jd/trustworthy-systems/microkit-sdk-1.4.1/board/qemu_virt_aarch64/debug/include/sel4/shared_types_gen.h:334
  20384c:	a8c47bfd 	ldp	x29, x30, [sp], #64
  203850:	d65f03c0 	ret

0000000000203854 <seL4_GetIPCBuffer>:
seL4_GetIPCBuffer():
/Users/jd/trustworthy-systems/microkit-sdk-1.4.1/board/qemu_virt_aarch64/debug/include/sel4/functions.h:43
  203854:	f0000000 	adrp	x0, 206000 <plist_head>
  203858:	91002000 	add	x0, x0, #0x8
  20385c:	f9400000 	ldr	x0, [x0]
/Users/jd/trustworthy-systems/microkit-sdk-1.4.1/board/qemu_virt_aarch64/debug/include/sel4/functions.h:44
  203860:	d65f03c0 	ret

0000000000203864 <seL4_GetMR>:
seL4_GetMR():
/Users/jd/trustworthy-systems/microkit-sdk-1.4.1/board/qemu_virt_aarch64/debug/include/sel4/functions.h:47
  203864:	a9be7bfd 	stp	x29, x30, [sp, #-32]!
  203868:	910003fd 	mov	x29, sp
  20386c:	b9001fe0 	str	w0, [sp, #28]
/Users/jd/trustworthy-systems/microkit-sdk-1.4.1/board/qemu_virt_aarch64/debug/include/sel4/functions.h:48
  203870:	97fffff9 	bl	203854 <seL4_GetIPCBuffer>
  203874:	aa0003e1 	mov	x1, x0
/Users/jd/trustworthy-systems/microkit-sdk-1.4.1/board/qemu_virt_aarch64/debug/include/sel4/functions.h:48 (discriminator 1)
  203878:	b9801fe0 	ldrsw	x0, [sp, #28]
  20387c:	d37df000 	lsl	x0, x0, #3
  203880:	8b000020 	add	x0, x1, x0
  203884:	f9400400 	ldr	x0, [x0, #8]
/Users/jd/trustworthy-systems/microkit-sdk-1.4.1/board/qemu_virt_aarch64/debug/include/sel4/functions.h:49
  203888:	a8c27bfd 	ldp	x29, x30, [sp], #32
  20388c:	d65f03c0 	ret

0000000000203890 <seL4_SetMR>:
seL4_SetMR():
/Users/jd/trustworthy-systems/microkit-sdk-1.4.1/board/qemu_virt_aarch64/debug/include/sel4/functions.h:52
  203890:	a9be7bfd 	stp	x29, x30, [sp, #-32]!
  203894:	910003fd 	mov	x29, sp
  203898:	b9001fe0 	str	w0, [sp, #28]
  20389c:	f9000be1 	str	x1, [sp, #16]
/Users/jd/trustworthy-systems/microkit-sdk-1.4.1/board/qemu_virt_aarch64/debug/include/sel4/functions.h:53
  2038a0:	97ffffed 	bl	203854 <seL4_GetIPCBuffer>
  2038a4:	aa0003e1 	mov	x1, x0
/Users/jd/trustworthy-systems/microkit-sdk-1.4.1/board/qemu_virt_aarch64/debug/include/sel4/functions.h:53 (discriminator 1)
  2038a8:	b9801fe0 	ldrsw	x0, [sp, #28]
  2038ac:	d37df000 	lsl	x0, x0, #3
  2038b0:	8b000020 	add	x0, x1, x0
  2038b4:	f9400be1 	ldr	x1, [sp, #16]
  2038b8:	f9000401 	str	x1, [x0, #8]
/Users/jd/trustworthy-systems/microkit-sdk-1.4.1/board/qemu_virt_aarch64/debug/include/sel4/functions.h:54
  2038bc:	d503201f 	nop
  2038c0:	a8c27bfd 	ldp	x29, x30, [sp], #32
  2038c4:	d65f03c0 	ret

00000000002038c8 <arm_sys_send_null>:
arm_sys_send_null():
/Users/jd/trustworthy-systems/microkit-sdk-1.4.1/board/qemu_virt_aarch64/debug/include/sel4/sel4_arch/syscalls.h:103
  2038c8:	d10083ff 	sub	sp, sp, #0x20
  2038cc:	f9000fe0 	str	x0, [sp, #24]
  2038d0:	f9000be1 	str	x1, [sp, #16]
  2038d4:	f90007e2 	str	x2, [sp, #8]
/Users/jd/trustworthy-systems/microkit-sdk-1.4.1/board/qemu_virt_aarch64/debug/include/sel4/sel4_arch/syscalls.h:104
  2038d8:	f9400be0 	ldr	x0, [sp, #16]
/Users/jd/trustworthy-systems/microkit-sdk-1.4.1/board/qemu_virt_aarch64/debug/include/sel4/sel4_arch/syscalls.h:105
  2038dc:	f94007e1 	ldr	x1, [sp, #8]
/Users/jd/trustworthy-systems/microkit-sdk-1.4.1/board/qemu_virt_aarch64/debug/include/sel4/sel4_arch/syscalls.h:108
  2038e0:	f9400fe7 	ldr	x7, [sp, #24]
/Users/jd/trustworthy-systems/microkit-sdk-1.4.1/board/qemu_virt_aarch64/debug/include/sel4/sel4_arch/syscalls.h:109
  2038e4:	d4000001 	svc	#0x0
/Users/jd/trustworthy-systems/microkit-sdk-1.4.1/board/qemu_virt_aarch64/debug/include/sel4/sel4_arch/syscalls.h:114
  2038e8:	d503201f 	nop
  2038ec:	910083ff 	add	sp, sp, #0x20
  2038f0:	d65f03c0 	ret

00000000002038f4 <arm_sys_send_recv>:
arm_sys_send_recv():
/Users/jd/trustworthy-systems/microkit-sdk-1.4.1/board/qemu_virt_aarch64/debug/include/sel4/sel4_arch/syscalls.h:149
  2038f4:	d10103ff 	sub	sp, sp, #0x40
  2038f8:	f9001fe0 	str	x0, [sp, #56]
  2038fc:	f9001be1 	str	x1, [sp, #48]
  203900:	f90017e2 	str	x2, [sp, #40]
  203904:	f90013e3 	str	x3, [sp, #32]
  203908:	f9000fe4 	str	x4, [sp, #24]
  20390c:	f9000be5 	str	x5, [sp, #16]
  203910:	f90007e6 	str	x6, [sp, #8]
  203914:	f90003e7 	str	x7, [sp]
/Users/jd/trustworthy-systems/microkit-sdk-1.4.1/board/qemu_virt_aarch64/debug/include/sel4/sel4_arch/syscalls.h:150
  203918:	f9401be0 	ldr	x0, [sp, #48]
/Users/jd/trustworthy-systems/microkit-sdk-1.4.1/board/qemu_virt_aarch64/debug/include/sel4/sel4_arch/syscalls.h:151
  20391c:	f94013e1 	ldr	x1, [sp, #32]
/Users/jd/trustworthy-systems/microkit-sdk-1.4.1/board/qemu_virt_aarch64/debug/include/sel4/sel4_arch/syscalls.h:154
  203920:	f9400be2 	ldr	x2, [sp, #16]
  203924:	f9400042 	ldr	x2, [x2]
/Users/jd/trustworthy-systems/microkit-sdk-1.4.1/board/qemu_virt_aarch64/debug/include/sel4/sel4_arch/syscalls.h:155
  203928:	f94007e3 	ldr	x3, [sp, #8]
  20392c:	f9400063 	ldr	x3, [x3]
/Users/jd/trustworthy-systems/microkit-sdk-1.4.1/board/qemu_virt_aarch64/debug/include/sel4/sel4_arch/syscalls.h:156
  203930:	f94003e4 	ldr	x4, [sp]
  203934:	f9400084 	ldr	x4, [x4]
/Users/jd/trustworthy-systems/microkit-sdk-1.4.1/board/qemu_virt_aarch64/debug/include/sel4/sel4_arch/syscalls.h:157
  203938:	f94023e5 	ldr	x5, [sp, #64]
  20393c:	f94000a5 	ldr	x5, [x5]
/Users/jd/trustworthy-systems/microkit-sdk-1.4.1/board/qemu_virt_aarch64/debug/include/sel4/sel4_arch/syscalls.h:158
  203940:	f94027e6 	ldr	x6, [sp, #72]
/Users/jd/trustworthy-systems/microkit-sdk-1.4.1/board/qemu_virt_aarch64/debug/include/sel4/sel4_arch/syscalls.h:161
  203944:	f9401fe7 	ldr	x7, [sp, #56]
/Users/jd/trustworthy-systems/microkit-sdk-1.4.1/board/qemu_virt_aarch64/debug/include/sel4/sel4_arch/syscalls.h:162
  203948:	d4000001 	svc	#0x0
/Users/jd/trustworthy-systems/microkit-sdk-1.4.1/board/qemu_virt_aarch64/debug/include/sel4/sel4_arch/syscalls.h:169
  20394c:	aa0103e6 	mov	x6, x1
  203950:	f9400fe1 	ldr	x1, [sp, #24]
  203954:	f9000026 	str	x6, [x1]
/Users/jd/trustworthy-systems/microkit-sdk-1.4.1/board/qemu_virt_aarch64/debug/include/sel4/sel4_arch/syscalls.h:170
  203958:	aa0003e1 	mov	x1, x0
  20395c:	f94017e0 	ldr	x0, [sp, #40]
  203960:	f9000001 	str	x1, [x0]
/Users/jd/trustworthy-systems/microkit-sdk-1.4.1/board/qemu_virt_aarch64/debug/include/sel4/sel4_arch/syscalls.h:171
  203964:	aa0203e1 	mov	x1, x2
  203968:	f9400be0 	ldr	x0, [sp, #16]
  20396c:	f9000001 	str	x1, [x0]
/Users/jd/trustworthy-systems/microkit-sdk-1.4.1/board/qemu_virt_aarch64/debug/include/sel4/sel4_arch/syscalls.h:172
  203970:	aa0303e1 	mov	x1, x3
  203974:	f94007e0 	ldr	x0, [sp, #8]
  203978:	f9000001 	str	x1, [x0]
/Users/jd/trustworthy-systems/microkit-sdk-1.4.1/board/qemu_virt_aarch64/debug/include/sel4/sel4_arch/syscalls.h:173
  20397c:	aa0403e1 	mov	x1, x4
  203980:	f94003e0 	ldr	x0, [sp]
  203984:	f9000001 	str	x1, [x0]
/Users/jd/trustworthy-systems/microkit-sdk-1.4.1/board/qemu_virt_aarch64/debug/include/sel4/sel4_arch/syscalls.h:174
  203988:	aa0503e1 	mov	x1, x5
  20398c:	f94023e0 	ldr	x0, [sp, #64]
  203990:	f9000001 	str	x1, [x0]
/Users/jd/trustworthy-systems/microkit-sdk-1.4.1/board/qemu_virt_aarch64/debug/include/sel4/sel4_arch/syscalls.h:175
  203994:	d503201f 	nop
  203998:	910103ff 	add	sp, sp, #0x40
  20399c:	d65f03c0 	ret

00000000002039a0 <seL4_Signal>:
seL4_Signal():
/Users/jd/trustworthy-systems/microkit-sdk-1.4.1/board/qemu_virt_aarch64/debug/include/sel4/arch/syscalls.h:71
  2039a0:	a9be7bfd 	stp	x29, x30, [sp, #-32]!
  2039a4:	910003fd 	mov	x29, sp
  2039a8:	f9000fe0 	str	x0, [sp, #24]
/Users/jd/trustworthy-systems/microkit-sdk-1.4.1/board/qemu_virt_aarch64/debug/include/sel4/arch/syscalls.h:72
  2039ac:	d2800003 	mov	x3, #0x0                   	// #0
  2039b0:	d2800002 	mov	x2, #0x0                   	// #0
  2039b4:	d2800001 	mov	x1, #0x0                   	// #0
  2039b8:	d2800000 	mov	x0, #0x0                   	// #0
  2039bc:	97ffff62 	bl	203744 <seL4_MessageInfo_new>
/Users/jd/trustworthy-systems/microkit-sdk-1.4.1/board/qemu_virt_aarch64/debug/include/sel4/arch/syscalls.h:72 (discriminator 1)
  2039c0:	aa0003e2 	mov	x2, x0
  2039c4:	f9400fe1 	ldr	x1, [sp, #24]
  2039c8:	92800080 	mov	x0, #0xfffffffffffffffb    	// #-5
  2039cc:	97ffffbf 	bl	2038c8 <arm_sys_send_null>
/Users/jd/trustworthy-systems/microkit-sdk-1.4.1/board/qemu_virt_aarch64/debug/include/sel4/arch/syscalls.h:73
  2039d0:	d503201f 	nop
  2039d4:	a8c27bfd 	ldp	x29, x30, [sp], #32
  2039d8:	d65f03c0 	ret

00000000002039dc <seL4_Call>:
seL4_Call():
/Users/jd/trustworthy-systems/microkit-sdk-1.4.1/board/qemu_virt_aarch64/debug/include/sel4/arch/syscalls.h:169
  2039dc:	d10183ff 	sub	sp, sp, #0x60
  2039e0:	a9017bfd 	stp	x29, x30, [sp, #16]
  2039e4:	910043fd 	add	x29, sp, #0x10
  2039e8:	f90017e0 	str	x0, [sp, #40]
  2039ec:	f90013e1 	str	x1, [sp, #32]
/Users/jd/trustworthy-systems/microkit-sdk-1.4.1/board/qemu_virt_aarch64/debug/include/sel4/arch/syscalls.h:171
  2039f0:	52800000 	mov	w0, #0x0                   	// #0
  2039f4:	97ffff9c 	bl	203864 <seL4_GetMR>
/Users/jd/trustworthy-systems/microkit-sdk-1.4.1/board/qemu_virt_aarch64/debug/include/sel4/arch/syscalls.h:171 (discriminator 1)
  2039f8:	f9002be0 	str	x0, [sp, #80]
/Users/jd/trustworthy-systems/microkit-sdk-1.4.1/board/qemu_virt_aarch64/debug/include/sel4/arch/syscalls.h:172
  2039fc:	52800020 	mov	w0, #0x1                   	// #1
  203a00:	97ffff99 	bl	203864 <seL4_GetMR>
/Users/jd/trustworthy-systems/microkit-sdk-1.4.1/board/qemu_virt_aarch64/debug/include/sel4/arch/syscalls.h:172 (discriminator 1)
  203a04:	f90027e0 	str	x0, [sp, #72]
/Users/jd/trustworthy-systems/microkit-sdk-1.4.1/board/qemu_virt_aarch64/debug/include/sel4/arch/syscalls.h:173
  203a08:	52800040 	mov	w0, #0x2                   	// #2
  203a0c:	97ffff96 	bl	203864 <seL4_GetMR>
/Users/jd/trustworthy-systems/microkit-sdk-1.4.1/board/qemu_virt_aarch64/debug/include/sel4/arch/syscalls.h:173 (discriminator 1)
  203a10:	f90023e0 	str	x0, [sp, #64]
/Users/jd/trustworthy-systems/microkit-sdk-1.4.1/board/qemu_virt_aarch64/debug/include/sel4/arch/syscalls.h:174
  203a14:	52800060 	mov	w0, #0x3                   	// #3
  203a18:	97ffff93 	bl	203864 <seL4_GetMR>
/Users/jd/trustworthy-systems/microkit-sdk-1.4.1/board/qemu_virt_aarch64/debug/include/sel4/arch/syscalls.h:174 (discriminator 1)
  203a1c:	f9001fe0 	str	x0, [sp, #56]
/Users/jd/trustworthy-systems/microkit-sdk-1.4.1/board/qemu_virt_aarch64/debug/include/sel4/arch/syscalls.h:176
  203a20:	f94017e1 	ldr	x1, [sp, #40]
  203a24:	f94013e3 	ldr	x3, [sp, #32]
  203a28:	910103e7 	add	x7, sp, #0x40
  203a2c:	910123e6 	add	x6, sp, #0x48
  203a30:	910143e5 	add	x5, sp, #0x50
  203a34:	910163e4 	add	x4, sp, #0x58
  203a38:	9100a3e2 	add	x2, sp, #0x28
  203a3c:	f90007ff 	str	xzr, [sp, #8]
  203a40:	9100e3e0 	add	x0, sp, #0x38
  203a44:	f90003e0 	str	x0, [sp]
  203a48:	92800000 	mov	x0, #0xffffffffffffffff    	// #-1
  203a4c:	97ffffaa 	bl	2038f4 <arm_sys_send_recv>
/Users/jd/trustworthy-systems/microkit-sdk-1.4.1/board/qemu_virt_aarch64/debug/include/sel4/arch/syscalls.h:179
  203a50:	f9402be0 	ldr	x0, [sp, #80]
  203a54:	aa0003e1 	mov	x1, x0
  203a58:	52800000 	mov	w0, #0x0                   	// #0
  203a5c:	97ffff8d 	bl	203890 <seL4_SetMR>
/Users/jd/trustworthy-systems/microkit-sdk-1.4.1/board/qemu_virt_aarch64/debug/include/sel4/arch/syscalls.h:180
  203a60:	f94027e0 	ldr	x0, [sp, #72]
  203a64:	aa0003e1 	mov	x1, x0
  203a68:	52800020 	mov	w0, #0x1                   	// #1
  203a6c:	97ffff89 	bl	203890 <seL4_SetMR>
/Users/jd/trustworthy-systems/microkit-sdk-1.4.1/board/qemu_virt_aarch64/debug/include/sel4/arch/syscalls.h:181
  203a70:	f94023e0 	ldr	x0, [sp, #64]
  203a74:	aa0003e1 	mov	x1, x0
  203a78:	52800040 	mov	w0, #0x2                   	// #2
  203a7c:	97ffff85 	bl	203890 <seL4_SetMR>
/Users/jd/trustworthy-systems/microkit-sdk-1.4.1/board/qemu_virt_aarch64/debug/include/sel4/arch/syscalls.h:182
  203a80:	f9401fe0 	ldr	x0, [sp, #56]
  203a84:	aa0003e1 	mov	x1, x0
  203a88:	52800060 	mov	w0, #0x3                   	// #3
  203a8c:	97ffff81 	bl	203890 <seL4_SetMR>
/Users/jd/trustworthy-systems/microkit-sdk-1.4.1/board/qemu_virt_aarch64/debug/include/sel4/arch/syscalls.h:184
  203a90:	f9402fe0 	ldr	x0, [sp, #88]
/Users/jd/trustworthy-systems/microkit-sdk-1.4.1/board/qemu_virt_aarch64/debug/include/sel4/arch/syscalls.h:185
  203a94:	a9417bfd 	ldp	x29, x30, [sp, #16]
  203a98:	910183ff 	add	sp, sp, #0x60
  203a9c:	d65f03c0 	ret

0000000000203aa0 <microkit_notify>:
microkit_notify():
/Users/jd/trustworthy-systems/microkit-sdk-1.4.1/board/qemu_virt_aarch64/debug/include/microkit.h:69
  203aa0:	a9be7bfd 	stp	x29, x30, [sp, #-32]!
  203aa4:	910003fd 	mov	x29, sp
  203aa8:	b9001fe0 	str	w0, [sp, #28]
/Users/jd/trustworthy-systems/microkit-sdk-1.4.1/board/qemu_virt_aarch64/debug/include/microkit.h:70
  203aac:	b9401fe0 	ldr	w0, [sp, #28]
  203ab0:	11002800 	add	w0, w0, #0xa
  203ab4:	2a0003e0 	mov	w0, w0
  203ab8:	97ffffba 	bl	2039a0 <seL4_Signal>
/Users/jd/trustworthy-systems/microkit-sdk-1.4.1/board/qemu_virt_aarch64/debug/include/microkit.h:71
  203abc:	d503201f 	nop
  203ac0:	a8c27bfd 	ldp	x29, x30, [sp], #32
  203ac4:	d65f03c0 	ret

0000000000203ac8 <microkit_ppcall>:
microkit_ppcall():
/Users/jd/trustworthy-systems/microkit-sdk-1.4.1/board/qemu_virt_aarch64/debug/include/microkit.h:108
  203ac8:	a9be7bfd 	stp	x29, x30, [sp, #-32]!
  203acc:	910003fd 	mov	x29, sp
  203ad0:	b9001fe0 	str	w0, [sp, #28]
  203ad4:	f9000be1 	str	x1, [sp, #16]
/Users/jd/trustworthy-systems/microkit-sdk-1.4.1/board/qemu_virt_aarch64/debug/include/microkit.h:109
  203ad8:	b9401fe0 	ldr	w0, [sp, #28]
  203adc:	11012800 	add	w0, w0, #0x4a
  203ae0:	2a0003e0 	mov	w0, w0
  203ae4:	f9400be1 	ldr	x1, [sp, #16]
  203ae8:	97ffffbd 	bl	2039dc <seL4_Call>
/Users/jd/trustworthy-systems/microkit-sdk-1.4.1/board/qemu_virt_aarch64/debug/include/microkit.h:110
  203aec:	a8c27bfd 	ldp	x29, x30, [sp], #32
  203af0:	d65f03c0 	ret

0000000000203af4 <microkit_msginfo_new>:
microkit_msginfo_new():
/Users/jd/trustworthy-systems/microkit-sdk-1.4.1/board/qemu_virt_aarch64/debug/include/microkit.h:113
  203af4:	a9be7bfd 	stp	x29, x30, [sp, #-32]!
  203af8:	910003fd 	mov	x29, sp
  203afc:	f9000fe0 	str	x0, [sp, #24]
  203b00:	79002fe1 	strh	w1, [sp, #22]
/Users/jd/trustworthy-systems/microkit-sdk-1.4.1/board/qemu_virt_aarch64/debug/include/microkit.h:114
  203b04:	79402fe0 	ldrh	w0, [sp, #22]
  203b08:	aa0003e3 	mov	x3, x0
  203b0c:	d2800002 	mov	x2, #0x0                   	// #0
  203b10:	d2800001 	mov	x1, #0x0                   	// #0
  203b14:	f9400fe0 	ldr	x0, [sp, #24]
  203b18:	97ffff0b 	bl	203744 <seL4_MessageInfo_new>
/Users/jd/trustworthy-systems/microkit-sdk-1.4.1/board/qemu_virt_aarch64/debug/include/microkit.h:115
  203b1c:	a8c27bfd 	ldp	x29, x30, [sp], #32
  203b20:	d65f03c0 	ret

0000000000203b24 <microkit_mr_set>:
microkit_mr_set():
/Users/jd/trustworthy-systems/microkit-sdk-1.4.1/board/qemu_virt_aarch64/debug/include/microkit.h:128
  203b24:	a9be7bfd 	stp	x29, x30, [sp, #-32]!
  203b28:	910003fd 	mov	x29, sp
  203b2c:	39007fe0 	strb	w0, [sp, #31]
  203b30:	f9000be1 	str	x1, [sp, #16]
/Users/jd/trustworthy-systems/microkit-sdk-1.4.1/board/qemu_virt_aarch64/debug/include/microkit.h:129
  203b34:	39407fe0 	ldrb	w0, [sp, #31]
  203b38:	f9400be1 	ldr	x1, [sp, #16]
  203b3c:	97ffff55 	bl	203890 <seL4_SetMR>
/Users/jd/trustworthy-systems/microkit-sdk-1.4.1/board/qemu_virt_aarch64/debug/include/microkit.h:130
  203b40:	d503201f 	nop
  203b44:	a8c27bfd 	ldp	x29, x30, [sp], #32
  203b48:	d65f03c0 	ret

0000000000203b4c <microkit_mr_get>:
microkit_mr_get():
/Users/jd/trustworthy-systems/microkit-sdk-1.4.1/board/qemu_virt_aarch64/debug/include/microkit.h:133
  203b4c:	a9be7bfd 	stp	x29, x30, [sp, #-32]!
  203b50:	910003fd 	mov	x29, sp
  203b54:	39007fe0 	strb	w0, [sp, #31]
/Users/jd/trustworthy-systems/microkit-sdk-1.4.1/board/qemu_virt_aarch64/debug/include/microkit.h:134
  203b58:	39407fe0 	ldrb	w0, [sp, #31]
  203b5c:	97ffff42 	bl	203864 <seL4_GetMR>
/Users/jd/trustworthy-systems/microkit-sdk-1.4.1/board/qemu_virt_aarch64/debug/include/microkit.h:135
  203b60:	a8c27bfd 	ldp	x29, x30, [sp], #32
  203b64:	d65f03c0 	ret

0000000000203b68 <sddf_timer_set_timeout>:
sddf_timer_set_timeout():
/Users/jd/trustworthy-systems/sddf/include/sddf/timer/client.h:19
  203b68:	a9be7bfd 	stp	x29, x30, [sp, #-32]!
  203b6c:	910003fd 	mov	x29, sp
  203b70:	b9001fe0 	str	w0, [sp, #28]
  203b74:	f9000be1 	str	x1, [sp, #16]
/Users/jd/trustworthy-systems/sddf/include/sddf/timer/client.h:20
  203b78:	f9400be1 	ldr	x1, [sp, #16]
  203b7c:	52800000 	mov	w0, #0x0                   	// #0
  203b80:	97ffffe9 	bl	203b24 <microkit_mr_set>
/Users/jd/trustworthy-systems/sddf/include/sddf/timer/client.h:21
  203b84:	52800021 	mov	w1, #0x1                   	// #1
  203b88:	d2800020 	mov	x0, #0x1                   	// #1
  203b8c:	97ffffda 	bl	203af4 <microkit_msginfo_new>
/Users/jd/trustworthy-systems/sddf/include/sddf/timer/client.h:21 (discriminator 1)
  203b90:	aa0003e1 	mov	x1, x0
  203b94:	b9401fe0 	ldr	w0, [sp, #28]
  203b98:	97ffffcc 	bl	203ac8 <microkit_ppcall>
/Users/jd/trustworthy-systems/sddf/include/sddf/timer/client.h:22
  203b9c:	d503201f 	nop
  203ba0:	a8c27bfd 	ldp	x29, x30, [sp], #32
  203ba4:	d65f03c0 	ret

0000000000203ba8 <get_next_partition_idx>:
get_next_partition_idx():
/Users/jd/trustworthy-systems/arinc/ARINC/t1_prototype/microkit_tutorial/prototype_t1/build/../scheduler.c:52
  203ba8:	f0000000 	adrp	x0, 206000 <plist_head>
  203bac:	91000000 	add	x0, x0, #0x0
  203bb0:	b9400000 	ldr	w0, [x0]
  203bb4:	11000401 	add	w1, w0, #0x1
  203bb8:	f0000000 	adrp	x0, 206000 <plist_head>
  203bbc:	91000000 	add	x0, x0, #0x0
  203bc0:	b9000001 	str	w1, [x0]
/Users/jd/trustworthy-systems/arinc/ARINC/t1_prototype/microkit_tutorial/prototype_t1/build/../scheduler.c:53
  203bc4:	f0000000 	adrp	x0, 206000 <plist_head>
  203bc8:	91000000 	add	x0, x0, #0x0
  203bcc:	b9400000 	ldr	w0, [x0]
/Users/jd/trustworthy-systems/arinc/ARINC/t1_prototype/microkit_tutorial/prototype_t1/build/../scheduler.c:54
  203bd0:	d65f03c0 	ret

0000000000203bd4 <init>:
init():
/Users/jd/trustworthy-systems/arinc/ARINC/t1_prototype/microkit_tutorial/prototype_t1/build/../scheduler.c:61
  203bd4:	a9be7bfd 	stp	x29, x30, [sp, #-32]!
  203bd8:	910003fd 	mov	x29, sp
/Users/jd/trustworthy-systems/arinc/ARINC/t1_prototype/microkit_tutorial/prototype_t1/build/../scheduler.c:63
  203bdc:	f0000000 	adrp	x0, 206000 <plist_head>
  203be0:	91004000 	add	x0, x0, #0x10
  203be4:	f9400001 	ldr	x1, [x0]
  203be8:	f0000000 	adrp	x0, 206000 <plist_head>
  203bec:	91010000 	add	x0, x0, #0x40
  203bf0:	f9000001 	str	x1, [x0]
/Users/jd/trustworthy-systems/arinc/ARINC/t1_prototype/microkit_tutorial/prototype_t1/build/../scheduler.c:64
  203bf4:	f0000000 	adrp	x0, 206000 <plist_head>
  203bf8:	91006000 	add	x0, x0, #0x18
  203bfc:	f9400001 	ldr	x1, [x0]
  203c00:	f0000000 	adrp	x0, 206000 <plist_head>
  203c04:	91010000 	add	x0, x0, #0x40
  203c08:	f9000401 	str	x1, [x0, #8]
/Users/jd/trustworthy-systems/arinc/ARINC/t1_prototype/microkit_tutorial/prototype_t1/build/../scheduler.c:65
  203c0c:	f0000000 	adrp	x0, 206000 <plist_head>
  203c10:	91008000 	add	x0, x0, #0x20
  203c14:	f9400001 	ldr	x1, [x0]
  203c18:	f0000000 	adrp	x0, 206000 <plist_head>
  203c1c:	91010000 	add	x0, x0, #0x40
  203c20:	f9000801 	str	x1, [x0, #16]
/Users/jd/trustworthy-systems/arinc/ARINC/t1_prototype/microkit_tutorial/prototype_t1/build/../scheduler.c:68
  203c24:	b9001fff 	str	wzr, [sp, #28]
  203c28:	1400000a 	b	203c50 <init+0x7c>
/Users/jd/trustworthy-systems/arinc/ARINC/t1_prototype/microkit_tutorial/prototype_t1/build/../scheduler.c:69
  203c2c:	f0000000 	adrp	x0, 206000 <plist_head>
  203c30:	91010000 	add	x0, x0, #0x40
  203c34:	b9801fe1 	ldrsw	x1, [sp, #28]
  203c38:	f8617800 	ldr	x0, [x0, x1, lsl #3]
  203c3c:	52800001 	mov	w1, #0x0                   	// #0
  203c40:	97fffeb8 	bl	203720 <set_partition_state>
/Users/jd/trustworthy-systems/arinc/ARINC/t1_prototype/microkit_tutorial/prototype_t1/build/../scheduler.c:68 (discriminator 3)
  203c44:	b9401fe0 	ldr	w0, [sp, #28]
  203c48:	11000400 	add	w0, w0, #0x1
  203c4c:	b9001fe0 	str	w0, [sp, #28]
/Users/jd/trustworthy-systems/arinc/ARINC/t1_prototype/microkit_tutorial/prototype_t1/build/../scheduler.c:68 (discriminator 1)
  203c50:	b9401fe0 	ldr	w0, [sp, #28]
  203c54:	7100081f 	cmp	w0, #0x2
  203c58:	54fffead 	b.le	203c2c <init+0x58>
/Users/jd/trustworthy-systems/arinc/ARINC/t1_prototype/microkit_tutorial/prototype_t1/build/../scheduler.c:72
  203c5c:	f0000000 	adrp	x0, 206000 <plist_head>
  203c60:	9100a000 	add	x0, x0, #0x28
  203c64:	f9400000 	ldr	x0, [x0]
  203c68:	52800c81 	mov	w1, #0x64                  	// #100
  203c6c:	b9000401 	str	w1, [x0, #4]
/Users/jd/trustworthy-systems/arinc/ARINC/t1_prototype/microkit_tutorial/prototype_t1/build/../scheduler.c:73
  203c70:	f0000000 	adrp	x0, 206000 <plist_head>
  203c74:	9100a000 	add	x0, x0, #0x28
  203c78:	f9400000 	ldr	x0, [x0]
  203c7c:	b900001f 	str	wzr, [x0]
/Users/jd/trustworthy-systems/arinc/ARINC/t1_prototype/microkit_tutorial/prototype_t1/build/../scheduler.c:74
  203c80:	f0000000 	adrp	x0, 206000 <plist_head>
  203c84:	9100c000 	add	x0, x0, #0x30
  203c88:	f9400000 	ldr	x0, [x0]
  203c8c:	52800c81 	mov	w1, #0x64                  	// #100
  203c90:	b9000401 	str	w1, [x0, #4]
/Users/jd/trustworthy-systems/arinc/ARINC/t1_prototype/microkit_tutorial/prototype_t1/build/../scheduler.c:75
  203c94:	f0000000 	adrp	x0, 206000 <plist_head>
  203c98:	9100c000 	add	x0, x0, #0x30
  203c9c:	f9400000 	ldr	x0, [x0]
  203ca0:	52800c81 	mov	w1, #0x64                  	// #100
  203ca4:	b9000001 	str	w1, [x0]
/Users/jd/trustworthy-systems/arinc/ARINC/t1_prototype/microkit_tutorial/prototype_t1/build/../scheduler.c:76
  203ca8:	f0000000 	adrp	x0, 206000 <plist_head>
  203cac:	9100e000 	add	x0, x0, #0x38
  203cb0:	f9400000 	ldr	x0, [x0]
  203cb4:	52800c81 	mov	w1, #0x64                  	// #100
  203cb8:	b9000401 	str	w1, [x0, #4]
/Users/jd/trustworthy-systems/arinc/ARINC/t1_prototype/microkit_tutorial/prototype_t1/build/../scheduler.c:77
  203cbc:	f0000000 	adrp	x0, 206000 <plist_head>
  203cc0:	9100e000 	add	x0, x0, #0x38
  203cc4:	f9400000 	ldr	x0, [x0]
  203cc8:	52800c81 	mov	w1, #0x64                  	// #100
  203ccc:	b9000001 	str	w1, [x0]
/Users/jd/trustworthy-systems/arinc/ARINC/t1_prototype/microkit_tutorial/prototype_t1/build/../scheduler.c:79
  203cd0:	f0000000 	adrp	x0, 206000 <plist_head>
  203cd4:	9100a000 	add	x0, x0, #0x28
  203cd8:	f9400001 	ldr	x1, [x0]
  203cdc:	f0000000 	adrp	x0, 206000 <plist_head>
  203ce0:	91016000 	add	x0, x0, #0x58
  203ce4:	f9000001 	str	x1, [x0]
/Users/jd/trustworthy-systems/arinc/ARINC/t1_prototype/microkit_tutorial/prototype_t1/build/../scheduler.c:80
  203ce8:	f0000000 	adrp	x0, 206000 <plist_head>
  203cec:	9100c000 	add	x0, x0, #0x30
  203cf0:	f9400001 	ldr	x1, [x0]
  203cf4:	f0000000 	adrp	x0, 206000 <plist_head>
  203cf8:	91016000 	add	x0, x0, #0x58
  203cfc:	f9000401 	str	x1, [x0, #8]
/Users/jd/trustworthy-systems/arinc/ARINC/t1_prototype/microkit_tutorial/prototype_t1/build/../scheduler.c:81
  203d00:	f0000000 	adrp	x0, 206000 <plist_head>
  203d04:	9100e000 	add	x0, x0, #0x38
  203d08:	f9400001 	ldr	x1, [x0]
  203d0c:	f0000000 	adrp	x0, 206000 <plist_head>
  203d10:	91016000 	add	x0, x0, #0x58
  203d14:	f9000801 	str	x1, [x0, #16]
/Users/jd/trustworthy-systems/arinc/ARINC/t1_prototype/microkit_tutorial/prototype_t1/build/../scheduler.c:85
  203d18:	f0000000 	adrp	x0, 206000 <plist_head>
  203d1c:	9101c000 	add	x0, x0, #0x70
  203d20:	5280bb81 	mov	w1, #0x5dc                 	// #1500
  203d24:	79000001 	strh	w1, [x0]
/Users/jd/trustworthy-systems/arinc/ARINC/t1_prototype/microkit_tutorial/prototype_t1/build/../scheduler.c:88
  203d28:	b0000000 	adrp	x0, 204000 <main+0xc0>
  203d2c:	91292000 	add	x0, x0, #0xa48
  203d30:	940000e8 	bl	2040d0 <microkit_dbg_puts>
/Users/jd/trustworthy-systems/arinc/ARINC/t1_prototype/microkit_tutorial/prototype_t1/build/../scheduler.c:91
  203d34:	d2994001 	mov	x1, #0xca00                	// #51712
  203d38:	f2a77341 	movk	x1, #0x3b9a, lsl #16
  203d3c:	52800020 	mov	w0, #0x1                   	// #1
  203d40:	97ffff8a 	bl	203b68 <sddf_timer_set_timeout>
/Users/jd/trustworthy-systems/arinc/ARINC/t1_prototype/microkit_tutorial/prototype_t1/build/../scheduler.c:93
  203d44:	d503201f 	nop
  203d48:	a8c27bfd 	ldp	x29, x30, [sp], #32
  203d4c:	d65f03c0 	ret

0000000000203d50 <notified>:
notified():
/Users/jd/trustworthy-systems/arinc/ARINC/t1_prototype/microkit_tutorial/prototype_t1/build/../scheduler.c:96
  203d50:	a9bd7bfd 	stp	x29, x30, [sp, #-48]!
  203d54:	910003fd 	mov	x29, sp
  203d58:	b9001fe0 	str	w0, [sp, #28]
/Users/jd/trustworthy-systems/arinc/ARINC/t1_prototype/microkit_tutorial/prototype_t1/build/../scheduler.c:97
  203d5c:	b9401fe0 	ldr	w0, [sp, #28]
  203d60:	7100041f 	cmp	w0, #0x1
  203d64:	54000b01 	b.ne	203ec4 <notified+0x174>  // b.any
/Users/jd/trustworthy-systems/arinc/ARINC/t1_prototype/microkit_tutorial/prototype_t1/build/../scheduler.c:99
  203d68:	b0000000 	adrp	x0, 204000 <main+0xc0>
  203d6c:	91298000 	add	x0, x0, #0xa60
  203d70:	940000d8 	bl	2040d0 <microkit_dbg_puts>
/Users/jd/trustworthy-systems/arinc/ARINC/t1_prototype/microkit_tutorial/prototype_t1/build/../scheduler.c:102
  203d74:	f0000000 	adrp	x0, 206000 <plist_head>
  203d78:	91004000 	add	x0, x0, #0x10
  203d7c:	f9400000 	ldr	x0, [x0]
  203d80:	b9400000 	ldr	w0, [x0]
  203d84:	7100041f 	cmp	w0, #0x1
  203d88:	540001a1 	b.ne	203dbc <notified+0x6c>  // b.any
/Users/jd/trustworthy-systems/arinc/ARINC/t1_prototype/microkit_tutorial/prototype_t1/build/../scheduler.c:102 (discriminator 1)
  203d8c:	f0000000 	adrp	x0, 206000 <plist_head>
  203d90:	91006000 	add	x0, x0, #0x18
  203d94:	f9400000 	ldr	x0, [x0]
  203d98:	b9400000 	ldr	w0, [x0]
  203d9c:	7100041f 	cmp	w0, #0x1
  203da0:	540000e1 	b.ne	203dbc <notified+0x6c>  // b.any
/Users/jd/trustworthy-systems/arinc/ARINC/t1_prototype/microkit_tutorial/prototype_t1/build/../scheduler.c:102 (discriminator 2)
  203da4:	f0000000 	adrp	x0, 206000 <plist_head>
  203da8:	91008000 	add	x0, x0, #0x20
  203dac:	f9400000 	ldr	x0, [x0]
  203db0:	b9400000 	ldr	w0, [x0]
  203db4:	7100041f 	cmp	w0, #0x1
  203db8:	54000280 	b.eq	203e08 <notified+0xb8>  // b.none
/Users/jd/trustworthy-systems/arinc/ARINC/t1_prototype/microkit_tutorial/prototype_t1/build/../scheduler.c:103
  203dbc:	b0000000 	adrp	x0, 204000 <main+0xc0>
  203dc0:	912a4000 	add	x0, x0, #0xa90
  203dc4:	940000c3 	bl	2040d0 <microkit_dbg_puts>
/Users/jd/trustworthy-systems/arinc/ARINC/t1_prototype/microkit_tutorial/prototype_t1/build/../scheduler.c:107
  203dc8:	f0000000 	adrp	x0, 206000 <plist_head>
  203dcc:	9101c000 	add	x0, x0, #0x70
  203dd0:	79400001 	ldrh	w1, [x0]
  203dd4:	f0000000 	adrp	x0, 206000 <plist_head>
  203dd8:	91001000 	add	x0, x0, #0x4
  203ddc:	79400000 	ldrh	w0, [x0]
  203de0:	4b000020 	sub	w0, w1, w0
  203de4:	12003c01 	and	w1, w0, #0xffff
  203de8:	f0000000 	adrp	x0, 206000 <plist_head>
  203dec:	9101c000 	add	x0, x0, #0x70
  203df0:	79000001 	strh	w1, [x0]
/Users/jd/trustworthy-systems/arinc/ARINC/t1_prototype/microkit_tutorial/prototype_t1/build/../scheduler.c:108
  203df4:	d2994001 	mov	x1, #0xca00                	// #51712
  203df8:	f2a77341 	movk	x1, #0x3b9a, lsl #16
  203dfc:	52800020 	mov	w0, #0x1                   	// #1
  203e00:	97ffff5a 	bl	203b68 <sddf_timer_set_timeout>
/Users/jd/trustworthy-systems/arinc/ARINC/t1_prototype/microkit_tutorial/prototype_t1/build/../scheduler.c:135
  203e04:	14000034 	b	203ed4 <notified+0x184>
/Users/jd/trustworthy-systems/arinc/ARINC/t1_prototype/microkit_tutorial/prototype_t1/build/../scheduler.c:111
  203e08:	b0000000 	adrp	x0, 204000 <main+0xc0>
  203e0c:	912b4000 	add	x0, x0, #0xad0
  203e10:	940000b0 	bl	2040d0 <microkit_dbg_puts>
/Users/jd/trustworthy-systems/arinc/ARINC/t1_prototype/microkit_tutorial/prototype_t1/build/../scheduler.c:112
  203e14:	97ffff65 	bl	203ba8 <get_next_partition_idx>
  203e18:	b9002fe0 	str	w0, [sp, #44]
/Users/jd/trustworthy-systems/arinc/ARINC/t1_prototype/microkit_tutorial/prototype_t1/build/../scheduler.c:114
  203e1c:	f0000000 	adrp	x0, 206000 <plist_head>
  203e20:	91010000 	add	x0, x0, #0x40
  203e24:	b9802fe1 	ldrsw	x1, [sp, #44]
  203e28:	f8617800 	ldr	x0, [x0, x1, lsl #3]
  203e2c:	52800041 	mov	w1, #0x2                   	// #2
  203e30:	b9000001 	str	w1, [x0]
/Users/jd/trustworthy-systems/arinc/ARINC/t1_prototype/microkit_tutorial/prototype_t1/build/../scheduler.c:115
  203e34:	b9402fe0 	ldr	w0, [sp, #44]
  203e38:	7100081f 	cmp	w0, #0x2
  203e3c:	540002e0 	b.eq	203e98 <notified+0x148>  // b.none
  203e40:	b9402fe0 	ldr	w0, [sp, #44]
  203e44:	7100081f 	cmp	w0, #0x2
  203e48:	5400034c 	b.gt	203eb0 <notified+0x160>
  203e4c:	b9402fe0 	ldr	w0, [sp, #44]
  203e50:	7100001f 	cmp	w0, #0x0
  203e54:	540000a0 	b.eq	203e68 <notified+0x118>  // b.none
  203e58:	b9402fe0 	ldr	w0, [sp, #44]
  203e5c:	7100041f 	cmp	w0, #0x1
  203e60:	54000100 	b.eq	203e80 <notified+0x130>  // b.none
  203e64:	14000013 	b	203eb0 <notified+0x160>
/Users/jd/trustworthy-systems/arinc/ARINC/t1_prototype/microkit_tutorial/prototype_t1/build/../scheduler.c:117
  203e68:	b0000000 	adrp	x0, 204000 <main+0xc0>
  203e6c:	912bc000 	add	x0, x0, #0xaf0
  203e70:	94000098 	bl	2040d0 <microkit_dbg_puts>
/Users/jd/trustworthy-systems/arinc/ARINC/t1_prototype/microkit_tutorial/prototype_t1/build/../scheduler.c:118
  203e74:	52800040 	mov	w0, #0x2                   	// #2
  203e78:	97ffff0a 	bl	203aa0 <microkit_notify>
/Users/jd/trustworthy-systems/arinc/ARINC/t1_prototype/microkit_tutorial/prototype_t1/build/../scheduler.c:119
  203e7c:	1400000d 	b	203eb0 <notified+0x160>
/Users/jd/trustworthy-systems/arinc/ARINC/t1_prototype/microkit_tutorial/prototype_t1/build/../scheduler.c:121
  203e80:	b0000000 	adrp	x0, 204000 <main+0xc0>
  203e84:	912c0000 	add	x0, x0, #0xb00
  203e88:	94000092 	bl	2040d0 <microkit_dbg_puts>
/Users/jd/trustworthy-systems/arinc/ARINC/t1_prototype/microkit_tutorial/prototype_t1/build/../scheduler.c:122
  203e8c:	52800060 	mov	w0, #0x3                   	// #3
  203e90:	97ffff04 	bl	203aa0 <microkit_notify>
/Users/jd/trustworthy-systems/arinc/ARINC/t1_prototype/microkit_tutorial/prototype_t1/build/../scheduler.c:123
  203e94:	14000007 	b	203eb0 <notified+0x160>
/Users/jd/trustworthy-systems/arinc/ARINC/t1_prototype/microkit_tutorial/prototype_t1/build/../scheduler.c:125
  203e98:	b0000000 	adrp	x0, 204000 <main+0xc0>
  203e9c:	912c4000 	add	x0, x0, #0xb10
  203ea0:	9400008c 	bl	2040d0 <microkit_dbg_puts>
/Users/jd/trustworthy-systems/arinc/ARINC/t1_prototype/microkit_tutorial/prototype_t1/build/../scheduler.c:126
  203ea4:	52800080 	mov	w0, #0x4                   	// #4
  203ea8:	97fffefe 	bl	203aa0 <microkit_notify>
/Users/jd/trustworthy-systems/arinc/ARINC/t1_prototype/microkit_tutorial/prototype_t1/build/../scheduler.c:127
  203eac:	d503201f 	nop
/Users/jd/trustworthy-systems/arinc/ARINC/t1_prototype/microkit_tutorial/prototype_t1/build/../scheduler.c:131
  203eb0:	d2994001 	mov	x1, #0xca00                	// #51712
  203eb4:	f2a77341 	movk	x1, #0x3b9a, lsl #16
  203eb8:	52800020 	mov	w0, #0x1                   	// #1
  203ebc:	97ffff2b 	bl	203b68 <sddf_timer_set_timeout>
/Users/jd/trustworthy-systems/arinc/ARINC/t1_prototype/microkit_tutorial/prototype_t1/build/../scheduler.c:135
  203ec0:	14000005 	b	203ed4 <notified+0x184>
/Users/jd/trustworthy-systems/arinc/ARINC/t1_prototype/microkit_tutorial/prototype_t1/build/../scheduler.c:137
  203ec4:	b0000000 	adrp	x0, 204000 <main+0xc0>
  203ec8:	912c8000 	add	x0, x0, #0xb20
  203ecc:	94000081 	bl	2040d0 <microkit_dbg_puts>
/Users/jd/trustworthy-systems/arinc/ARINC/t1_prototype/microkit_tutorial/prototype_t1/build/../scheduler.c:139
  203ed0:	d503201f 	nop
  203ed4:	d503201f 	nop
  203ed8:	a8c37bfd 	ldp	x29, x30, [sp], #48
  203edc:	d65f03c0 	ret

0000000000203ee0 <protected>:
protected():
  203ee0:	a9bf7bfd 	stp	x29, x30, [sp, #-16]!
  203ee4:	f0000000 	adrp	x0, 206000 <plist_head>
  203ee8:	91020000 	add	x0, x0, #0x80
  203eec:	910003fd 	mov	x29, sp
  203ef0:	94000078 	bl	2040d0 <microkit_dbg_puts>
  203ef4:	d0000000 	adrp	x0, 205000 <_text_end+0x4a3>
  203ef8:	910c0000 	add	x0, x0, #0x300
  203efc:	94000075 	bl	2040d0 <microkit_dbg_puts>
  203f00:	d2800000 	mov	x0, #0x0                   	// #0
  203f04:	b900001f 	str	wzr, [x0]
  203f08:	d4207d00 	brk	#0x3e8
  203f0c:	d503201f 	nop

0000000000203f10 <fault>:
fault():
  203f10:	a9bf7bfd 	stp	x29, x30, [sp, #-16]!
  203f14:	f0000000 	adrp	x0, 206000 <plist_head>
  203f18:	91020000 	add	x0, x0, #0x80
  203f1c:	910003fd 	mov	x29, sp
  203f20:	9400006c 	bl	2040d0 <microkit_dbg_puts>
  203f24:	d0000000 	adrp	x0, 205000 <_text_end+0x4a3>
  203f28:	910cc000 	add	x0, x0, #0x330
  203f2c:	94000069 	bl	2040d0 <microkit_dbg_puts>
  203f30:	d2800000 	mov	x0, #0x0                   	// #0
  203f34:	b900001f 	str	wzr, [x0]
  203f38:	d4207d00 	brk	#0x3e8
  203f3c:	00000000 	.inst	0x00000000 ; undefined

0000000000203f40 <main>:
main():
  203f40:	a9bc7bfd 	stp	x29, x30, [sp, #-64]!
  203f44:	f0000000 	adrp	x0, 206000 <plist_head>
  203f48:	91000000 	add	x0, x0, #0x0
  203f4c:	910003fd 	mov	x29, sp
  203f50:	a90153f3 	stp	x19, x20, [sp, #16]
  203f54:	f0000014 	adrp	x20, 206000 <plist_head>
  203f58:	91000294 	add	x20, x20, #0x0
  203f5c:	a9025bf5 	stp	x21, x22, [sp, #32]
  203f60:	eb140015 	subs	x21, x0, x20
  203f64:	54000100 	b.eq	203f84 <main+0x44>  // b.none
  203f68:	9343feb5 	asr	x21, x21, #3
  203f6c:	d2800013 	mov	x19, #0x0                   	// #0
  203f70:	f8737a80 	ldr	x0, [x20, x19, lsl #3]
  203f74:	91000673 	add	x19, x19, #0x1
  203f78:	d63f0000 	blr	x0
  203f7c:	eb1302bf 	cmp	x21, x19
  203f80:	54ffff88 	b.hi	203f70 <main+0x30>  // b.pmore
  203f84:	f0000016 	adrp	x22, 206000 <plist_head>
  203f88:	910202d6 	add	x22, x22, #0x80
  203f8c:	97ffff12 	bl	203bd4 <init>
  203f90:	394102c0 	ldrb	w0, [x22, #64]
  203f94:	340000a0 	cbz	w0, 203fa8 <main+0x68>
  203f98:	52800021 	mov	w1, #0x1                   	// #1
  203f9c:	d28000a0 	mov	x0, #0x5                   	// #5
  203fa0:	390106c1 	strb	w1, [x22, #65]
  203fa4:	a90482df 	stp	xzr, x0, [x22, #72]
  203fa8:	f0000015 	adrp	x21, 206000 <plist_head>
  203fac:	910022b5 	add	x21, x21, #0x8
  203fb0:	52800000 	mov	w0, #0x0                   	// #0
  203fb4:	d503201f 	nop
  203fb8:	35000220 	cbnz	w0, 203ffc <main+0xbc>
  203fbc:	39c106c0 	ldrsb	w0, [x22, #65]
  203fc0:	350004e0 	cbnz	w0, 20405c <main+0x11c>
  203fc4:	d2800020 	mov	x0, #0x1                   	// #1
  203fc8:	d2800086 	mov	x6, #0x4                   	// #4
  203fcc:	928000c7 	mov	x7, #0xfffffffffffffff9    	// #-7
  203fd0:	d4000001 	svc	#0x0
  203fd4:	f94002a6 	ldr	x6, [x21]
  203fd8:	aa0003f3 	mov	x19, x0
  203fdc:	a9008cc2 	stp	x2, x3, [x6, #8]
  203fe0:	a90194c4 	stp	x4, x5, [x6, #24]
  203fe4:	b7f00313 	tbnz	x19, #62, 204044 <main+0x104>
  203fe8:	52800014 	mov	w20, #0x0                   	// #0
  203fec:	b6f801b3 	tbz	x19, #63, 204020 <main+0xe0>
  203ff0:	12001660 	and	w0, w19, #0x3f
  203ff4:	97ffffbb 	bl	203ee0 <protected>
  203ff8:	f9001fe0 	str	x0, [sp, #56]
  203ffc:	f94002a5 	ldr	x5, [x21]
  204000:	d2800020 	mov	x0, #0x1                   	// #1
  204004:	f9401fe1 	ldr	x1, [sp, #56]
  204008:	d2800086 	mov	x6, #0x4                   	// #4
  20400c:	a9408ca2 	ldp	x2, x3, [x5, #8]
  204010:	92800027 	mov	x7, #0xfffffffffffffffe    	// #-2
  204014:	a94194a4 	ldp	x4, x5, [x5, #24]
  204018:	d4000001 	svc	#0x0
  20401c:	17ffffee 	b	203fd4 <main+0x94>
  204020:	370000d3 	tbnz	w19, #0, 204038 <main+0xf8>
  204024:	d503201f 	nop
  204028:	d341fe73 	lsr	x19, x19, #1
  20402c:	11000694 	add	w20, w20, #0x1
  204030:	b4fffc73 	cbz	x19, 203fbc <main+0x7c>
  204034:	3607ffb3 	tbz	w19, #0, 204028 <main+0xe8>
  204038:	2a1403e0 	mov	w0, w20
  20403c:	97ffff45 	bl	203d50 <notified>
  204040:	17fffffa 	b	204028 <main+0xe8>
  204044:	12001e60 	and	w0, w19, #0xff
  204048:	9100e3e2 	add	x2, sp, #0x38
  20404c:	97ffffb1 	bl	203f10 <fault>
  204050:	72001c1f 	tst	w0, #0xff
  204054:	1a9f07e0 	cset	w0, ne  // ne = any
  204058:	17ffffd8 	b	203fb8 <main+0x78>
  20405c:	f94002a5 	ldr	x5, [x21]
  204060:	d2800020 	mov	x0, #0x1                   	// #1
  204064:	a944a2c1 	ldp	x1, x8, [x22, #72]
  204068:	d2800086 	mov	x6, #0x4                   	// #4
  20406c:	a9408ca2 	ldp	x2, x3, [x5, #8]
  204070:	92800047 	mov	x7, #0xfffffffffffffffd    	// #-3
  204074:	a94194a4 	ldp	x4, x5, [x5, #24]
  204078:	d4000001 	svc	#0x0
  20407c:	f94002a6 	ldr	x6, [x21]
  204080:	aa0003f3 	mov	x19, x0
  204084:	390106df 	strb	wzr, [x22, #65]
  204088:	a9008cc2 	stp	x2, x3, [x6, #8]
  20408c:	a90194c4 	stp	x4, x5, [x6, #24]
  204090:	17ffffd5 	b	203fe4 <main+0xa4>
	...

00000000002040a0 <microkit_dbg_putc>:
microkit_dbg_putc():
  2040a0:	d2800001 	mov	x1, #0x0                   	// #0
  2040a4:	92401c00 	and	x0, x0, #0xff
  2040a8:	d2800002 	mov	x2, #0x0                   	// #0
  2040ac:	d2800003 	mov	x3, #0x0                   	// #0
  2040b0:	d2800004 	mov	x4, #0x0                   	// #0
  2040b4:	d2800005 	mov	x5, #0x0                   	// #0
  2040b8:	d2800006 	mov	x6, #0x0                   	// #0
  2040bc:	92800167 	mov	x7, #0xfffffffffffffff4    	// #-12
  2040c0:	d4000001 	svc	#0x0
  2040c4:	d65f03c0 	ret
  2040c8:	d503201f 	nop
  2040cc:	d503201f 	nop

00000000002040d0 <microkit_dbg_puts>:
microkit_dbg_puts():
  2040d0:	aa0003e8 	mov	x8, x0
  2040d4:	39400000 	ldrb	w0, [x0]
  2040d8:	34000180 	cbz	w0, 204108 <microkit_dbg_puts+0x38>
  2040dc:	d503201f 	nop
  2040e0:	d2800001 	mov	x1, #0x0                   	// #0
  2040e4:	d2800002 	mov	x2, #0x0                   	// #0
  2040e8:	d2800003 	mov	x3, #0x0                   	// #0
  2040ec:	d2800004 	mov	x4, #0x0                   	// #0
  2040f0:	d2800005 	mov	x5, #0x0                   	// #0
  2040f4:	d2800006 	mov	x6, #0x0                   	// #0
  2040f8:	92800167 	mov	x7, #0xfffffffffffffff4    	// #-12
  2040fc:	d4000001 	svc	#0x0
  204100:	38401d00 	ldrb	w0, [x8, #1]!
  204104:	35fffee0 	cbnz	w0, 2040e0 <microkit_dbg_puts+0x10>
  204108:	d65f03c0 	ret
  20410c:	d503201f 	nop

0000000000204110 <__assert_fail>:
__assert_fail():
  204110:	b000000b 	adrp	x11, 205000 <_text_end+0x4a3>
  204114:	910d616b 	add	x11, x11, #0x358
  204118:	aa0103e9 	mov	x9, x1
  20411c:	aa0303e8 	mov	x8, x3
  204120:	aa0003ea 	mov	x10, x0
  204124:	d2800c20 	mov	x0, #0x61                  	// #97
  204128:	d2800001 	mov	x1, #0x0                   	// #0
  20412c:	d2800002 	mov	x2, #0x0                   	// #0
  204130:	d2800003 	mov	x3, #0x0                   	// #0
  204134:	d2800004 	mov	x4, #0x0                   	// #0
  204138:	d2800005 	mov	x5, #0x0                   	// #0
  20413c:	d2800006 	mov	x6, #0x0                   	// #0
  204140:	92800167 	mov	x7, #0xfffffffffffffff4    	// #-12
  204144:	d4000001 	svc	#0x0
  204148:	38401d60 	ldrb	w0, [x11, #1]!
  20414c:	35fffee0 	cbnz	w0, 204128 <__assert_fail+0x18>
  204150:	39400140 	ldrb	w0, [x10]
  204154:	34000160 	cbz	w0, 204180 <__assert_fail+0x70>
  204158:	d2800001 	mov	x1, #0x0                   	// #0
  20415c:	d2800002 	mov	x2, #0x0                   	// #0
  204160:	d2800003 	mov	x3, #0x0                   	// #0
  204164:	d2800004 	mov	x4, #0x0                   	// #0
  204168:	d2800005 	mov	x5, #0x0                   	// #0
  20416c:	d2800006 	mov	x6, #0x0                   	// #0
  204170:	92800167 	mov	x7, #0xfffffffffffffff4    	// #-12
  204174:	d4000001 	svc	#0x0
  204178:	38401d40 	ldrb	w0, [x10, #1]!
  20417c:	35fffee0 	cbnz	w0, 204158 <__assert_fail+0x48>
  204180:	d2800400 	mov	x0, #0x20                  	// #32
  204184:	d2800001 	mov	x1, #0x0                   	// #0
  204188:	d2800002 	mov	x2, #0x0                   	// #0
  20418c:	d2800003 	mov	x3, #0x0                   	// #0
  204190:	d2800004 	mov	x4, #0x0                   	// #0
  204194:	d2800005 	mov	x5, #0x0                   	// #0
  204198:	d2800006 	mov	x6, #0x0                   	// #0
  20419c:	92800167 	mov	x7, #0xfffffffffffffff4    	// #-12
  2041a0:	d4000001 	svc	#0x0
  2041a4:	39400120 	ldrb	w0, [x9]
  2041a8:	34000180 	cbz	w0, 2041d8 <__assert_fail+0xc8>
  2041ac:	d503201f 	nop
  2041b0:	d2800001 	mov	x1, #0x0                   	// #0
  2041b4:	d2800002 	mov	x2, #0x0                   	// #0
  2041b8:	d2800003 	mov	x3, #0x0                   	// #0
  2041bc:	d2800004 	mov	x4, #0x0                   	// #0
  2041c0:	d2800005 	mov	x5, #0x0                   	// #0
  2041c4:	d2800006 	mov	x6, #0x0                   	// #0
  2041c8:	92800167 	mov	x7, #0xfffffffffffffff4    	// #-12
  2041cc:	d4000001 	svc	#0x0
  2041d0:	38401d20 	ldrb	w0, [x9, #1]!
  2041d4:	35fffee0 	cbnz	w0, 2041b0 <__assert_fail+0xa0>
  2041d8:	d2800400 	mov	x0, #0x20                  	// #32
  2041dc:	d2800001 	mov	x1, #0x0                   	// #0
  2041e0:	d2800002 	mov	x2, #0x0                   	// #0
  2041e4:	d2800003 	mov	x3, #0x0                   	// #0
  2041e8:	d2800004 	mov	x4, #0x0                   	// #0
  2041ec:	d2800005 	mov	x5, #0x0                   	// #0
  2041f0:	d2800006 	mov	x6, #0x0                   	// #0
  2041f4:	92800167 	mov	x7, #0xfffffffffffffff4    	// #-12
  2041f8:	d4000001 	svc	#0x0
  2041fc:	39400100 	ldrb	w0, [x8]
  204200:	34000180 	cbz	w0, 204230 <__assert_fail+0x120>
  204204:	d503201f 	nop
  204208:	d2800001 	mov	x1, #0x0                   	// #0
  20420c:	d2800002 	mov	x2, #0x0                   	// #0
  204210:	d2800003 	mov	x3, #0x0                   	// #0
  204214:	d2800004 	mov	x4, #0x0                   	// #0
  204218:	d2800005 	mov	x5, #0x0                   	// #0
  20421c:	d2800006 	mov	x6, #0x0                   	// #0
  204220:	92800167 	mov	x7, #0xfffffffffffffff4    	// #-12
  204224:	d4000001 	svc	#0x0
  204228:	38401d00 	ldrb	w0, [x8, #1]!
  20422c:	35fffee0 	cbnz	w0, 204208 <__assert_fail+0xf8>
  204230:	d2800140 	mov	x0, #0xa                   	// #10
  204234:	d2800001 	mov	x1, #0x0                   	// #0
  204238:	d2800002 	mov	x2, #0x0                   	// #0
  20423c:	d2800003 	mov	x3, #0x0                   	// #0
  204240:	d2800004 	mov	x4, #0x0                   	// #0
  204244:	d2800005 	mov	x5, #0x0                   	// #0
  204248:	d2800006 	mov	x6, #0x0                   	// #0
  20424c:	92800167 	mov	x7, #0xfffffffffffffff4    	// #-12
  204250:	d4000001 	svc	#0x0
  204254:	d65f03c0 	ret
  204258:	006e616e 	.word	0x006e616e
  20425c:	00000000 	.word	0x00000000
  204260:	2d696e66 	.word	0x2d696e66
  204264:	00000000 	.word	0x00000000
  204268:	2b696e66 	.word	0x2b696e66
  20426c:	00000000 	.word	0x00000000
  204270:	00696e66 	.word	0x00696e66
  204274:	00000333 	.word	0x00000333
  204278:	00000340 	.word	0x00000340
  20427c:	00000340 	.word	0x00000340
  204280:	00000340 	.word	0x00000340
  204284:	00000340 	.word	0x00000340
  204288:	00000340 	.word	0x00000340
  20428c:	00000340 	.word	0x00000340
  204290:	00000340 	.word	0x00000340
  204294:	00000340 	.word	0x00000340
  204298:	00000340 	.word	0x00000340
  20429c:	00000340 	.word	0x00000340
  2042a0:	00000340 	.word	0x00000340
  2042a4:	00000340 	.word	0x00000340
  2042a8:	00000340 	.word	0x00000340
  2042ac:	00000340 	.word	0x00000340
  2042b0:	00000340 	.word	0x00000340
  2042b4:	00000340 	.word	0x00000340
  2042b8:	00000340 	.word	0x00000340
  2042bc:	00000340 	.word	0x00000340
  2042c0:	00000340 	.word	0x00000340
  2042c4:	00000340 	.word	0x00000340
  2042c8:	00000340 	.word	0x00000340
  2042cc:	00000340 	.word	0x00000340
  2042d0:	00000340 	.word	0x00000340
  2042d4:	00000340 	.word	0x00000340
  2042d8:	00000340 	.word	0x00000340
  2042dc:	00000340 	.word	0x00000340
  2042e0:	00000340 	.word	0x00000340
  2042e4:	00000340 	.word	0x00000340
  2042e8:	00000340 	.word	0x00000340
  2042ec:	00000340 	.word	0x00000340
  2042f0:	00000340 	.word	0x00000340
  2042f4:	000001e4 	.word	0x000001e4
  2042f8:	000001bb 	.word	0x000001bb
  2042fc:	000001e4 	.word	0x000001e4
  204300:	00000340 	.word	0x00000340
  204304:	00000340 	.word	0x00000340
  204308:	00000340 	.word	0x00000340
  20430c:	00000340 	.word	0x00000340
  204310:	00000340 	.word	0x00000340
  204314:	00000340 	.word	0x00000340
  204318:	00000340 	.word	0x00000340
  20431c:	00000340 	.word	0x00000340
  204320:	00000340 	.word	0x00000340
  204324:	00000340 	.word	0x00000340
  204328:	00000340 	.word	0x00000340
  20432c:	00000340 	.word	0x00000340
  204330:	00000340 	.word	0x00000340
  204334:	00000340 	.word	0x00000340
  204338:	00000340 	.word	0x00000340
  20433c:	00000340 	.word	0x00000340
  204340:	00000005 	.word	0x00000005
  204344:	00000340 	.word	0x00000340
  204348:	00000340 	.word	0x00000340
  20434c:	00000340 	.word	0x00000340
  204350:	00000340 	.word	0x00000340
  204354:	00000340 	.word	0x00000340
  204358:	00000340 	.word	0x00000340
  20435c:	00000340 	.word	0x00000340
  204360:	00000340 	.word	0x00000340
  204364:	00000340 	.word	0x00000340
  204368:	00000005 	.word	0x00000005
  20436c:	0000021c 	.word	0x0000021c
  204370:	00000005 	.word	0x00000005
  204374:	000001e4 	.word	0x000001e4
  204378:	000001bb 	.word	0x000001bb
  20437c:	000001e4 	.word	0x000001e4

0000000000204380 <pow10.0>:
  204380:	00000000 	.word	0x00000000
  204384:	3ff00000 	.word	0x3ff00000
  204388:	00000000 	.word	0x00000000
  20438c:	40240000 	.word	0x40240000
  204390:	00000000 	.word	0x00000000
  204394:	40590000 	.word	0x40590000
  204398:	00000000 	.word	0x00000000
  20439c:	408f4000 	.word	0x408f4000
  2043a0:	00000000 	.word	0x00000000
  2043a4:	40c38800 	.word	0x40c38800
  2043a8:	00000000 	.word	0x00000000
  2043ac:	40f86a00 	.word	0x40f86a00
  2043b0:	00000000 	.word	0x00000000
  2043b4:	412e8480 	.word	0x412e8480
  2043b8:	00000000 	.word	0x00000000
  2043bc:	416312d0 	.word	0x416312d0
  2043c0:	00000000 	.word	0x00000000
  2043c4:	4197d784 	.word	0x4197d784
  2043c8:	00000000 	.word	0x00000000
  2043cc:	41cdcd65 	.word	0x41cdcd65
  2043d0:	509f79fb 	.word	0x509f79fb
  2043d4:	3fd34413 	.word	0x3fd34413
  2043d8:	8b60c8b3 	.word	0x8b60c8b3
  2043dc:	3fc68a28 	.word	0x3fc68a28
  2043e0:	636f4361 	.word	0x636f4361
  2043e4:	3fd287a7 	.word	0x3fd287a7
  2043e8:	0979a371 	.word	0x0979a371
  2043ec:	400a934f 	.word	0x400a934f
  2043f0:	bbb55516 	.word	0xbbb55516
  2043f4:	40026bb1 	.word	0x40026bb1
  2043f8:	fefa39ef 	.word	0xfefa39ef
  2043fc:	3fe62e42 	.word	0x3fe62e42
  204400:	eb1c432d 	.word	0xeb1c432d
  204404:	3f1a36e2 	.word	0x3f1a36e2

0000000000204408 <seL4_AsyncEndpointObject>:
  204408:	00000003 	.word	0x00000003
  20440c:	00000000 	.word	0x00000000
  204410:	6573552f 	.word	0x6573552f
  204414:	6a2f7372 	.word	0x6a2f7372
  204418:	72742f64 	.word	0x72742f64
  20441c:	77747375 	.word	0x77747375
  204420:	6874726f 	.word	0x6874726f
  204424:	79732d79 	.word	0x79732d79
  204428:	6d657473 	.word	0x6d657473
  20442c:	696d2f73 	.word	0x696d2f73
  204430:	6b6f7263 	.word	0x6b6f7263
  204434:	732d7469 	.word	0x732d7469
  204438:	312d6b64 	.word	0x312d6b64
  20443c:	312e342e 	.word	0x312e342e
  204440:	616f622f 	.word	0x616f622f
  204444:	712f6472 	.word	0x712f6472
  204448:	5f756d65 	.word	0x5f756d65
  20444c:	74726976 	.word	0x74726976
  204450:	7261615f 	.word	0x7261615f
  204454:	34366863 	.word	0x34366863
  204458:	6265642f 	.word	0x6265642f
  20445c:	692f6775 	.word	0x692f6775
  204460:	756c636e 	.word	0x756c636e
  204464:	732f6564 	.word	0x732f6564
  204468:	2f346c65 	.word	0x2f346c65
  20446c:	72616873 	.word	0x72616873
  204470:	745f6465 	.word	0x745f6465
  204474:	73657079 	.word	0x73657079
  204478:	6e65675f 	.word	0x6e65675f
  20447c:	0000682e 	.word	0x0000682e
  204480:	62616c28 	.word	0x62616c28
  204484:	26206c65 	.word	0x26206c65
  204488:	78307e20 	.word	0x78307e20
  20448c:	66666666 	.word	0x66666666
  204490:	66666666 	.word	0x66666666
  204494:	66666666 	.word	0x66666666
  204498:	6c6c7566 	.word	0x6c6c7566
  20449c:	3d3d2029 	.word	0x3d3d2029
  2044a0:	30282820 	.word	0x30282820
  2044a4:	20262620 	.word	0x20262620
  2044a8:	62616c28 	.word	0x62616c28
  2044ac:	26206c65 	.word	0x26206c65
  2044b0:	75312820 	.word	0x75312820
  2044b4:	3c206c6c 	.word	0x3c206c6c
  2044b8:	3336203c 	.word	0x3336203c
  2044bc:	20292929 	.word	0x20292929
  2044c0:	7830203f 	.word	0x7830203f
  2044c4:	203a2030 	.word	0x203a2030
  2044c8:	00002930 	.word	0x00002930
  2044cc:	00000000 	.word	0x00000000
  2044d0:	70616328 	.word	0x70616328
  2044d4:	776e5573 	.word	0x776e5573
  2044d8:	70706172 	.word	0x70706172
  2044dc:	26206465 	.word	0x26206465
  2044e0:	78307e20 	.word	0x78307e20
  2044e4:	6c6c7537 	.word	0x6c6c7537
  2044e8:	3d3d2029 	.word	0x3d3d2029
  2044ec:	30282820 	.word	0x30282820
  2044f0:	20262620 	.word	0x20262620
  2044f4:	70616328 	.word	0x70616328
  2044f8:	776e5573 	.word	0x776e5573
  2044fc:	70706172 	.word	0x70706172
  204500:	26206465 	.word	0x26206465
  204504:	75312820 	.word	0x75312820
  204508:	3c206c6c 	.word	0x3c206c6c
  20450c:	3336203c 	.word	0x3336203c
  204510:	20292929 	.word	0x20292929
  204514:	7830203f 	.word	0x7830203f
  204518:	203a2030 	.word	0x203a2030
  20451c:	00002930 	.word	0x00002930
  204520:	74786528 	.word	0x74786528
  204524:	61436172 	.word	0x61436172
  204528:	26207370 	.word	0x26207370
  20452c:	78307e20 	.word	0x78307e20
  204530:	6c6c7533 	.word	0x6c6c7533
  204534:	3d3d2029 	.word	0x3d3d2029
  204538:	30282820 	.word	0x30282820
  20453c:	20262620 	.word	0x20262620
  204540:	74786528 	.word	0x74786528
  204544:	61436172 	.word	0x61436172
  204548:	26207370 	.word	0x26207370
  20454c:	75312820 	.word	0x75312820
  204550:	3c206c6c 	.word	0x3c206c6c
  204554:	3336203c 	.word	0x3336203c
  204558:	20292929 	.word	0x20292929
  20455c:	7830203f 	.word	0x7830203f
  204560:	203a2030 	.word	0x203a2030
  204564:	00002930 	.word	0x00002930
  204568:	6e656c28 	.word	0x6e656c28
  20456c:	20687467 	.word	0x20687467
  204570:	307e2026 	.word	0x307e2026
  204574:	75663778 	.word	0x75663778
  204578:	20296c6c 	.word	0x20296c6c
  20457c:	28203d3d 	.word	0x28203d3d
  204580:	26203028 	.word	0x26203028
  204584:	6c282026 	.word	0x6c282026
  204588:	74676e65 	.word	0x74676e65
  20458c:	20262068 	.word	0x20262068
  204590:	6c753128 	.word	0x6c753128
  204594:	3c3c206c 	.word	0x3c3c206c
  204598:	29333620 	.word	0x29333620
  20459c:	3f202929 	.word	0x3f202929
  2045a0:	30783020 	.word	0x30783020
  2045a4:	30203a20 	.word	0x30203a20
  2045a8:	00000029 	.word	0x00000029
  2045ac:	00000000 	.word	0x00000000
  2045b0:	7263696d 	.word	0x7263696d
  2045b4:	74696b6f 	.word	0x74696b6f
  2045b8:	7063765f 	.word	0x7063765f
  2045bc:	72615f75 	.word	0x72615f75
  2045c0:	65725f6d 	.word	0x65725f6d
  2045c4:	725f6461 	.word	0x725f6461
  2045c8:	203a6765 	.word	0x203a6765
  2045cc:	6f727265 	.word	0x6f727265
  2045d0:	65722072 	.word	0x65722072
  2045d4:	6e696461 	.word	0x6e696461
  2045d8:	43762067 	.word	0x43762067
  2045dc:	72205550 	.word	0x72205550
  2045e0:	73696765 	.word	0x73696765
  2045e4:	0a726574 	.word	0x0a726574
	...
  2045f0:	7c4d4d56 	.word	0x7c4d4d56
  2045f4:	4f464e49 	.word	0x4f464e49
  2045f8:	4356203a 	.word	0x4356203a
  2045fc:	72205550 	.word	0x72205550
  204600:	73696765 	.word	0x73696765
  204604:	73726574 	.word	0x73726574
  204608:	000a203a 	.word	0x000a203a
  20460c:	00000000 	.word	0x00000000
  204610:	20202020 	.word	0x20202020
  204614:	4c544353 	.word	0x4c544353
  204618:	30203a52 	.word	0x30203a52
  20461c:	786c2578 	.word	0x786c2578
  204620:	0000000a 	.word	0x0000000a
  204624:	00000000 	.word	0x00000000
  204628:	20202020 	.word	0x20202020
  20462c:	52425454 	.word	0x52425454
  204630:	30203a30 	.word	0x30203a30
  204634:	786c2578 	.word	0x786c2578
  204638:	0000000a 	.word	0x0000000a
  20463c:	00000000 	.word	0x00000000
  204640:	20202020 	.word	0x20202020
  204644:	52425454 	.word	0x52425454
  204648:	30203a31 	.word	0x30203a31
  20464c:	786c2578 	.word	0x786c2578
  204650:	0000000a 	.word	0x0000000a
  204654:	00000000 	.word	0x00000000
  204658:	20202020 	.word	0x20202020
  20465c:	3a524354 	.word	0x3a524354
  204660:	30202020 	.word	0x30202020
  204664:	786c2578 	.word	0x786c2578
  204668:	0000000a 	.word	0x0000000a
  20466c:	00000000 	.word	0x00000000
  204670:	20202020 	.word	0x20202020
  204674:	5249414d 	.word	0x5249414d
  204678:	3020203a 	.word	0x3020203a
  20467c:	786c2578 	.word	0x786c2578
  204680:	0000000a 	.word	0x0000000a
  204684:	00000000 	.word	0x00000000
  204688:	20202020 	.word	0x20202020
  20468c:	49414d41 	.word	0x49414d41
  204690:	30203a52 	.word	0x30203a52
  204694:	786c2578 	.word	0x786c2578
  204698:	0000000a 	.word	0x0000000a
  20469c:	00000000 	.word	0x00000000
  2046a0:	20202020 	.word	0x20202020
  2046a4:	52444943 	.word	0x52444943
  2046a8:	3020203a 	.word	0x3020203a
  2046ac:	786c2578 	.word	0x786c2578
  2046b0:	0000000a 	.word	0x0000000a
  2046b4:	00000000 	.word	0x00000000
  2046b8:	20202020 	.word	0x20202020
  2046bc:	4c544341 	.word	0x4c544341
  2046c0:	30203a52 	.word	0x30203a52
  2046c4:	786c2578 	.word	0x786c2578
  2046c8:	0000000a 	.word	0x0000000a
  2046cc:	00000000 	.word	0x00000000
  2046d0:	20202020 	.word	0x20202020
  2046d4:	43415043 	.word	0x43415043
  2046d8:	30203a52 	.word	0x30203a52
  2046dc:	786c2578 	.word	0x786c2578
  2046e0:	0000000a 	.word	0x0000000a
  2046e4:	00000000 	.word	0x00000000
  2046e8:	20202020 	.word	0x20202020
  2046ec:	52534641 	.word	0x52534641
  2046f0:	30203a30 	.word	0x30203a30
  2046f4:	786c2578 	.word	0x786c2578
  2046f8:	0000000a 	.word	0x0000000a
  2046fc:	00000000 	.word	0x00000000
  204700:	20202020 	.word	0x20202020
  204704:	52534641 	.word	0x52534641
  204708:	30203a31 	.word	0x30203a31
  20470c:	786c2578 	.word	0x786c2578
  204710:	0000000a 	.word	0x0000000a
  204714:	00000000 	.word	0x00000000
  204718:	20202020 	.word	0x20202020
  20471c:	3a525345 	.word	0x3a525345
  204720:	30202020 	.word	0x30202020
  204724:	786c2578 	.word	0x786c2578
  204728:	0000000a 	.word	0x0000000a
  20472c:	00000000 	.word	0x00000000
  204730:	20202020 	.word	0x20202020
  204734:	3a524146 	.word	0x3a524146
  204738:	30202020 	.word	0x30202020
  20473c:	786c2578 	.word	0x786c2578
  204740:	0000000a 	.word	0x0000000a
  204744:	00000000 	.word	0x00000000
  204748:	20202020 	.word	0x20202020
  20474c:	3a525349 	.word	0x3a525349
  204750:	30202020 	.word	0x30202020
  204754:	786c2578 	.word	0x786c2578
  204758:	0000000a 	.word	0x0000000a
  20475c:	00000000 	.word	0x00000000
  204760:	20202020 	.word	0x20202020
  204764:	52414256 	.word	0x52414256
  204768:	3020203a 	.word	0x3020203a
  20476c:	786c2578 	.word	0x786c2578
  204770:	0000000a 	.word	0x0000000a
  204774:	00000000 	.word	0x00000000
  204778:	20202020 	.word	0x20202020
  20477c:	44495054 	.word	0x44495054
  204780:	4c455f52 	.word	0x4c455f52
  204784:	30203a31 	.word	0x30203a31
  204788:	786c2578 	.word	0x786c2578
  20478c:	0000000a 	.word	0x0000000a
  204790:	20202020 	.word	0x20202020
  204794:	455f5053 	.word	0x455f5053
  204798:	203a314c 	.word	0x203a314c
  20479c:	6c257830 	.word	0x6c257830
  2047a0:	00000a78 	.word	0x00000a78
  2047a4:	00000000 	.word	0x00000000
  2047a8:	20202020 	.word	0x20202020
  2047ac:	5f524c45 	.word	0x5f524c45
  2047b0:	3a314c45 	.word	0x3a314c45
  2047b4:	25783020 	.word	0x25783020
  2047b8:	000a786c 	.word	0x000a786c
  2047bc:	00000000 	.word	0x00000000
  2047c0:	20202020 	.word	0x20202020
  2047c4:	52535053 	.word	0x52535053
  2047c8:	314c455f 	.word	0x314c455f
  2047cc:	7830203a 	.word	0x7830203a
  2047d0:	0a786c25 	.word	0x0a786c25
  2047d4:	00000000 	.word	0x00000000
  2047d8:	20202020 	.word	0x20202020
  2047dc:	56544e43 	.word	0x56544e43
  2047e0:	4c54435f 	.word	0x4c54435f
  2047e4:	7830203a 	.word	0x7830203a
  2047e8:	0a786c25 	.word	0x0a786c25
  2047ec:	00000000 	.word	0x00000000
  2047f0:	20202020 	.word	0x20202020
  2047f4:	56544e43 	.word	0x56544e43
  2047f8:	4156435f 	.word	0x4156435f
  2047fc:	30203a4c 	.word	0x30203a4c
  204800:	786c2578 	.word	0x786c2578
  204804:	0000000a 	.word	0x0000000a
  204808:	20202020 	.word	0x20202020
  20480c:	56544e43 	.word	0x56544e43
  204810:	3a46464f 	.word	0x3a46464f
  204814:	25783020 	.word	0x25783020
  204818:	000a786c 	.word	0x000a786c
  20481c:	00000000 	.word	0x00000000
  204820:	20202020 	.word	0x20202020
  204824:	4b544e43 	.word	0x4b544e43
  204828:	5f4c5443 	.word	0x5f4c5443
  20482c:	3a314c45 	.word	0x3a314c45
  204830:	25783020 	.word	0x25783020
  204834:	000a786c 	.word	0x000a786c
  204838:	6c696146 	.word	0x6c696146
  20483c:	61206465 	.word	0x61206465
  204840:	72657373 	.word	0x72657373
  204844:	6e6f6974 	.word	0x6e6f6974
  204848:	73252720 	.word	0x73252720
  20484c:	74612027 	.word	0x74612027
  204850:	3a732520 	.word	0x3a732520
  204854:	69207525 	.word	0x69207525
  204858:	7566206e 	.word	0x7566206e
  20485c:	6974636e 	.word	0x6974636e
  204860:	25206e6f 	.word	0x25206e6f
  204864:	00000a73 	.word	0x00000a73
  204868:	65737361 	.word	0x65737361
  20486c:	66207472 	.word	0x66207472
  204870:	656c6961 	.word	0x656c6961
  204874:	00203a64 	.word	0x00203a64
  204878:	00000020 	.word	0x00000020
  20487c:	00000000 	.word	0x00000000
  204880:	0000000a 	.word	0x0000000a
  204884:	00000000 	.word	0x00000000

0000000000204888 <__func__.0>:
  204888:	344c6573 	.word	0x344c6573
  20488c:	73654d5f 	.word	0x73654d5f
  204890:	65676173 	.word	0x65676173
  204894:	6f666e49 	.word	0x6f666e49
  204898:	77656e5f 	.word	0x77656e5f
  20489c:	00000000 	.word	0x00000000

00000000002048a0 <seL4_AsyncEndpointObject>:
  2048a0:	00000003 	.word	0x00000003
  2048a4:	00000000 	.word	0x00000000
  2048a8:	6573552f 	.word	0x6573552f
  2048ac:	6a2f7372 	.word	0x6a2f7372
  2048b0:	72742f64 	.word	0x72742f64
  2048b4:	77747375 	.word	0x77747375
  2048b8:	6874726f 	.word	0x6874726f
  2048bc:	79732d79 	.word	0x79732d79
  2048c0:	6d657473 	.word	0x6d657473
  2048c4:	696d2f73 	.word	0x696d2f73
  2048c8:	6b6f7263 	.word	0x6b6f7263
  2048cc:	732d7469 	.word	0x732d7469
  2048d0:	312d6b64 	.word	0x312d6b64
  2048d4:	312e342e 	.word	0x312e342e
  2048d8:	616f622f 	.word	0x616f622f
  2048dc:	712f6472 	.word	0x712f6472
  2048e0:	5f756d65 	.word	0x5f756d65
  2048e4:	74726976 	.word	0x74726976
  2048e8:	7261615f 	.word	0x7261615f
  2048ec:	34366863 	.word	0x34366863
  2048f0:	6265642f 	.word	0x6265642f
  2048f4:	692f6775 	.word	0x692f6775
  2048f8:	756c636e 	.word	0x756c636e
  2048fc:	732f6564 	.word	0x732f6564
  204900:	2f346c65 	.word	0x2f346c65
  204904:	72616873 	.word	0x72616873
  204908:	745f6465 	.word	0x745f6465
  20490c:	73657079 	.word	0x73657079
  204910:	6e65675f 	.word	0x6e65675f
  204914:	0000682e 	.word	0x0000682e
  204918:	62616c28 	.word	0x62616c28
  20491c:	26206c65 	.word	0x26206c65
  204920:	78307e20 	.word	0x78307e20
  204924:	66666666 	.word	0x66666666
  204928:	66666666 	.word	0x66666666
  20492c:	66666666 	.word	0x66666666
  204930:	6c6c7566 	.word	0x6c6c7566
  204934:	3d3d2029 	.word	0x3d3d2029
  204938:	30282820 	.word	0x30282820
  20493c:	20262620 	.word	0x20262620
  204940:	62616c28 	.word	0x62616c28
  204944:	26206c65 	.word	0x26206c65
  204948:	75312820 	.word	0x75312820
  20494c:	3c206c6c 	.word	0x3c206c6c
  204950:	3336203c 	.word	0x3336203c
  204954:	20292929 	.word	0x20292929
  204958:	7830203f 	.word	0x7830203f
  20495c:	203a2030 	.word	0x203a2030
  204960:	00002930 	.word	0x00002930
  204964:	00000000 	.word	0x00000000
  204968:	70616328 	.word	0x70616328
  20496c:	776e5573 	.word	0x776e5573
  204970:	70706172 	.word	0x70706172
  204974:	26206465 	.word	0x26206465
  204978:	78307e20 	.word	0x78307e20
  20497c:	6c6c7537 	.word	0x6c6c7537
  204980:	3d3d2029 	.word	0x3d3d2029
  204984:	30282820 	.word	0x30282820
  204988:	20262620 	.word	0x20262620
  20498c:	70616328 	.word	0x70616328
  204990:	776e5573 	.word	0x776e5573
  204994:	70706172 	.word	0x70706172
  204998:	26206465 	.word	0x26206465
  20499c:	75312820 	.word	0x75312820
  2049a0:	3c206c6c 	.word	0x3c206c6c
  2049a4:	3336203c 	.word	0x3336203c
  2049a8:	20292929 	.word	0x20292929
  2049ac:	7830203f 	.word	0x7830203f
  2049b0:	203a2030 	.word	0x203a2030
  2049b4:	00002930 	.word	0x00002930
  2049b8:	74786528 	.word	0x74786528
  2049bc:	61436172 	.word	0x61436172
  2049c0:	26207370 	.word	0x26207370
  2049c4:	78307e20 	.word	0x78307e20
  2049c8:	6c6c7533 	.word	0x6c6c7533
  2049cc:	3d3d2029 	.word	0x3d3d2029
  2049d0:	30282820 	.word	0x30282820
  2049d4:	20262620 	.word	0x20262620
  2049d8:	74786528 	.word	0x74786528
  2049dc:	61436172 	.word	0x61436172
  2049e0:	26207370 	.word	0x26207370
  2049e4:	75312820 	.word	0x75312820
  2049e8:	3c206c6c 	.word	0x3c206c6c
  2049ec:	3336203c 	.word	0x3336203c
  2049f0:	20292929 	.word	0x20292929
  2049f4:	7830203f 	.word	0x7830203f
  2049f8:	203a2030 	.word	0x203a2030
  2049fc:	00002930 	.word	0x00002930
  204a00:	6e656c28 	.word	0x6e656c28
  204a04:	20687467 	.word	0x20687467
  204a08:	307e2026 	.word	0x307e2026
  204a0c:	75663778 	.word	0x75663778
  204a10:	20296c6c 	.word	0x20296c6c
  204a14:	28203d3d 	.word	0x28203d3d
  204a18:	26203028 	.word	0x26203028
  204a1c:	6c282026 	.word	0x6c282026
  204a20:	74676e65 	.word	0x74676e65
  204a24:	20262068 	.word	0x20262068
  204a28:	6c753128 	.word	0x6c753128
  204a2c:	3c3c206c 	.word	0x3c3c206c
  204a30:	29333620 	.word	0x29333620
  204a34:	3f202929 	.word	0x3f202929
  204a38:	30783020 	.word	0x30783020
  204a3c:	30203a20 	.word	0x30203a20
  204a40:	00000029 	.word	0x00000029
  204a44:	00000000 	.word	0x00000000
  204a48:	74746553 	.word	0x74746553
  204a4c:	20676e69 	.word	0x20676e69
  204a50:	656d6974 	.word	0x656d6974
  204a54:	0a74756f 	.word	0x0a74756f
	...
  204a60:	65636552 	.word	0x65636552
  204a64:	64657669 	.word	0x64657669
  204a68:	746f6e20 	.word	0x746f6e20
  204a6c:	63696669 	.word	0x63696669
  204a70:	6f697461 	.word	0x6f697461
  204a74:	7266206e 	.word	0x7266206e
  204a78:	74206d6f 	.word	0x74206d6f
  204a7c:	72656d69 	.word	0x72656d69
  204a80:	69726420 	.word	0x69726420
  204a84:	21726576 	.word	0x21726576
  204a88:	0000000a 	.word	0x0000000a
  204a8c:	00000000 	.word	0x00000000
  204a90:	54494e49 	.word	0x54494e49
  204a94:	494c4149 	.word	0x494c4149
  204a98:	49544153 	.word	0x49544153
  204a9c:	4e204e4f 	.word	0x4e204e4f
  204aa0:	4320544f 	.word	0x4320544f
  204aa4:	4c504d4f 	.word	0x4c504d4f
  204aa8:	2e455445 	.word	0x2e455445
  204aac:	49415720 	.word	0x49415720
  204ab0:	474e4954 	.word	0x474e4954
  204ab4:	524f4620 	.word	0x524f4620
  204ab8:	494e4920 	.word	0x494e4920
  204abc:	4c414954 	.word	0x4c414954
  204ac0:	54415349 	.word	0x54415349
  204ac4:	2e4e4f49 	.word	0x2e4e4f49
  204ac8:	0a202e2e 	.word	0x0a202e2e
  204acc:	00000000 	.word	0x00000000
  204ad0:	4d524f4e 	.word	0x4d524f4e
  204ad4:	53204c41 	.word	0x53204c41
  204ad8:	44454843 	.word	0x44454843
  204adc:	20454c55 	.word	0x20454c55
  204ae0:	5245504f 	.word	0x5245504f
  204ae4:	4f495441 	.word	0x4f495441
  204ae8:	00000a4e 	.word	0x00000a4e
  204aec:	00000000 	.word	0x00000000
  204af0:	49544f4e 	.word	0x49544f4e
  204af4:	4e495946 	.word	0x4e495946
  204af8:	31502047 	.word	0x31502047
  204afc:	0000000a 	.word	0x0000000a
  204b00:	49544f4e 	.word	0x49544f4e
  204b04:	4e495946 	.word	0x4e495946
  204b08:	32502047 	.word	0x32502047
  204b0c:	0000000a 	.word	0x0000000a
  204b10:	49544f4e 	.word	0x49544f4e
  204b14:	4e495946 	.word	0x4e495946
  204b18:	33502047 	.word	0x33502047
  204b1c:	0000000a 	.word	0x0000000a
  204b20:	454d4954 	.word	0x454d4954
  204b24:	52457c52 	.word	0x52457c52
  204b28:	3a524f52 	.word	0x3a524f52
  204b2c:	656e7520 	.word	0x656e7520
  204b30:	63657078 	.word	0x63657078
  204b34:	20646574 	.word	0x20646574
  204b38:	6e616863 	.word	0x6e616863
  204b3c:	216c656e 	.word	0x216c656e
  204b40:	0000000a 	.word	0x0000000a
  204b44:	00000000 	.word	0x00000000

0000000000204b48 <__func__.0>:
  204b48:	344c6573 	.word	0x344c6573
  204b4c:	73654d5f 	.word	0x73654d5f
  204b50:	65676173 	.word	0x65676173
  204b54:	6f666e49 	.word	0x6f666e49
  204b58:	77656e5f 	.word	0x77656e5f
	...

Disassembly of section .eh_frame:

0000000000204b60 <.eh_frame>:
  204b60:	00000010 	.word	0x00000010
  204b64:	00000000 	.word	0x00000000
  204b68:	00527a01 	.word	0x00527a01
  204b6c:	011e7804 	.word	0x011e7804
  204b70:	001f0c1b 	.word	0x001f0c1b
  204b74:	00000014 	.word	0x00000014
  204b78:	00000018 	.word	0x00000018
  204b7c:	ffffb488 	.word	0xffffb488
  204b80:	00000044 	.word	0x00000044
  204b84:	200e4100 	.word	0x200e4100
  204b88:	00000e4f 	.word	0x00000e4f
  204b8c:	00000014 	.word	0x00000014
  204b90:	00000030 	.word	0x00000030
  204b94:	ffffb4b4 	.word	0xffffb4b4
  204b98:	00000020 	.word	0x00000020
  204b9c:	200e4100 	.word	0x200e4100
  204ba0:	00000e46 	.word	0x00000e46
  204ba4:	0000001c 	.word	0x0000001c
  204ba8:	00000048 	.word	0x00000048
  204bac:	ffffb4bc 	.word	0xffffb4bc
  204bb0:	00000038 	.word	0x00000038
  204bb4:	300e4100 	.word	0x300e4100
  204bb8:	059e069d 	.word	0x059e069d
  204bbc:	0eddde4c 	.word	0x0eddde4c
  204bc0:	00000000 	.word	0x00000000
  204bc4:	0000001c 	.word	0x0000001c
  204bc8:	00000068 	.word	0x00000068
  204bcc:	ffffb4d4 	.word	0xffffb4d4
  204bd0:	0000004c 	.word	0x0000004c
  204bd4:	300e4100 	.word	0x300e4100
  204bd8:	059e069d 	.word	0x059e069d
  204bdc:	0eddde51 	.word	0x0eddde51
  204be0:	00000000 	.word	0x00000000
  204be4:	00000014 	.word	0x00000014
  204be8:	00000088 	.word	0x00000088
  204bec:	ffffb500 	.word	0xffffb500
  204bf0:	0000005c 	.word	0x0000005c
  204bf4:	200e4100 	.word	0x200e4100
  204bf8:	00000e55 	.word	0x00000e55
  204bfc:	00000014 	.word	0x00000014
  204c00:	000000a0 	.word	0x000000a0
  204c04:	ffffb544 	.word	0xffffb544
  204c08:	0000003c 	.word	0x0000003c
  204c0c:	100e4100 	.word	0x100e4100
  204c10:	00000e4d 	.word	0x00000e4d
  204c14:	0000001c 	.word	0x0000001c
  204c18:	000000b8 	.word	0x000000b8
  204c1c:	ffffb568 	.word	0xffffb568
  204c20:	00000070 	.word	0x00000070
  204c24:	300e4100 	.word	0x300e4100
  204c28:	059e069d 	.word	0x059e069d
  204c2c:	0eddde5a 	.word	0x0eddde5a
  204c30:	00000000 	.word	0x00000000
  204c34:	0000001c 	.word	0x0000001c
  204c38:	000000d8 	.word	0x000000d8
  204c3c:	ffffb5b8 	.word	0xffffb5b8
  204c40:	00000148 	.word	0x00000148
  204c44:	600e4100 	.word	0x600e4100
  204c48:	0b9e0c9d 	.word	0x0b9e0c9d
  204c4c:	ddde5002 	.word	0xddde5002
  204c50:	0000000e 	.word	0x0000000e
  204c54:	0000001c 	.word	0x0000001c
  204c58:	000000f8 	.word	0x000000f8
  204c5c:	ffffb6e0 	.word	0xffffb6e0
  204c60:	00000334 	.word	0x00000334
  204c64:	500e4100 	.word	0x500e4100
  204c68:	099e0a9d 	.word	0x099e0a9d
  204c6c:	dddecb02 	.word	0xdddecb02
  204c70:	0000000e 	.word	0x0000000e
  204c74:	0000001c 	.word	0x0000001c
  204c78:	00000118 	.word	0x00000118
  204c7c:	ffffb9f4 	.word	0xffffb9f4
  204c80:	0000015c 	.word	0x0000015c
  204c84:	a00e4100 	.word	0xa00e4100
  204c88:	109d4101 	.word	0x109d4101
  204c8c:	54020f9e 	.word	0x54020f9e
  204c90:	000ededd 	.word	0x000ededd
  204c94:	0000001c 	.word	0x0000001c
  204c98:	00000138 	.word	0x00000138
  204c9c:	ffffbb30 	.word	0xffffbb30
  204ca0:	0000015c 	.word	0x0000015c
  204ca4:	a00e4100 	.word	0xa00e4100
  204ca8:	109d4101 	.word	0x109d4101
  204cac:	54020f9e 	.word	0x54020f9e
  204cb0:	000ededd 	.word	0x000ededd
  204cb4:	0000001c 	.word	0x0000001c
  204cb8:	00000158 	.word	0x00000158
  204cbc:	ffffbc6c 	.word	0xffffbc6c
  204cc0:	00000648 	.word	0x00000648
  204cc4:	a00e4100 	.word	0xa00e4100
  204cc8:	9e149d01 	.word	0x9e149d01
  204ccc:	01900313 	.word	0x01900313
  204cd0:	000eddde 	.word	0x000eddde
  204cd4:	00000020 	.word	0x00000020
  204cd8:	00000178 	.word	0x00000178
  204cdc:	ffffc294 	.word	0xffffc294
  204ce0:	000004e0 	.word	0x000004e0
  204ce4:	a00e4100 	.word	0xa00e4100
  204ce8:	129d4101 	.word	0x129d4101
  204cec:	3503119e 	.word	0x3503119e
  204cf0:	0ededd01 	.word	0x0ededd01
  204cf4:	00000000 	.word	0x00000000
  204cf8:	00000024 	.word	0x00000024
  204cfc:	0000019c 	.word	0x0000019c
  204d00:	ffffc750 	.word	0xffffc750
  204d04:	000012e8 	.word	0x000012e8
  204d08:	a00e4100 	.word	0xa00e4100
  204d0c:	129d4101 	.word	0x129d4101
  204d10:	9342119e 	.word	0x9342119e
  204d14:	04b50310 	.word	0x04b50310
  204d18:	0ed3dedd 	.word	0x0ed3dedd
  204d1c:	00000000 	.word	0x00000000
  204d20:	0000001c 	.word	0x0000001c
  204d24:	000001c4 	.word	0x000001c4
  204d28:	ffffda10 	.word	0xffffda10
  204d2c:	000000c4 	.word	0x000000c4
  204d30:	b00e4100 	.word	0xb00e4100
  204d34:	9e269d02 	.word	0x9e269d02
  204d38:	ddde6f25 	.word	0xddde6f25
  204d3c:	0000000e 	.word	0x0000000e
  204d40:	0000001c 	.word	0x0000001c
  204d44:	000001e4 	.word	0x000001e4
  204d48:	ffffdab4 	.word	0xffffdab4
  204d4c:	000000c0 	.word	0x000000c0
  204d50:	a00e4100 	.word	0xa00e4100
  204d54:	9e249d02 	.word	0x9e249d02
  204d58:	ddde6e23 	.word	0xddde6e23
  204d5c:	0000000e 	.word	0x0000000e
  204d60:	0000001c 	.word	0x0000001c
  204d64:	00000204 	.word	0x00000204
  204d68:	ffffdb54 	.word	0xffffdb54
  204d6c:	000000c0 	.word	0x000000c0
  204d70:	b00e4100 	.word	0xb00e4100
  204d74:	9e269d02 	.word	0x9e269d02
  204d78:	ddde6e25 	.word	0xddde6e25
  204d7c:	0000000e 	.word	0x0000000e
  204d80:	00000020 	.word	0x00000020
  204d84:	00000224 	.word	0x00000224
  204d88:	ffffdbf4 	.word	0xffffdbf4
  204d8c:	00000064 	.word	0x00000064
  204d90:	600e4100 	.word	0x600e4100
  204d94:	0b9e0c9d 	.word	0x0b9e0c9d
  204d98:	550a9342 	.word	0x550a9342
  204d9c:	0ed3ddde 	.word	0x0ed3ddde
  204da0:	00000000 	.word	0x00000000
  204da4:	00000020 	.word	0x00000020
  204da8:	00000248 	.word	0x00000248
  204dac:	ffffdc34 	.word	0xffffdc34
  204db0:	00000068 	.word	0x00000068
  204db4:	600e4100 	.word	0x600e4100
  204db8:	0b9e0c9d 	.word	0x0b9e0c9d
  204dbc:	560a9342 	.word	0x560a9342
  204dc0:	0ed3ddde 	.word	0x0ed3ddde
  204dc4:	00000000 	.word	0x00000000
  204dc8:	0000001c 	.word	0x0000001c
  204dcc:	0000026c 	.word	0x0000026c
  204dd0:	ffffdc78 	.word	0xffffdc78
  204dd4:	000000d4 	.word	0x000000d4
  204dd8:	c00e4100 	.word	0xc00e4100
  204ddc:	9e289d02 	.word	0x9e289d02
  204de0:	ddde7327 	.word	0xddde7327
  204de4:	0000000e 	.word	0x0000000e
  204de8:	0000001c 	.word	0x0000001c
  204dec:	0000028c 	.word	0x0000028c
  204df0:	ffffdd2c 	.word	0xffffdd2c
  204df4:	00000110 	.word	0x00000110
  204df8:	400e4100 	.word	0x400e4100
  204dfc:	079e089d 	.word	0x079e089d
  204e00:	ddde4202 	.word	0xddde4202
  204e04:	0000000e 	.word	0x0000000e
  204e08:	00000014 	.word	0x00000014
  204e0c:	000002ac 	.word	0x000002ac
  204e10:	ffffde1c 	.word	0xffffde1c
  204e14:	00000020 	.word	0x00000020
  204e18:	200e4100 	.word	0x200e4100
  204e1c:	00000e46 	.word	0x00000e46
  204e20:	00000014 	.word	0x00000014
  204e24:	000002c4 	.word	0x000002c4
  204e28:	ffffde24 	.word	0xffffde24
  204e2c:	00000020 	.word	0x00000020
  204e30:	200e4100 	.word	0x200e4100
  204e34:	00000e46 	.word	0x00000e46
  204e38:	00000010 	.word	0x00000010
  204e3c:	000002dc 	.word	0x000002dc
  204e40:	ffffde2c 	.word	0xffffde2c
  204e44:	00000010 	.word	0x00000010
  204e48:	00000000 	.word	0x00000000
  204e4c:	0000001c 	.word	0x0000001c
  204e50:	000002f0 	.word	0x000002f0
  204e54:	ffffde28 	.word	0xffffde28
  204e58:	0000002c 	.word	0x0000002c
  204e5c:	200e4100 	.word	0x200e4100
  204e60:	039e049d 	.word	0x039e049d
  204e64:	0eddde49 	.word	0x0eddde49
  204e68:	00000000 	.word	0x00000000
  204e6c:	0000001c 	.word	0x0000001c
  204e70:	00000310 	.word	0x00000310
  204e74:	ffffde34 	.word	0xffffde34
  204e78:	00000038 	.word	0x00000038
  204e7c:	200e4100 	.word	0x200e4100
  204e80:	039e049d 	.word	0x039e049d
  204e84:	0eddde4c 	.word	0x0eddde4c
  204e88:	00000000 	.word	0x00000000
  204e8c:	00000014 	.word	0x00000014
  204e90:	00000330 	.word	0x00000330
  204e94:	ffffde4c 	.word	0xffffde4c
  204e98:	0000004c 	.word	0x0000004c
  204e9c:	400e4100 	.word	0x400e4100
  204ea0:	00000e51 	.word	0x00000e51
  204ea4:	00000014 	.word	0x00000014
  204ea8:	00000348 	.word	0x00000348
  204eac:	ffffde80 	.word	0xffffde80
  204eb0:	000000ac 	.word	0x000000ac
  204eb4:	400e4100 	.word	0x400e4100
  204eb8:	00000e69 	.word	0x00000e69
  204ebc:	00000028 	.word	0x00000028
  204ec0:	00000360 	.word	0x00000360
  204ec4:	ffffdf14 	.word	0xffffdf14
  204ec8:	0000007c 	.word	0x0000007c
  204ecc:	400e4100 	.word	0x400e4100
  204ed0:	079e089d 	.word	0x079e089d
  204ed4:	94069343 	.word	0x94069343
  204ed8:	96049505 	.word	0x96049505
  204edc:	ddde5a03 	.word	0xddde5a03
  204ee0:	d4d3d6d5 	.word	0xd4d3d6d5
  204ee4:	0000000e 	.word	0x0000000e
  204ee8:	0000001c 	.word	0x0000001c
  204eec:	0000038c 	.word	0x0000038c
  204ef0:	ffffdf64 	.word	0xffffdf64
  204ef4:	00000174 	.word	0x00000174
  204ef8:	800e4100 	.word	0x800e4100
  204efc:	0e9d4101 	.word	0x0e9d4101
  204f00:	5a020d9e 	.word	0x5a020d9e
  204f04:	000ededd 	.word	0x000ededd
  204f08:	00000024 	.word	0x00000024
  204f0c:	000003ac 	.word	0x000003ac
  204f10:	ffffe0b8 	.word	0xffffe0b8
  204f14:	00000108 	.word	0x00000108
  204f18:	800e4100 	.word	0x800e4100
  204f1c:	9e109d01 	.word	0x9e109d01
  204f20:	0e94420f 	.word	0x0e94420f
  204f24:	de7e0d95 	.word	0xde7e0d95
  204f28:	0ed5d4dd 	.word	0x0ed5d4dd
  204f2c:	00000000 	.word	0x00000000
  204f30:	00000014 	.word	0x00000014
  204f34:	000003d4 	.word	0x000003d4
  204f38:	ffffe198 	.word	0xffffe198
  204f3c:	00000024 	.word	0x00000024
  204f40:	200e4100 	.word	0x200e4100
  204f44:	00000e47 	.word	0x00000e47
  204f48:	0000001c 	.word	0x0000001c
  204f4c:	000003ec 	.word	0x000003ec
  204f50:	ffffe1a4 	.word	0xffffe1a4
  204f54:	00000030 	.word	0x00000030
  204f58:	200e4100 	.word	0x200e4100
  204f5c:	039e049d 	.word	0x039e049d
  204f60:	0eddde4a 	.word	0x0eddde4a
  204f64:	00000000 	.word	0x00000000
  204f68:	0000001c 	.word	0x0000001c
  204f6c:	0000040c 	.word	0x0000040c
  204f70:	ffffe1b4 	.word	0xffffe1b4
  204f74:	00000028 	.word	0x00000028
  204f78:	200e4100 	.word	0x200e4100
  204f7c:	039e049d 	.word	0x039e049d
  204f80:	0eddde48 	.word	0x0eddde48
  204f84:	00000000 	.word	0x00000000
  204f88:	0000001c 	.word	0x0000001c
  204f8c:	0000042c 	.word	0x0000042c
  204f90:	ffffe1bc 	.word	0xffffe1bc
  204f94:	0000001c 	.word	0x0000001c
  204f98:	200e4100 	.word	0x200e4100
  204f9c:	039e049d 	.word	0x039e049d
  204fa0:	0eddde45 	.word	0x0eddde45
  204fa4:	00000000 	.word	0x00000000
  204fa8:	0000001c 	.word	0x0000001c
  204fac:	0000044c 	.word	0x0000044c
  204fb0:	ffffe1b8 	.word	0xffffe1b8
  204fb4:	00000054 	.word	0x00000054
  204fb8:	300e4100 	.word	0x300e4100
  204fbc:	059e069d 	.word	0x059e069d
  204fc0:	0eddde53 	.word	0x0eddde53
  204fc4:	00000000 	.word	0x00000000
  204fc8:	00000014 	.word	0x00000014
  204fcc:	0000046c 	.word	0x0000046c
  204fd0:	ffffe1ec 	.word	0xffffe1ec
  204fd4:	00000020 	.word	0x00000020
  204fd8:	100e4100 	.word	0x100e4100
  204fdc:	00000e46 	.word	0x00000e46
  204fe0:	0000001c 	.word	0x0000001c
  204fe4:	00000484 	.word	0x00000484
  204fe8:	ffffe1f4 	.word	0xffffe1f4
  204fec:	000000ac 	.word	0x000000ac
  204ff0:	300e4100 	.word	0x300e4100
  204ff4:	059e069d 	.word	0x059e069d
  204ff8:	0eddde69 	.word	0x0eddde69
  204ffc:	00000000 	.word	0x00000000
  205000:	0000001c 	.word	0x0000001c
  205004:	000004a4 	.word	0x000004a4
  205008:	ffffe280 	.word	0xffffe280
  20500c:	00000030 	.word	0x00000030
  205010:	200e4100 	.word	0x200e4100
  205014:	039e049d 	.word	0x039e049d
  205018:	0eddde4a 	.word	0x0eddde4a
  20501c:	00000000 	.word	0x00000000
  205020:	00000014 	.word	0x00000014
  205024:	000004c4 	.word	0x000004c4
  205028:	ffffe290 	.word	0xffffe290
  20502c:	00000024 	.word	0x00000024
  205030:	100e4100 	.word	0x100e4100
  205034:	00000e47 	.word	0x00000e47
  205038:	00000014 	.word	0x00000014
  20503c:	000004dc 	.word	0x000004dc
  205040:	ffffe29c 	.word	0xffffe29c
  205044:	00000014 	.word	0x00000014
  205048:	100e4100 	.word	0x100e4100
  20504c:	00000e43 	.word	0x00000e43
  205050:	0000001c 	.word	0x0000001c
  205054:	000004f4 	.word	0x000004f4
  205058:	ffffe298 	.word	0xffffe298
  20505c:	000002a8 	.word	0x000002a8
  205060:	200e4100 	.word	0x200e4100
  205064:	039e049d 	.word	0x039e049d
  205068:	dddea802 	.word	0xdddea802
  20506c:	0000000e 	.word	0x0000000e
  205070:	00000014 	.word	0x00000014
  205074:	00000514 	.word	0x00000514
  205078:	ffffe520 	.word	0xffffe520
  20507c:	00000068 	.word	0x00000068
  205080:	300e4100 	.word	0x300e4100
  205084:	00000e58 	.word	0x00000e58
  205088:	00000014 	.word	0x00000014
  20508c:	0000052c 	.word	0x0000052c
  205090:	ffffe570 	.word	0xffffe570
  205094:	0000005c 	.word	0x0000005c
  205098:	300e4100 	.word	0x300e4100
  20509c:	00000e55 	.word	0x00000e55
  2050a0:	00000014 	.word	0x00000014
  2050a4:	00000544 	.word	0x00000544
  2050a8:	ffffe5b4 	.word	0xffffe5b4
  2050ac:	0000003c 	.word	0x0000003c
  2050b0:	300e4100 	.word	0x300e4100
  2050b4:	059e069d 	.word	0x059e069d
  2050b8:	0000001c 	.word	0x0000001c
  2050bc:	0000055c 	.word	0x0000055c
  2050c0:	ffffe5d8 	.word	0xffffe5d8
  2050c4:	00000020 	.word	0x00000020
  2050c8:	200e4100 	.word	0x200e4100
  2050cc:	039e049d 	.word	0x039e049d
  2050d0:	0eddde46 	.word	0x0eddde46
  2050d4:	00000000 	.word	0x00000000
  2050d8:	00000014 	.word	0x00000014
  2050dc:	0000057c 	.word	0x0000057c
  2050e0:	ffffe5d8 	.word	0xffffe5d8
  2050e4:	00000068 	.word	0x00000068
  2050e8:	300e4100 	.word	0x300e4100
  2050ec:	059e069d 	.word	0x059e069d
  2050f0:	00000014 	.word	0x00000014
  2050f4:	00000594 	.word	0x00000594
  2050f8:	ffffe628 	.word	0xffffe628
  2050fc:	00000024 	.word	0x00000024
  205100:	100e4100 	.word	0x100e4100
  205104:	00000e47 	.word	0x00000e47
  205108:	0000001c 	.word	0x0000001c
  20510c:	000005ac 	.word	0x000005ac
  205110:	ffffe634 	.word	0xffffe634
  205114:	00000110 	.word	0x00000110
  205118:	400e4100 	.word	0x400e4100
  20511c:	079e089d 	.word	0x079e089d
  205120:	ddde4202 	.word	0xddde4202
  205124:	0000000e 	.word	0x0000000e
  205128:	00000010 	.word	0x00000010
  20512c:	000005cc 	.word	0x000005cc
  205130:	ffffe724 	.word	0xffffe724
  205134:	00000010 	.word	0x00000010
  205138:	00000000 	.word	0x00000000
  20513c:	0000001c 	.word	0x0000001c
  205140:	000005e0 	.word	0x000005e0
  205144:	ffffe720 	.word	0xffffe720
  205148:	0000002c 	.word	0x0000002c
  20514c:	200e4100 	.word	0x200e4100
  205150:	039e049d 	.word	0x039e049d
  205154:	0eddde49 	.word	0x0eddde49
  205158:	00000000 	.word	0x00000000
  20515c:	0000001c 	.word	0x0000001c
  205160:	00000600 	.word	0x00000600
  205164:	ffffe72c 	.word	0xffffe72c
  205168:	00000038 	.word	0x00000038
  20516c:	200e4100 	.word	0x200e4100
  205170:	039e049d 	.word	0x039e049d
  205174:	0eddde4c 	.word	0x0eddde4c
  205178:	00000000 	.word	0x00000000
  20517c:	00000014 	.word	0x00000014
  205180:	00000620 	.word	0x00000620
  205184:	ffffe744 	.word	0xffffe744
  205188:	0000002c 	.word	0x0000002c
  20518c:	200e4100 	.word	0x200e4100
  205190:	00000e49 	.word	0x00000e49
  205194:	00000014 	.word	0x00000014
  205198:	00000638 	.word	0x00000638
  20519c:	ffffe758 	.word	0xffffe758
  2051a0:	000000ac 	.word	0x000000ac
  2051a4:	400e4100 	.word	0x400e4100
  2051a8:	00000e69 	.word	0x00000e69
  2051ac:	0000001c 	.word	0x0000001c
  2051b0:	00000650 	.word	0x00000650
  2051b4:	ffffe7ec 	.word	0xffffe7ec
  2051b8:	0000003c 	.word	0x0000003c
  2051bc:	200e4100 	.word	0x200e4100
  2051c0:	039e049d 	.word	0x039e049d
  2051c4:	0eddde4d 	.word	0x0eddde4d
  2051c8:	00000000 	.word	0x00000000
  2051cc:	0000001c 	.word	0x0000001c
  2051d0:	00000670 	.word	0x00000670
  2051d4:	ffffe808 	.word	0xffffe808
  2051d8:	000000c4 	.word	0x000000c4
  2051dc:	600e4100 	.word	0x600e4100
  2051e0:	9e0a9d41 	.word	0x9e0a9d41
  2051e4:	dedd6e09 	.word	0xdedd6e09
  2051e8:	0000000e 	.word	0x0000000e
  2051ec:	0000001c 	.word	0x0000001c
  2051f0:	00000690 	.word	0x00000690
  2051f4:	ffffe8ac 	.word	0xffffe8ac
  2051f8:	00000028 	.word	0x00000028
  2051fc:	200e4100 	.word	0x200e4100
  205200:	039e049d 	.word	0x039e049d
  205204:	0eddde48 	.word	0x0eddde48
  205208:	00000000 	.word	0x00000000
  20520c:	0000001c 	.word	0x0000001c
  205210:	000006b0 	.word	0x000006b0
  205214:	ffffe8b4 	.word	0xffffe8b4
  205218:	0000002c 	.word	0x0000002c
  20521c:	200e4100 	.word	0x200e4100
  205220:	039e049d 	.word	0x039e049d
  205224:	0eddde49 	.word	0x0eddde49
  205228:	00000000 	.word	0x00000000
  20522c:	0000001c 	.word	0x0000001c
  205230:	000006d0 	.word	0x000006d0
  205234:	ffffe8c0 	.word	0xffffe8c0
  205238:	00000030 	.word	0x00000030
  20523c:	200e4100 	.word	0x200e4100
  205240:	039e049d 	.word	0x039e049d
  205244:	0eddde4a 	.word	0x0eddde4a
  205248:	00000000 	.word	0x00000000
  20524c:	0000001c 	.word	0x0000001c
  205250:	000006f0 	.word	0x000006f0
  205254:	ffffe8d0 	.word	0xffffe8d0
  205258:	00000028 	.word	0x00000028
  20525c:	200e4100 	.word	0x200e4100
  205260:	039e049d 	.word	0x039e049d
  205264:	0eddde48 	.word	0x0eddde48
  205268:	00000000 	.word	0x00000000
  20526c:	0000001c 	.word	0x0000001c
  205270:	00000710 	.word	0x00000710
  205274:	ffffe8d8 	.word	0xffffe8d8
  205278:	0000001c 	.word	0x0000001c
  20527c:	200e4100 	.word	0x200e4100
  205280:	039e049d 	.word	0x039e049d
  205284:	0eddde45 	.word	0x0eddde45
  205288:	00000000 	.word	0x00000000
  20528c:	0000001c 	.word	0x0000001c
  205290:	00000730 	.word	0x00000730
  205294:	ffffe8d4 	.word	0xffffe8d4
  205298:	00000040 	.word	0x00000040
  20529c:	200e4100 	.word	0x200e4100
  2052a0:	039e049d 	.word	0x039e049d
  2052a4:	0eddde4e 	.word	0x0eddde4e
  2052a8:	00000000 	.word	0x00000000
  2052ac:	00000010 	.word	0x00000010
  2052b0:	00000750 	.word	0x00000750
  2052b4:	ffffe8f4 	.word	0xffffe8f4
  2052b8:	0000002c 	.word	0x0000002c
  2052bc:	00000000 	.word	0x00000000
  2052c0:	0000001c 	.word	0x0000001c
  2052c4:	00000764 	.word	0x00000764
  2052c8:	ffffe90c 	.word	0xffffe90c
  2052cc:	0000017c 	.word	0x0000017c
  2052d0:	200e4100 	.word	0x200e4100
  2052d4:	039e049d 	.word	0x039e049d
  2052d8:	ddde5d02 	.word	0xddde5d02
  2052dc:	0000000e 	.word	0x0000000e
  2052e0:	0000001c 	.word	0x0000001c
  2052e4:	00000784 	.word	0x00000784
  2052e8:	ffffea68 	.word	0xffffea68
  2052ec:	00000190 	.word	0x00000190
  2052f0:	300e4100 	.word	0x300e4100
  2052f4:	059e069d 	.word	0x059e069d
  2052f8:	ddde6202 	.word	0xddde6202
  2052fc:	0000000e 	.word	0x0000000e

Disassembly of section .rodata.str1.8:

0000000000205300 <.rodata.str1.8>:
  205300:	20736920 	.word	0x20736920
  205304:	7373696d 	.word	0x7373696d
  205308:	20676e69 	.word	0x20676e69
  20530c:	20656874 	.word	0x20656874
  205310:	6f727027 	.word	0x6f727027
  205314:	74636574 	.word	0x74636574
  205318:	20276465 	.word	0x20276465
  20531c:	72746e65 	.word	0x72746e65
  205320:	6f702079 	.word	0x6f702079
  205324:	0a746e69 	.word	0x0a746e69
	...
  205330:	20736920 	.word	0x20736920
  205334:	7373696d 	.word	0x7373696d
  205338:	20676e69 	.word	0x20676e69
  20533c:	20656874 	.word	0x20656874
  205340:	75616627 	.word	0x75616627
  205344:	2027746c 	.word	0x2027746c
  205348:	72746e65 	.word	0x72746e65
  20534c:	6f702079 	.word	0x6f702079
  205350:	0a746e69 	.word	0x0a746e69
  205354:	00000000 	.word	0x00000000
  205358:	65737361 	.word	0x65737361
  20535c:	66207472 	.word	0x66207472
  205360:	656c6961 	.word	0x656c6961
  205364:	00203a64 	.word	0x00203a64

Disassembly of section .data:

0000000000206000 <plist_head>:
__init_array_start():
  206000:	ffffffff 	.word	0xffffffff

0000000000206004 <init_decrement>:
/Users/jd/trustworthy-systems/arinc/ARINC/t1_prototype/microkit_tutorial/prototype_t1/build/../scheduler.c:59
  206004:	00000005 	.word	0x00000005

0000000000206008 <__sel4_ipc_buffer>:
  206008:	00207000 	.word	0x00207000
  20600c:	00000000 	.word	0x00000000

Disassembly of section .bss:

0000000000206010 <p1_state>:
	...

0000000000206018 <p2_state>:
	...

0000000000206020 <p3_state>:
	...

0000000000206028 <p1_attr>:
	...

0000000000206030 <p2_attr>:
	...

0000000000206038 <p3_attr>:
	...

0000000000206040 <partition_state_list>:
	...

0000000000206058 <partition_info_list>:
	...

0000000000206070 <curr_init>:
	...

0000000000206080 <microkit_name>:
	...

00000000002060c0 <microkit_passive>:
	...

00000000002060c1 <microkit_have_signal>:
_bss():
  2060c1:	00          	.byte	0x00
  2060c2:	0000      	.short	0x0000
  2060c4:	00000000 	.word	0x00000000

00000000002060c8 <microkit_signal_msg>:
	...

00000000002060d0 <microkit_signal_cap>:
	...

Disassembly of section .debug_info:

0000000000000000 <__sel4_ipc_buffer_obj-0x207000>:
       0:	00000e95 	.inst	0x00000e95 ; undefined
       4:	08010005 	stxrb	w1, w5, [x0]
       8:	00000000 	.inst	0x00000000 ; undefined
       c:	00027a1b 	.inst	0x00027a1b ; undefined
      10:	01941d00 	.inst	0x01941d00 ; undefined
      14:	00000000 	.inst	0x00000000 ; undefined
      18:	00040000 	.inst	0x00040000 ; undefined
      1c:	00000020 	.inst	0x00000020 ; undefined
      20:	2b180000 	adds	w0, w0, w24
	...
      2c:	01070000 	.inst	0x01070000 ; undefined
      30:	00017d06 	.inst	0x00017d06 ; undefined
      34:	05020700 	orr	z0.d, z0.d, #0x1ffffffffffffff
      38:	0000008e 	.inst	0x0000008e ; undefined
      3c:	6905041c 	.inst	0x6905041c ; undefined
      40:	0800746e 	stxrb	w0, w14, [x3]
      44:	0000003c 	.inst	0x0000003c ; undefined
      48:	0a050807 	and	w7, w0, w5, lsl #2
      4c:	08000001 	stxrb	w0, w1, [x0]
      50:	00000048 	.inst	0x00000048 ; undefined
      54:	7b080107 	.inst	0x7b080107 ; undefined
      58:	07000001 	.inst	0x07000001 ; undefined
      5c:	01d50702 	.inst	0x01d50702 ; undefined
      60:	04070000 	.inst	0x04070000 ; undefined
      64:	0001b007 	.inst	0x0001b007 ; undefined
      68:	00620800 	.inst	0x00620800 ; undefined
      6c:	850a0000 	.inst	0x850a0000 ; undefined
      70:	02000000 	.inst	0x02000000 ; undefined
      74:	007a1937 	.inst	0x007a1937 ; undefined
      78:	08070000 	stxrb	w7, w0, [x0]
      7c:	0001ab07 	.inst	0x0001ab07 ; undefined
      80:	00de0a00 	.inst	0x00de0a00 ; undefined
      84:	56020000 	.inst	0x56020000 ; undefined
      88:	00007a1a 	.inst	0x00007a1a ; undefined
      8c:	02510a00 	.inst	0x02510a00 ; undefined
      90:	28030000 	stnp	w0, w0, [x0, #24]
      94:	0000991b 	.inst	0x0000991b ; undefined
      98:	01131d00 	.inst	0x01131d00 ; undefined
      9c:	05200000 	ext	z0.b, z0.b, z0.b, #0
      a0:	0000d800 	.inst	0x0000d800 ; undefined
      a4:	015a0e00 	.inst	0x015a0e00 ; undefined
      a8:	00d80000 	.inst	0x00d80000 ; undefined
      ac:	0e000000 	tbl	v0.8b, {v0.16b}, v0.8b
      b0:	00000151 	.inst	0x00000151 ; undefined
      b4:	000000d8 	.inst	0x000000d8 ; undefined
      b8:	00fc0e08 	.inst	0x00fc0e08 ; undefined
      bc:	00d80000 	.inst	0x00d80000 ; undefined
      c0:	0e100000 	tbl	v0.8b, {v0.16b}, v16.8b
      c4:	000000d4 	.inst	0x000000d4 ; undefined
      c8:	0000003c 	.inst	0x0000003c ; undefined
      cc:	02600e18 	.inst	0x02600e18 ; undefined
      d0:	003c0000 	.inst	0x003c0000 ; NYI
      d4:	001c0000 	.inst	0x001c0000 ; undefined
      d8:	150a081e 	b	4282150 <__sel4_ipc_buffer_obj+0x407b150>
      dc:	03000001 	.inst	0x03000001 ; undefined
      e0:	008d1867 	.inst	0x008d1867 ; undefined
      e4:	980a0000 	ldrsw	x0, 140e4 <_start-0x1ebf1c>
      e8:	04000000 	add	z0.b, p0/m, z0.b, z0.b
      ec:	007a17d6 	.inst	0x007a17d6 ; undefined
      f0:	e6080000 	.inst	0xe6080000 ; undefined
      f4:	07000000 	.inst	0x07000000 ; undefined
      f8:	01050508 	.inst	0x01050508 ; undefined
      fc:	f7080000 	.inst	0xf7080000 ; undefined
     100:	07000000 	.inst	0x07000000 ; undefined
     104:	016f0410 	.inst	0x016f0410 ; undefined
     108:	620a0000 	.inst	0x620a0000 ; undefined
     10c:	01000001 	.inst	0x01000001 ; undefined
     110:	0116107a 	.inst	0x0116107a ; undefined
     114:	1b0f0000 	madd	w0, w0, w15, w0
     118:	16000001 	b	fffffffff800011c <__sel4_ipc_buffer_obj+0xfffffffff7df911c>
     11c:	00000135 	.inst	0x00000135 ; undefined
     120:	0001350b 	.inst	0x0001350b ; undefined
     124:	00d80b00 	.inst	0x00d80b00 ; undefined
     128:	e60b0000 	.inst	0xe60b0000 ; undefined
     12c:	0b000000 	add	w0, w0, w0
     130:	000000e6 	.inst	0x000000e6 ; undefined
     134:	08010700 	stxrb	w1, w0, [x24]
     138:	00000184 	.inst	0x00000184 ; undefined
     13c:	00013508 	.inst	0x00013508 ; undefined
     140:	01101f00 	.inst	0x01101f00 ; undefined
     144:	0163097e 	.inst	0x0163097e ; undefined
     148:	66170000 	.inst	0x66170000 ; undefined
     14c:	7f007463 	.inst	0x7f007463 ; undefined
     150:	0001730b 	.inst	0x0001730b ; undefined
     154:	61170000 	.inst	0x61170000 ; undefined
     158:	80006772 	.inst	0x80006772 ; undefined
     15c:	0000d809 	.inst	0x0000d809 ; undefined
     160:	16000800 	b	fffffffff8002160 <__sel4_ipc_buffer_obj+0xfffffffff7dfb160>
     164:	00000173 	.inst	0x00000173 ; undefined
     168:	0001350b 	.inst	0x0001350b ; undefined
     16c:	00d80b00 	.inst	0x00d80b00 ; undefined
     170:	0f000000 	.inst	0x0f000000 ; undefined
     174:	00000163 	.inst	0x00000163 ; undefined
     178:	0002330a 	.inst	0x0002330a ; undefined
     17c:	03810100 	.inst	0x03810100 ; undefined
     180:	00000141 	.inst	0x00000141 ; undefined
     184:	00017808 	.inst	0x00017808 ; undefined
     188:	02dc2000 	.inst	0x02dc2000 ; undefined
     18c:	31060000 	adds	w0, w0, #0x180
     190:	00019b06 	.inst	0x00019b06 ; undefined
     194:	01350b00 	.inst	0x01350b00 ; undefined
     198:	0c000000 	st4	{v0.8b-v3.8b}, [x0]
     19c:	000000f2 	.inst	0x000000f2 ; undefined
     1a0:	003c038a 	.inst	0x003c038a ; NYI
     1a4:	2a480000 	orr	w0, w0, w8, lsr #0
     1a8:	00000020 	.inst	0x00000020 ; undefined
     1ac:	00d40000 	.inst	0x00d40000 ; undefined
     1b0:	00000000 	.inst	0x00000000 ; undefined
     1b4:	9c010000 	ldr	q0, 21b4 <_start-0x1fde4c>
     1b8:	0000021d 	.inst	0x0000021d ; undefined
     1bc:	74756f06 	.inst	0x74756f06 ; undefined
     1c0:	16038a00 	b	fffffffff80e29c0 <__sel4_ipc_buffer_obj+0xfffffffff7edb9c0>
     1c4:	00000173 	.inst	0x00000173 ; undefined
     1c8:	7e889103 	.inst	0x7e889103 ; undefined
     1cc:	67726106 	.inst	0x67726106 ; undefined
     1d0:	3d038a00 	str	b0, [x16, #226]
     1d4:	000000d8 	.inst	0x000000d8 ; undefined
     1d8:	7e809103 	.inst	0x7e809103 ; undefined
     1dc:	00012801 	.inst	0x00012801 ; undefined
     1e0:	4e038a00 	.inst	0x4e038a00 ; undefined
     1e4:	0000021d 	.inst	0x0000021d ; undefined
     1e8:	7df89103 	.inst	0x7df89103 ; undefined
     1ec:	61760411 	.inst	0x61760411 ; undefined
     1f0:	0b038c00 	.inst	0x0b038c00 ; undefined
     1f4:	000000da 	.inst	0x000000da ; undefined
     1f8:	7ea89103 	.inst	0x7ea89103 ; undefined
     1fc:	00006702 	.inst	0x00006702 ; undefined
     200:	1b038e00 	msub	w0, w16, w3, w3
     204:	00000184 	.inst	0x00000184 ; undefined
     208:	7e989103 	.inst	0x7e989103 ; undefined
     20c:	74657204 	.inst	0x74657204 ; undefined
     210:	0d038f00 	.inst	0x0d038f00 ; undefined
     214:	00000043 	.inst	0x00000043 ; undefined
     218:	7ecc9103 	.inst	0x7ecc9103 ; undefined
     21c:	013c0f00 	.inst	0x013c0f00 ; undefined
     220:	bd0c0000 	str	s0, [x0, #3072]
     224:	84000001 	ld1sb	{z1.s}, p0/z, [x0, z0.s, uxtw]
     228:	00003c03 	.inst	0x00003c03 ; undefined
     22c:	2029e000 	.inst	0x2029e000 ; undefined
     230:	00000000 	.inst	0x00000000 ; undefined
     234:	00006800 	.inst	0x00006800 ; undefined
     238:	00000000 	.inst	0x00000000 ; undefined
     23c:	7f9c0100 	.inst	0x7f9c0100 ; undefined
     240:	01000002 	.inst	0x01000002 ; undefined
     244:	000004eb 	.inst	0x000004eb ; undefined
     248:	7f160384 	.inst	0x7f160384 ; undefined
     24c:	02000002 	.inst	0x02000002 ; undefined
     250:	2d017891 	stp	s17, s30, [x4, #8]
     254:	84000002 	ld1sb	{z2.s}, p0/z, [x0, z0.s, uxtw]
     258:	00e62503 	.inst	0x00e62503 ; undefined
     25c:	91020000 	add	x0, x0, #0x80
     260:	01280170 	.inst	0x01280170 ; undefined
     264:	03840000 	.inst	0x03840000 ; undefined
     268:	00021d38 	.inst	0x00021d38 ; undefined
     26c:	68910200 	.inst	0x68910200 ; undefined
     270:	00617606 	.inst	0x00617606 ; undefined
     274:	da480384 	.inst	0xda480384 ; undefined
     278:	02000000 	.inst	0x02000000 ; undefined
     27c:	0f000083 	.inst	0x0f000083 ; undefined
     280:	00000135 	.inst	0x00000135 ; undefined
     284:	0002ef0c 	.inst	0x0002ef0c ; undefined
     288:	3c037d00 	str	b0, [x8, #55]!
     28c:	7c000000 	stur	h0, [x0]
     290:	00002029 	.inst	0x00002029 ; undefined
     294:	64000000 	.inst	0x64000000 ; undefined
     298:	00000000 	.inst	0x00000000 ; undefined
     29c:	01000000 	.inst	0x01000000 ; undefined
     2a0:	0002d29c 	.inst	0x0002d29c ; undefined
     2a4:	01280100 	.inst	0x01280100 ; undefined
     2a8:	037d0000 	.inst	0x037d0000 ; undefined
     2ac:	00021d1a 	.inst	0x00021d1a ; undefined
     2b0:	68910200 	.inst	0x68910200 ; undefined
     2b4:	00617606 	.inst	0x00617606 ; undefined
     2b8:	da2a037d 	.inst	0xda2a037d ; undefined
     2bc:	02000000 	.inst	0x02000000 ; undefined
     2c0:	eb020083 	subs	x3, x4, x2
     2c4:	7f000004 	.inst	0x7f000004 ; undefined
     2c8:	02d20803 	.inst	0x02d20803 ; undefined
     2cc:	91020000 	add	x0, x0, #0x80
     2d0:	35120078 	cbnz	w24, 242dc <_start-0x1dbd24>
     2d4:	e2000001 	.inst	0xe2000001 ; undefined
     2d8:	13000002 	sbfx	w2, w0, #0, #1
     2dc:	0000007a 	.inst	0x0000007a ; undefined
     2e0:	be0c0000 	.inst	0xbe0c0000 ; undefined
     2e4:	73000001 	.inst	0x73000001 ; undefined
     2e8:	00003c03 	.inst	0x00003c03 ; undefined
     2ec:	2028bc00 	.inst	0x2028bc00 ; undefined
     2f0:	00000000 	.inst	0x00000000 ; undefined
     2f4:	0000c000 	.inst	0x0000c000 ; undefined
     2f8:	00000000 	.inst	0x00000000 ; undefined
     2fc:	549c0100 	b.eq	fffffffffff3831c <__sel4_ipc_buffer_obj+0xffffffffffd3131c>  // b.none
     300:	01000003 	.inst	0x01000003 ; undefined
     304:	000004eb 	.inst	0x000004eb ; undefined
     308:	7f150373 	.inst	0x7f150373 ; undefined
     30c:	03000002 	.inst	0x03000002 ; undefined
     310:	017e9891 	.inst	0x017e9891 ; undefined
     314:	0000022d 	.inst	0x0000022d ; undefined
     318:	e6240373 	.inst	0xe6240373 ; undefined
     31c:	03000000 	.inst	0x03000000 ; undefined
     320:	017e9091 	.inst	0x017e9091 ; undefined
     324:	00000128 	.inst	0x00000128 ; undefined
     328:	1d370373 	.inst	0x1d370373 ; undefined
     32c:	03000002 	.inst	0x03000002 ; undefined
     330:	117e8891 	add	w17, w4, #0xfa2, lsl #12
     334:	00617604 	.inst	0x00617604 ; undefined
     338:	da0b0375 	sbc	x21, x27, x11
     33c:	03000000 	.inst	0x03000000 ; undefined
     340:	047ea891 	adr	z17.d, [z4.d, z30.d, uxtw #2]
     344:	00746572 	.inst	0x00746572 ; undefined
     348:	430d0377 	.inst	0x430d0377 ; undefined
     34c:	03000000 	.inst	0x03000000 ; undefined
     350:	007ecc91 	.inst	0x007ecc91 ; undefined
     354:	0001f90c 	.inst	0x0001f90c ; undefined
     358:	3c036900 	.inst	0x3c036900 ; undefined
     35c:	fc000000 	stur	d0, [x0]
     360:	00002027 	.inst	0x00002027 ; undefined
     364:	c0000000 	.inst	0xc0000000 ; undefined
     368:	00000000 	.inst	0x00000000 ; undefined
     36c:	01000000 	.inst	0x01000000 ; undefined
     370:	0003b69c 	.inst	0x0003b69c ; undefined
     374:	04eb0100 	add	z0.d, z8.d, z11.d
     378:	03690000 	.inst	0x03690000 ; undefined
     37c:	00027f14 	.inst	0x00027f14 ; undefined
     380:	98910300 	ldrsw	x0, fffffffffff223e0 <__sel4_ipc_buffer_obj+0xffffffffffd1b3e0>
     384:	0128017e 	.inst	0x0128017e ; undefined
     388:	03690000 	.inst	0x03690000 ; undefined
     38c:	00021d28 	.inst	0x00021d28 ; undefined
     390:	90910300 	adrp	x0, ffffffff22060000 <__sel4_ipc_buffer_obj+0xffffffff21e59000>
     394:	7604117e 	.inst	0x7604117e ; undefined
     398:	036b0061 	.inst	0x036b0061 ; undefined
     39c:	0000da0b 	.inst	0x0000da0b ; undefined
     3a0:	a8910300 	stp	x0, x0, [x24], #272
     3a4:	6572047e 	fmla	z30.h, p1/m, z3.h, z18.h
     3a8:	036d0074 	.inst	0x036d0074 ; undefined
     3ac:	0000430d 	.inst	0x0000430d ; undefined
     3b0:	cc910300 	.inst	0xcc910300 ; undefined
     3b4:	c00c007e 	.inst	0xc00c007e ; undefined
     3b8:	5e000001 	sha1c	q1, s0, v0.4s
     3bc:	00003c03 	.inst	0x00003c03 ; undefined
     3c0:	20273800 	.inst	0x20273800 ; undefined
     3c4:	00000000 	.inst	0x00000000 ; undefined
     3c8:	0000c400 	.inst	0x0000c400 ; undefined
     3cc:	00000000 	.inst	0x00000000 ; undefined
     3d0:	189c0100 	ldr	w0, fffffffffff383f0 <__sel4_ipc_buffer_obj+0xffffffffffd313f0>
     3d4:	01000004 	.inst	0x01000004 ; undefined
     3d8:	00000128 	.inst	0x00000128 ; undefined
     3dc:	1d19035e 	.inst	0x1d19035e ; undefined
     3e0:	03000002 	.inst	0x03000002 ; undefined
     3e4:	117e8891 	add	w17, w4, #0xfa2, lsl #12
     3e8:	00617604 	.inst	0x00617604 ; undefined
     3ec:	da0b0360 	sbc	x0, x27, x11
     3f0:	03000000 	.inst	0x03000000 ; undefined
     3f4:	027e9891 	.inst	0x027e9891 ; undefined
     3f8:	000004eb 	.inst	0x000004eb ; undefined
     3fc:	d2080362 	eor	x2, x27, #0x100000001000000
     400:	03000002 	.inst	0x03000002 ; undefined
     404:	047e9091 	asr	z17.s, z4.s, #2
     408:	00746572 	.inst	0x00746572 ; undefined
     40c:	430d0363 	.inst	0x430d0363 ; undefined
     410:	03000000 	.inst	0x03000000 ; undefined
     414:	007ebc91 	.inst	0x007ebc91 ; undefined
     418:	00013510 	.inst	0x00013510 ; undefined
     41c:	0c024100 	.inst	0x0c024100 ; undefined
     420:	0000003c 	.inst	0x0000003c ; undefined
     424:	00201450 	.inst	0x00201450 ; NYI
     428:	00000000 	.inst	0x00000000 ; undefined
     42c:	000012e8 	.inst	0x000012e8 ; undefined
     430:	00000000 	.inst	0x00000000 ; undefined
     434:	06459c01 	.inst	0x06459c01 ; undefined
     438:	6f060000 	.inst	0x6f060000 ; undefined
     43c:	41007475 	.inst	0x41007475 ; undefined
     440:	010a2402 	.inst	0x010a2402 ; undefined
     444:	91030000 	add	x0, x0, #0xc0
     448:	eb017fa8 	subs	x8, x29, x1, lsl #31
     44c:	41000004 	.inst	0x41000004 ; undefined
     450:	027f2f02 	.inst	0x027f2f02 ; undefined
     454:	91030000 	add	x0, x0, #0xc0
     458:	c8017fa0 	stxr	w1, x0, [x29]
     45c:	41000001 	.inst	0x41000001 ; undefined
     460:	00f24402 	.inst	0x00f24402 ; undefined
     464:	91030000 	add	x0, x0, #0xc0
     468:	28017f98 	stnp	w24, wzr, [x28, #8]
     46c:	41000001 	.inst	0x41000001 ; undefined
     470:	021d5802 	.inst	0x021d5802 ; undefined
     474:	91030000 	add	x0, x0, #0xc0
     478:	76067f90 	.inst	0x76067f90 ; undefined
     47c:	02410061 	.inst	0x02410061 ; undefined
     480:	0000da68 	.inst	0x0000da68 ; undefined
     484:	00830200 	.inst	0x00830200 ; undefined
     488:	0001a002 	.inst	0x0001a002 ; undefined
     48c:	10024300 	adr	x0, 4cec <_start-0x1fb314>
     490:	00000062 	.inst	0x00000062 ; undefined
     494:	027c9102 	.inst	0x027c9102 ; undefined
     498:	0000024b 	.inst	0x0000024b ; undefined
     49c:	62170243 	.inst	0x62170243 ; undefined
     4a0:	02000000 	.inst	0x02000000 ; undefined
     4a4:	e5027891 	stnt1w	{z17.s}, p6, [x4, x2, lsl #2]
     4a8:	43000002 	.inst	0x43000002 ; undefined
     4ac:	00621e02 	.inst	0x00621e02 ; undefined
     4b0:	91020000 	add	x0, x0, #0x80
     4b4:	006e0474 	.inst	0x006e0474 ; undefined
     4b8:	62290243 	.inst	0x62290243 ; undefined
     4bc:	02000000 	.inst	0x02000000 ; undefined
     4c0:	69047091 	.inst	0x69047091 ; undefined
     4c4:	44007864 	.inst	0x44007864 ; undefined
     4c8:	00e60a02 	.inst	0x00e60a02 ; undefined
     4cc:	91020000 	add	x0, x0, #0x80
     4d0:	16440968 	b	fffffffff9102a70 <__sel4_ipc_buffer_obj+0xfffffffff8efba70>
     4d4:	00000020 	.inst	0x00000020 ; undefined
     4d8:	00940000 	.inst	0x00940000 ; undefined
     4dc:	00000000 	.inst	0x00000000 ; undefined
     4e0:	04f40000 	add	z0.d, z0.d, z20.d
     4e4:	77040000 	.inst	0x77040000 ; undefined
     4e8:	11026c00 	add	w0, w0, #0x9b
     4ec:	00000043 	.inst	0x00000043 ; undefined
     4f0:	00509102 	.inst	0x00509102 ; undefined
     4f4:	20174009 	.inst	0x20174009 ; undefined
     4f8:	00000000 	.inst	0x00000000 ; undefined
     4fc:	00007c00 	.inst	0x00007c00 ; undefined
     500:	00000000 	.inst	0x00000000 ; undefined
     504:	00051900 	.inst	0x00051900 ; undefined
     508:	02450200 	.inst	0x02450200 ; undefined
     50c:	02800000 	.inst	0x02800000 ; undefined
     510:	00004313 	.inst	0x00004313 ; undefined
     514:	4c910200 	st4	{v0.16b-v3.16b}, [x16], x17
     518:	19b40900 	.inst	0x19b40900 ; undefined
     51c:	00000020 	.inst	0x00000020 ; undefined
     520:	06d80000 	.inst	0x06d80000 ; undefined
     524:	00000000 	.inst	0x00000000 ; undefined
     528:	05d00000 	mov	z0.d, p0/z, #0
     52c:	1d020000 	.inst	0x1d020000 ; undefined
     530:	b4000001 	cbz	x1, 530 <_start-0x1ffad0>
     534:	00621602 	.inst	0x00621602 ; undefined
     538:	91020000 	add	x0, x0, #0x80
     53c:	1ac00964 	udiv	w4, w11, w0
     540:	00000020 	.inst	0x00000020 ; undefined
     544:	00b00000 	.inst	0x00b00000 ; undefined
     548:	00000000 	.inst	0x00000000 ; undefined
     54c:	05630000 	.inst	0x05630000 ; undefined
     550:	c5020000 	ld1sw	{z0.d}, p0/z, [x0, z2.d, uxtw]
     554:	d6000000 	.inst	0xd6000000 ; undefined
     558:	00fe1d02 	.inst	0x00fe1d02 ; undefined
     55c:	91030000 	add	x0, x0, #0xc0
     560:	09007fb0 	.inst	0x09007fb0 ; undefined
     564:	00201b84 	.inst	0x00201b84 ; NYI
     568:	00000000 	.inst	0x00000000 ; undefined
     56c:	000000b0 	.inst	0x000000b0 ; undefined
     570:	00000000 	.inst	0x00000000 ; undefined
     574:	00000589 	.inst	0x00000589 ; undefined
     578:	0000c502 	.inst	0x0000c502 ; undefined
     57c:	1802db00 	ldr	w0, 60dc <_start-0x1f9f24>
     580:	0000004f 	.inst	0x0000004f ; undefined
     584:	7fb89103 	fmulx	s3, s8, v24.s[1]
     588:	1c380900 	ldr	s0, 706a8 <_start-0x18f958>
     58c:	00000020 	.inst	0x00000020 ; undefined
     590:	01880000 	.inst	0x01880000 ; undefined
     594:	00000000 	.inst	0x00000000 ; undefined
     598:	05ae0000 	.inst	0x05ae0000 ; undefined
     59c:	c5020000 	ld1sw	{z0.d}, p0/z, [x0, z2.d, uxtw]
     5a0:	df000000 	.inst	0xdf000000 ; undefined
     5a4:	00431702 	.inst	0x00431702 ; undefined
     5a8:	91020000 	add	x0, x0, #0x80
     5ac:	0c0d0040 	.inst	0x0c0d0040 ; undefined
     5b0:	0000201f 	.inst	0x0000201f ; undefined
     5b4:	70000000 	adr	x0, 5b7 <_start-0x1ffa49>
     5b8:	00000001 	.inst	0x00000001 ; undefined
     5bc:	02000000 	.inst	0x02000000 ; undefined
     5c0:	000000c5 	.inst	0x000000c5 ; undefined
     5c4:	692002ee 	.inst	0x692002ee ; undefined
     5c8:	02000000 	.inst	0x02000000 ; undefined
     5cc:	00004491 	.inst	0x00004491 ; undefined
     5d0:	20221009 	.inst	0x20221009 ; undefined
     5d4:	00000000 	.inst	0x00000000 ; undefined
     5d8:	00013400 	.inst	0x00013400 ; undefined
     5dc:	00000000 	.inst	0x00000000 ; undefined
     5e0:	0005f300 	.inst	0x0005f300 ; undefined
     5e4:	006c0400 	.inst	0x006c0400 ; undefined
     5e8:	62160309 	.inst	0x62160309 ; undefined
     5ec:	02000000 	.inst	0x02000000 ; undefined
     5f0:	09006091 	.inst	0x09006091 ; undefined
     5f4:	00202344 	.inst	0x00202344 ; NYI
     5f8:	00000000 	.inst	0x00000000 ; undefined
     5fc:	000001c4 	.inst	0x000001c4 ; undefined
     600:	00000000 	.inst	0x00000000 ; undefined
     604:	00000623 	.inst	0x00000623 ; undefined
     608:	1d007004 	.inst	0x1d007004 ; undefined
     60c:	021d1503 	.inst	0x021d1503 ; undefined
     610:	91020000 	add	x0, x0, #0x80
     614:	006c0458 	.inst	0x006c0458 ; undefined
     618:	6216031e 	.inst	0x6216031e ; undefined
     61c:	02000000 	.inst	0x02000000 ; undefined
     620:	0d005491 	.inst	0x0d005491 ; undefined
     624:	00202508 	.inst	0x00202508 ; NYI
     628:	00000000 	.inst	0x00000000 ; undefined
     62c:	00000164 	.inst	0x00000164 ; undefined
     630:	00000000 	.inst	0x00000000 ; undefined
     634:	0002d602 	.inst	0x0002d602 ; undefined
     638:	14033a00 	b	cee38 <_start-0x1311c8>
     63c:	0000064c 	.inst	0x0000064c ; undefined
     640:	004b9102 	.inst	0x004b9102 ; undefined
     644:	02010700 	.inst	0x02010700 ; undefined
     648:	0000149c 	.inst	0x0000149c ; undefined
     64c:	00064508 	.inst	0x00064508 ; undefined
     650:	00a81000 	.inst	0x00a81000 ; undefined
     654:	01d30000 	.inst	0x01d30000 ; undefined
     658:	0000e60f 	.inst	0x0000e60f ; undefined
     65c:	200f7000 	.inst	0x200f7000 ; undefined
     660:	00000000 	.inst	0x00000000 ; undefined
     664:	0004e000 	.inst	0x0004e000 ; undefined
     668:	00000000 	.inst	0x00000000 ; undefined
     66c:	959c0100 	bl	6700a6c <__sel4_ipc_buffer_obj+0x64f9a6c>
     670:	06000007 	.inst	0x06000007 ; undefined
     674:	0074756f 	.inst	0x0074756f ; undefined
     678:	0a2201d3 	bic	w19, w14, w2
     67c:	03000001 	.inst	0x03000001 ; undefined
     680:	017fb891 	.inst	0x017fb891 ; undefined
     684:	000004eb 	.inst	0x000004eb ; undefined
     688:	7f2d01d3 	.inst	0x7f2d01d3 ; undefined
     68c:	03000002 	.inst	0x03000002 ; undefined
     690:	067fb091 	.inst	0x067fb091 ; undefined
     694:	00786469 	.inst	0x00786469 ; undefined
     698:	e63c01d3 	.inst	0xe63c01d3 ; undefined
     69c:	03000000 	.inst	0x03000000 ; undefined
     6a0:	017fa891 	.inst	0x017fa891 ; undefined
     6a4:	000001c8 	.inst	0x000001c8 ; undefined
     6a8:	e64801d3 	.inst	0xe64801d3 ; undefined
     6ac:	03000000 	.inst	0x03000000 ; undefined
     6b0:	017fa091 	.inst	0x017fa091 ; undefined
     6b4:	000000c5 	.inst	0x000000c5 ; undefined
     6b8:	955701d3 	bl	55c0e04 <__sel4_ipc_buffer_obj+0x53b9e04>
     6bc:	03000007 	.inst	0x03000007 ; undefined
     6c0:	017f9891 	.inst	0x017f9891 ; undefined
     6c4:	00000245 	.inst	0x00000245 ; undefined
     6c8:	626b01d3 	.inst	0x626b01d3 ; undefined
     6cc:	03000000 	.inst	0x03000000 ; undefined
     6d0:	017f9491 	.inst	0x017f9491 ; undefined
     6d4:	0000024b 	.inst	0x0000024b ; undefined
     6d8:	627e01d3 	.inst	0x627e01d3 ; undefined
     6dc:	03000000 	.inst	0x03000000 ; undefined
     6e0:	017f9091 	.inst	0x017f9091 ; undefined
     6e4:	000001a0 	.inst	0x000001a0 ; undefined
     6e8:	629201d3 	.inst	0x629201d3 ; undefined
     6ec:	03000000 	.inst	0x03000000 ; undefined
     6f0:	027f8c91 	.inst	0x027f8c91 ; undefined
     6f4:	00000211 	.inst	0x00000211 ; undefined
     6f8:	4c0e01db 	.inst	0x4c0e01db ; undefined
     6fc:	02000006 	.inst	0x02000006 ; undefined
     700:	08217391 	.inst	0x08217391 ; undefined
     704:	0301e701 	.inst	0x0301e701 ; undefined
     708:	0000071f 	.inst	0x0000071f ; undefined
     70c:	e8005518 	.inst	0xe8005518 ; undefined
     710:	00006e01 	.inst	0x00006e01 ; undefined
     714:	00461800 	.inst	0x00461800 ; undefined
     718:	079501e9 	.inst	0x079501e9 ; undefined
     71c:	02000000 	.inst	0x02000000 ; undefined
     720:	0000020c 	.inst	0x0000020c ; undefined
     724:	020501ea 	.inst	0x020501ea ; undefined
     728:	02000007 	.inst	0x02000007 ; undefined
     72c:	62024891 	.inst	0x62024891 ; undefined
     730:	ed000000 	.inst	0xed000000 ; undefined
     734:	003c0701 	.inst	0x003c0701 ; NYI
     738:	91020000 	add	x0, x0, #0x80
     73c:	014a026c 	.inst	0x014a026c ; undefined
     740:	01f00000 	.inst	0x01f00000 ; undefined
     744:	00003c07 	.inst	0x00003c07 ; undefined
     748:	7c910200 	.inst	0x7c910200 ; undefined
     74c:	f3007a04 	.inst	0xf3007a04 ; undefined
     750:	079c1001 	.inst	0x079c1001 ; undefined
     754:	91020000 	add	x0, x0, #0x80
     758:	327a0460 	.inst	0x327a0460 ; undefined
     75c:	1001f400 	adr	x0, 45dc <_start-0x1fba24>
     760:	0000079c 	.inst	0x0000079c ; undefined
     764:	02589102 	.inst	0x02589102 ; undefined
     768:	0000009f 	.inst	0x0000009f ; undefined
     76c:	621001ff 	.inst	0x621001ff ; undefined
     770:	02000000 	.inst	0x02000000 ; undefined
     774:	4a027891 	eor	w17, w4, w2, lsl #30
     778:	19000002 	.inst	0x19000002 ; undefined
     77c:	00621002 	.inst	0x00621002 ; undefined
     780:	91020000 	add	x0, x0, #0x80
     784:	00e80274 	.inst	0x00e80274 ; undefined
     788:	022c0000 	.inst	0x022c0000 ; undefined
     78c:	0000f210 	.inst	0x0000f210 ; undefined
     790:	50910200 	adr	x0, fffffffffff227d2 <__sel4_ipc_buffer_obj+0xffffffffffd1b7d2>
     794:	04080700 	smax	z0.b, p1/m, z0.b, z24.b
     798:	00000174 	.inst	0x00000174 ; undefined
     79c:	00079508 	.inst	0x00079508 ; undefined
     7a0:	012f1000 	.inst	0x012f1000 ; undefined
     7a4:	01530000 	.inst	0x01530000 ; undefined
     7a8:	0000e60f 	.inst	0x0000e60f ; undefined
     7ac:	20092800 	.inst	0x20092800 ; undefined
     7b0:	00000000 	.inst	0x00000000 ; undefined
     7b4:	00064800 	.inst	0x00064800 ; undefined
     7b8:	00000000 	.inst	0x00000000 ; undefined
     7bc:	e59c0100 	str	p0, [x8, #224, mul vl]
     7c0:	06000008 	.inst	0x06000008 ; undefined
     7c4:	0074756f 	.inst	0x0074756f ; undefined
     7c8:	0a220153 	bic	w19, w10, w2
     7cc:	03000001 	.inst	0x03000001 ; undefined
     7d0:	017fa891 	.inst	0x017fa891 ; undefined
     7d4:	000004eb 	.inst	0x000004eb ; undefined
     7d8:	7f2d0153 	.inst	0x7f2d0153 ; undefined
     7dc:	03000002 	.inst	0x03000002 ; undefined
     7e0:	067fa091 	.inst	0x067fa091 ; undefined
     7e4:	00786469 	.inst	0x00786469 ; undefined
     7e8:	e63c0153 	.inst	0xe63c0153 ; undefined
     7ec:	03000000 	.inst	0x03000000 ; undefined
     7f0:	017f9891 	.inst	0x017f9891 ; undefined
     7f4:	000001c8 	.inst	0x000001c8 ; undefined
     7f8:	e6480153 	.inst	0xe6480153 ; undefined
     7fc:	03000000 	.inst	0x03000000 ; undefined
     800:	017f9091 	.inst	0x017f9091 ; undefined
     804:	000000c5 	.inst	0x000000c5 ; undefined
     808:	95570153 	bl	55c0d54 <__sel4_ipc_buffer_obj+0x53b9d54>
     80c:	03000007 	.inst	0x03000007 ; undefined
     810:	017f8891 	.inst	0x017f8891 ; undefined
     814:	00000245 	.inst	0x00000245 ; undefined
     818:	626b0153 	.inst	0x626b0153 ; undefined
     81c:	03000000 	.inst	0x03000000 ; undefined
     820:	017f8491 	.inst	0x017f8491 ; undefined
     824:	0000024b 	.inst	0x0000024b ; undefined
     828:	627e0153 	.inst	0x627e0153 ; undefined
     82c:	03000000 	.inst	0x03000000 ; undefined
     830:	017f8091 	.inst	0x017f8091 ; undefined
     834:	000001a0 	.inst	0x000001a0 ; undefined
     838:	62920153 	.inst	0x62920153 ; undefined
     83c:	03000000 	.inst	0x03000000 ; undefined
     840:	047efc91 	uqdech	x17, vl4, mul #15
     844:	00667562 	.inst	0x00667562 ; undefined
     848:	e5080155 	.inst	0xe5080155 ; undefined
     84c:	03000008 	.inst	0x03000008 ; undefined
     850:	047fb091 	ftssel	z17.h, z4.h, z31.h
     854:	006e656c 	.inst	0x006e656c ; undefined
     858:	e60a0156 	.inst	0xe60a0156 ; undefined
     85c:	02000000 	.inst	0x02000000 ; undefined
     860:	74027891 	.inst	0x74027891 ; undefined
     864:	57000000 	.inst	0x57000000 ; undefined
     868:	07950a01 	.inst	0x07950a01 ; undefined
     86c:	91020000 	add	x0, x0, #0x80
     870:	005c0258 	.inst	0x005c0258 ; undefined
     874:	015a0000 	.inst	0x015a0000 ; undefined
     878:	00090517 	.inst	0x00090517 ; undefined
     87c:	80030900 	.inst	0x80030900 ; undefined
     880:	00002043 	.inst	0x00002043 ; undefined
     884:	02000000 	.inst	0x02000000 ; undefined
     888:	00000211 	.inst	0x00000211 ; undefined
     88c:	4508016f 	.inst	0x4508016f ; undefined
     890:	02000006 	.inst	0x02000006 ; undefined
     894:	f3027791 	.inst	0xf3027791 ; undefined
     898:	7f000001 	.inst	0x7f000001 ; undefined
     89c:	003c0701 	.inst	0x003c0701 ; NYI
     8a0:	91020000 	add	x0, x0, #0x80
     8a4:	6d740470 	ldp	d16, d1, [x3, #-192]
     8a8:	01800070 	.inst	0x01800070 ; undefined
     8ac:	0007950a 	.inst	0x0007950a ; undefined
     8b0:	50910200 	adr	x0, fffffffffff228f2 <__sel4_ipc_buffer_obj+0xffffffffffd1b8f2>
     8b4:	0000c002 	.inst	0x0000c002 ; undefined
     8b8:	11018100 	add	w0, w8, #0x60
     8bc:	0000007a 	.inst	0x0000007a ; undefined
     8c0:	0d689102 	.inst	0x0d689102 ; undefined
     8c4:	00200c98 	.inst	0x00200c98 ; NYI
     8c8:	00000000 	.inst	0x00000000 ; undefined
     8cc:	000000f8 	.inst	0x000000f8 ; undefined
     8d0:	00000000 	.inst	0x00000000 ; undefined
     8d4:	00022d02 	.inst	0x00022d02 ; undefined
     8d8:	12019c00 	and	w0, w0, #0x807f807f
     8dc:	00000062 	.inst	0x00000062 ; undefined
     8e0:	00649102 	.inst	0x00649102 ; undefined
     8e4:	01351200 	.inst	0x01351200 ; undefined
     8e8:	08f50000 	.inst	0x08f50000 ; undefined
     8ec:	7a130000 	sbcs	w0, w0, w19
     8f0:	1f000000 	fmadd	s0, s0, s0, s0
     8f4:	079c1200 	.inst	0x079c1200 ; undefined
     8f8:	09050000 	.inst	0x09050000 ; undefined
     8fc:	7a130000 	sbcs	w0, w0, w19
     900:	09000000 	.inst	0x09000000 ; undefined
     904:	08f50800 	.inst	0x08f50800 ; undefined
     908:	6a100000 	ands	w0, w0, w16
     90c:	32000002 	orr	w2, w0, #0x1
     910:	00e60f01 	.inst	0x00e60f01 ; undefined
     914:	07cc0000 	.inst	0x07cc0000 ; undefined
     918:	00000020 	.inst	0x00000020 ; undefined
     91c:	015c0000 	.inst	0x015c0000 ; undefined
     920:	00000000 	.inst	0x00000000 ; undefined
     924:	9c010000 	ldr	q0, 2924 <_start-0x1fd6dc>
     928:	00000a08 	.inst	0x00000a08 ; undefined
     92c:	74756f06 	.inst	0x74756f06 ; undefined
     930:	2c013200 	stnp	s0, s12, [x16, #8]
     934:	0000010a 	.inst	0x0000010a ; undefined
     938:	01489102 	.inst	0x01489102 ; undefined
     93c:	000004eb 	.inst	0x000004eb ; undefined
     940:	7f370132 	.inst	0x7f370132 ; undefined
     944:	02000002 	.inst	0x02000002 ; undefined
     948:	69064091 	.inst	0x69064091 ; undefined
     94c:	32007864 	orr	w4, w3, #0x7fffffff
     950:	00e64601 	.inst	0x00e64601 ; undefined
     954:	91030000 	add	x0, x0, #0xc0
     958:	c8017fb8 	stxr	w1, x24, [x29]
     95c:	32000001 	orr	w1, w0, #0x1
     960:	00e65201 	.inst	0x00e65201 ; undefined
     964:	91030000 	add	x0, x0, #0xc0
     968:	c5017fb0 	ldff1w	{z16.d}, p7/z, [x29, z1.d, uxtw]
     96c:	32000000 	orr	w0, w0, #0x1
     970:	0a086d01 	and	w1, w8, w8, lsl #27
     974:	91030000 	add	x0, x0, #0xc0
     978:	11017fa8 	add	w8, w29, #0x5f
     97c:	32000002 	orr	w2, w0, #0x1
     980:	06457901 	.inst	0x06457901 ; undefined
     984:	91030000 	add	x0, x0, #0xc0
     988:	1d017fa7 	.inst	0x1d017fa7 ; undefined
     98c:	32000001 	orr	w1, w0, #0x1
     990:	0a089601 	.inst	0x0a089601 ; undefined
     994:	91030000 	add	x0, x0, #0xc0
     998:	45017f98 	.inst	0x45017f98 ; undefined
     99c:	32000002 	orr	w2, w0, #0x1
     9a0:	0062a901 	.inst	0x0062a901 ; undefined
     9a4:	91030000 	add	x0, x0, #0xc0
     9a8:	4b017fa0 	sub	w0, w29, w1, lsl #31
     9ac:	32000002 	orr	w2, w0, #0x1
     9b0:	0062bc01 	.inst	0x0062bc01 ; undefined
     9b4:	91020000 	add	x0, x0, #0x80
     9b8:	01a00100 	.inst	0x01a00100 ; undefined
     9bc:	01320000 	.inst	0x01320000 ; undefined
     9c0:	000062d0 	.inst	0x000062d0 ; undefined
     9c4:	08910200 	stllrb	w0, [x16]
     9c8:	66756204 	.inst	0x66756204 ; undefined
     9cc:	08013400 	stxrb	w1, w0, [x0]
     9d0:	000008e5 	.inst	0x000008e5 ; undefined
     9d4:	04509102 	asr	z2.h, p4/m, z2.h, z8.h
     9d8:	006e656c 	.inst	0x006e656c ; undefined
     9dc:	e60a0135 	.inst	0xe60a0135 ; undefined
     9e0:	02000000 	.inst	0x02000000 ; undefined
     9e4:	300d7891 	adr	x17, 1b8f5 <_start-0x1e470b>
     9e8:	00002008 	.inst	0x00002008 ; undefined
     9ec:	8c000000 	.inst	0x8c000000 ; undefined
     9f0:	00000000 	.inst	0x00000000 ; undefined
     9f4:	02000000 	.inst	0x02000000 ; undefined
     9f8:	00000206 	.inst	0x00000206 ; undefined
     9fc:	3c12013f 	stur	b31, [x9, #-224]
     a00:	02000001 	.inst	0x02000001 ; undefined
     a04:	00007791 	.inst	0x00007791 ; undefined
     a08:	a6070807 	.inst	0xa6070807 ; undefined
     a0c:	10000001 	adr	x1, a0c <_start-0x1ff5f4>
     a10:	00000189 	.inst	0x00000189 ; undefined
     a14:	e60f0119 	.inst	0xe60f0119 ; undefined
     a18:	70000000 	adr	x0, a1b <_start-0x1ff5e5>
     a1c:	00002006 	.inst	0x00002006 ; undefined
     a20:	5c000000 	ldr	d0, a20 <_start-0x1ff5e0>
     a24:	00000001 	.inst	0x00000001 ; undefined
     a28:	01000000 	.inst	0x01000000 ; undefined
     a2c:	000b0d9c 	.inst	0x000b0d9c ; undefined
     a30:	756f0600 	.inst	0x756f0600 ; undefined
     a34:	01190074 	.inst	0x01190074 ; undefined
     a38:	00010a27 	.inst	0x00010a27 ; undefined
     a3c:	48910200 	stllrh	w0, [x16]
     a40:	0004eb01 	.inst	0x0004eb01 ; undefined
     a44:	32011900 	orr	w0, w8, #0x8000003f
     a48:	0000027f 	.inst	0x0000027f ; undefined
     a4c:	06409102 	.inst	0x06409102 ; undefined
     a50:	00786469 	.inst	0x00786469 ; undefined
     a54:	e6410119 	.inst	0xe6410119 ; undefined
     a58:	03000000 	.inst	0x03000000 ; undefined
     a5c:	017fb891 	.inst	0x017fb891 ; undefined
     a60:	000001c8 	.inst	0x000001c8 ; undefined
     a64:	e64d0119 	.inst	0xe64d0119 ; undefined
     a68:	03000000 	.inst	0x03000000 ; undefined
     a6c:	017fb091 	.inst	0x017fb091 ; undefined
     a70:	000000c5 	.inst	0x000000c5 ; undefined
     a74:	7a630119 	.inst	0x7a630119 ; undefined
     a78:	03000000 	.inst	0x03000000 ; undefined
     a7c:	017fa891 	.inst	0x017fa891 ; undefined
     a80:	00000211 	.inst	0x00000211 ; undefined
     a84:	456f0119 	.inst	0x456f0119 ; undefined
     a88:	03000006 	.inst	0x03000006 ; undefined
     a8c:	017fa791 	.inst	0x017fa791 ; undefined
     a90:	0000011d 	.inst	0x0000011d ; undefined
     a94:	7a870119 	.inst	0x7a870119 ; undefined
     a98:	03000000 	.inst	0x03000000 ; undefined
     a9c:	017f9891 	.inst	0x017f9891 ; undefined
     aa0:	00000245 	.inst	0x00000245 ; undefined
     aa4:	629a0119 	.inst	0x629a0119 ; undefined
     aa8:	03000000 	.inst	0x03000000 ; undefined
     aac:	017fa091 	.inst	0x017fa091 ; undefined
     ab0:	0000024b 	.inst	0x0000024b ; undefined
     ab4:	62ad0119 	.inst	0x62ad0119 ; undefined
     ab8:	02000000 	.inst	0x02000000 ; undefined
     abc:	a0010091 	.inst	0xa0010091 ; undefined
     ac0:	19000001 	.inst	0x19000001 ; undefined
     ac4:	0062c101 	.inst	0x0062c101 ; undefined
     ac8:	91020000 	add	x0, x0, #0x80
     acc:	75620408 	.inst	0x75620408 ; undefined
     ad0:	011b0066 	.inst	0x011b0066 ; undefined
     ad4:	0008e508 	.inst	0x0008e508 ; undefined
     ad8:	50910200 	adr	x0, fffffffffff22b1a <__sel4_ipc_buffer_obj+0xffffffffffd1bb1a>
     adc:	6e656c04 	umin	v4.8h, v0.8h, v5.8h
     ae0:	0a011c00 	and	w0, w0, w1, lsl #7
     ae4:	000000e6 	.inst	0x000000e6 ; undefined
     ae8:	0d789102 	.inst	0x0d789102 ; undefined
     aec:	002006d4 	.inst	0x002006d4 ; NYI
     af0:	00000000 	.inst	0x00000000 ; undefined
     af4:	0000008c 	.inst	0x0000008c ; undefined
     af8:	00000000 	.inst	0x00000000 ; undefined
     afc:	00020602 	.inst	0x00020602 ; undefined
     b00:	12012600 	and	w0, w16, #0x800001ff
     b04:	0000013c 	.inst	0x0000013c ; undefined
     b08:	00779102 	.inst	0x00779102 ; undefined
     b0c:	01221400 	.inst	0x01221400 ; undefined
     b10:	0fe30000 	.inst	0x0fe30000 ; undefined
     b14:	000000e6 	.inst	0x000000e6 ; undefined
     b18:	0020033c 	.inst	0x0020033c ; NYI
     b1c:	00000000 	.inst	0x00000000 ; undefined
     b20:	00000334 	.inst	0x00000334 ; undefined
     b24:	00000000 	.inst	0x00000000 ; undefined
     b28:	0bc99c01 	.inst	0x0bc99c01 ; undefined
     b2c:	6f050000 	.inst	0x6f050000 ; undefined
     b30:	e3007475 	.inst	0xe3007475 ; undefined
     b34:	00010a29 	.inst	0x00010a29 ; undefined
     b38:	78910200 	ldursh	x0, [x16, #-240]
     b3c:	0004eb03 	.inst	0x0004eb03 ; undefined
     b40:	7f34e300 	.inst	0x7f34e300 ; undefined
     b44:	02000002 	.inst	0x02000002 ; undefined
     b48:	69057091 	.inst	0x69057091 ; undefined
     b4c:	e3007864 	.inst	0xe3007864 ; undefined
     b50:	0000e643 	.inst	0x0000e643 ; undefined
     b54:	68910200 	.inst	0x68910200 ; undefined
     b58:	0001c803 	.inst	0x0001c803 ; undefined
     b5c:	e64fe300 	.inst	0xe64fe300 ; undefined
     b60:	02000000 	.inst	0x02000000 ; undefined
     b64:	62056091 	.inst	0x62056091 ; undefined
     b68:	e3006675 	.inst	0xe3006675 ; undefined
     b6c:	00027f5d 	.inst	0x00027f5d ; undefined
     b70:	58910200 	ldr	x0, fffffffffff22bb0 <__sel4_ipc_buffer_obj+0xffffffffffd1bbb0>
     b74:	6e656c05 	umin	v5.8h, v0.8h, v5.8h
     b78:	e669e300 	.inst	0xe669e300 ; undefined
     b7c:	02000000 	.inst	0x02000000 ; undefined
     b80:	11035091 	add	w17, w4, #0xd4
     b84:	e3000002 	.inst	0xe3000002 ; undefined
     b88:	00064573 	.inst	0x00064573 ; undefined
     b8c:	4f910200 	.inst	0x4f910200 ; undefined
     b90:	00011d03 	.inst	0x00011d03 ; undefined
     b94:	628ae300 	.inst	0x628ae300 ; undefined
     b98:	02000000 	.inst	0x02000000 ; undefined
     b9c:	45034891 	.inst	0x45034891 ; undefined
     ba0:	e3000002 	.inst	0xe3000002 ; undefined
     ba4:	0000629d 	.inst	0x0000629d ; undefined
     ba8:	00910200 	.inst	0x00910200 ; undefined
     bac:	00024b03 	.inst	0x00024b03 ; undefined
     bb0:	62b0e300 	.inst	0x62b0e300 ; undefined
     bb4:	02000000 	.inst	0x02000000 ; undefined
     bb8:	a0030891 	.inst	0xa0030891 ; undefined
     bbc:	e3000001 	.inst	0xe3000001 ; undefined
     bc0:	000062c4 	.inst	0x000062c4 ; undefined
     bc4:	10910200 	adr	x0, fffffffffff22c04 <__sel4_ipc_buffer_obj+0xffffffffffd1bc04>
     bc8:	02241400 	.inst	0x02241400 ; undefined
     bcc:	0fc70000 	.inst	0x0fc70000 ; undefined
     bd0:	000000e6 	.inst	0x000000e6 ; undefined
     bd4:	002001f4 	.inst	0x002001f4 ; NYI
     bd8:	00000000 	.inst	0x00000000 ; undefined
     bdc:	00000148 	.inst	0x00000148 ; undefined
     be0:	00000000 	.inst	0x00000000 ; undefined
     be4:	0c8a9c01 	.inst	0x0c8a9c01 ; undefined
     be8:	6f050000 	.inst	0x6f050000 ; undefined
     bec:	c7007475 	.inst	0xc7007475 ; undefined
     bf0:	00010a25 	.inst	0x00010a25 ; undefined
     bf4:	68910200 	.inst	0x68910200 ; undefined
     bf8:	0004eb03 	.inst	0x0004eb03 ; undefined
     bfc:	7f30c700 	.inst	0x7f30c700 ; undefined
     c00:	02000002 	.inst	0x02000002 ; undefined
     c04:	69056091 	.inst	0x69056091 ; undefined
     c08:	c7007864 	.inst	0xc7007864 ; undefined
     c0c:	0000e63f 	.inst	0x0000e63f ; undefined
     c10:	58910200 	ldr	x0, fffffffffff22c50 <__sel4_ipc_buffer_obj+0xffffffffffd1bc50>
     c14:	0001c803 	.inst	0x0001c803 ; undefined
     c18:	e64bc700 	.inst	0xe64bc700 ; undefined
     c1c:	02000000 	.inst	0x02000000 ; undefined
     c20:	62055091 	.inst	0x62055091 ; undefined
     c24:	c7006675 	.inst	0xc7006675 ; undefined
     c28:	00021d5f 	.inst	0x00021d5f ; undefined
     c2c:	48910200 	stllrh	w0, [x16]
     c30:	6e656c05 	umin	v5.8h, v0.8h, v5.8h
     c34:	e66bc700 	.inst	0xe66bc700 ; undefined
     c38:	02000000 	.inst	0x02000000 ; undefined
     c3c:	4b034091 	sub	w17, w4, w3, lsl #16
     c40:	c7000002 	.inst	0xc7000002 ; undefined
     c44:	0000627d 	.inst	0x0000627d ; undefined
     c48:	bc910300 	.inst	0xbc910300 ; undefined
     c4c:	01a0037f 	.inst	0x01a0037f ; undefined
     c50:	91c70000 	.inst	0x91c70000 ; undefined
     c54:	00000062 	.inst	0x00000062 ; undefined
     c58:	7fb89103 	fmulx	s3, s8, v24.s[1]
     c5c:	0000e822 	.inst	0x0000e822 ; undefined
     c60:	10c90100 	adr	x0, fffffffffff92c80 <__sel4_ipc_buffer_obj+0xffffffffffd8bc80>
     c64:	000000f2 	.inst	0x000000f2 ; undefined
     c68:	0d709102 	.inst	0x0d709102 ; undefined
     c6c:	00200244 	.inst	0x00200244 ; NYI
     c70:	00000000 	.inst	0x00000000 ; undefined
     c74:	0000004c 	.inst	0x0000004c ; undefined
     c78:	00000000 	.inst	0x00000000 ; undefined
     c7c:	cd006915 	.inst	0xcd006915 ; undefined
     c80:	0000e611 	.inst	0x0000e611 ; undefined
     c84:	78910200 	ldursh	x0, [x16, #-240]
     c88:	cf140000 	.inst	0xcf140000 ; undefined
     c8c:	bc000001 	stur	s1, [x0]
     c90:	00006215 	.inst	0x00006215 ; undefined
     c94:	20018400 	.inst	0x20018400 ; undefined
     c98:	00000000 	.inst	0x00000000 ; undefined
     c9c:	00007000 	.inst	0x00007000 ; undefined
     ca0:	00000000 	.inst	0x00000000 ; undefined
     ca4:	c69c0100 	.inst	0xc69c0100 ; undefined
     ca8:	0500000c 	orr	z12.s, z12.s, #0x1
     cac:	00727473 	.inst	0x00727473 ; undefined
     cb0:	0cc628bc 	ld1	{v28.2s-v31.2s}, [x5], x6
     cb4:	91020000 	add	x0, x0, #0x80
     cb8:	00691568 	.inst	0x00691568 ; undefined
     cbc:	006210be 	.inst	0x006210be ; undefined
     cc0:	91020000 	add	x0, x0, #0x80
     cc4:	1d0f007c 	.inst	0x1d0f007c ; undefined
     cc8:	19000002 	.inst	0x19000002 ; undefined
     ccc:	00000202 	.inst	0x00000202 ; undefined
     cd0:	064514b5 	.inst	0x064514b5 ; undefined
     cd4:	01480000 	.inst	0x01480000 ; undefined
     cd8:	00000020 	.inst	0x00000020 ; undefined
     cdc:	003c0000 	.inst	0x003c0000 ; NYI
     ce0:	00000000 	.inst	0x00000000 ; undefined
     ce4:	9c010000 	ldr	q0, 2ce4 <_start-0x1fd31c>
     ce8:	00000cfa 	.inst	0x00000cfa ; undefined
     cec:	00686305 	.inst	0x00686305 ; undefined
     cf0:	013523b5 	.inst	0x013523b5 ; undefined
     cf4:	91020000 	add	x0, x0, #0x80
     cf8:	e819007f 	.inst	0xe819007f ; undefined
     cfc:	ab000001 	adds	x1, x0, x0
     d00:	0000621c 	.inst	0x0000621c ; undefined
     d04:	2000ec00 	.inst	0x2000ec00 ; undefined
     d08:	00000000 	.inst	0x00000000 ; undefined
     d0c:	00005c00 	.inst	0x00005c00 ; undefined
     d10:	00000000 	.inst	0x00000000 ; undefined
     d14:	449c0100 	sdot	z0.s, z8.b, z28.b
     d18:	0500000d 	orr	z13.s, z13.s, #0x1
     d1c:	00727473 	.inst	0x00727473 ; undefined
     d20:	021d33ab 	.inst	0x021d33ab ; undefined
     d24:	91020000 	add	x0, x0, #0x80
     d28:	00b80368 	.inst	0x00b80368 ; undefined
     d2c:	3fab0000 	.inst	0x3fab0000 ; undefined
     d30:	000000e6 	.inst	0x000000e6 ; undefined
     d34:	15609102 	b	582513c <__sel4_ipc_buffer_obj+0x561e13c>
     d38:	0fad0073 	.inst	0x0fad0073 ; undefined
     d3c:	0000021d 	.inst	0x0000021d ; undefined
     d40:	00789102 	.inst	0x00789102 ; undefined
     d44:	0000cb1a 	.inst	0x0000cb1a ; undefined
     d48:	00a09f00 	.inst	0x00a09f00 ; undefined
     d4c:	00000020 	.inst	0x00000020 ; undefined
     d50:	004c0000 	.inst	0x004c0000 ; undefined
     d54:	00000000 	.inst	0x00000000 ; undefined
     d58:	9c010000 	ldr	q0, 2d58 <_start-0x1fd2a8>
     d5c:	00000d99 	.inst	0x00000d99 ; undefined
     d60:	00021a03 	.inst	0x00021a03 ; undefined
     d64:	35229f00 	cbnz	w0, 46144 <_start-0x1b9ebc>
     d68:	02000001 	.inst	0x02000001 ; undefined
     d6c:	eb037f91 	subs	x17, x28, x3, lsl #31
     d70:	9f000004 	.inst	0x9f000004 ; undefined
     d74:	0000d833 	.inst	0x0000d833 ; undefined
     d78:	70910200 	adr	x0, fffffffffff22dbb <__sel4_ipc_buffer_obj+0xffffffffffd1bdbb>
     d7c:	78646905 	ldrh	w5, [x8, x4]
     d80:	e6429f00 	.inst	0xe6429f00 ; undefined
     d84:	02000000 	.inst	0x02000000 ; undefined
     d88:	c8036891 	stxr	w3, x17, [x4]
     d8c:	9f000001 	.inst	0x9f000001 ; undefined
     d90:	0000e64e 	.inst	0x0000e64e ; undefined
     d94:	60910200 	.inst	0x60910200 ; undefined
     d98:	00ae1a00 	.inst	0x00ae1a00 ; undefined
     d9c:	68950000 	.inst	0x68950000 ; undefined
     da0:	00002000 	.inst	0x00002000 ; undefined
     da4:	38000000 	sturb	w0, [x0]
     da8:	00000000 	.inst	0x00000000 ; undefined
     dac:	01000000 	.inst	0x01000000 ; undefined
     db0:	000dee9c 	.inst	0x000dee9c ; undefined
     db4:	021a0300 	.inst	0x021a0300 ; undefined
     db8:	23950000 	.inst	0x23950000 ; undefined
     dbc:	00000135 	.inst	0x00000135 ; undefined
     dc0:	037f9102 	.inst	0x037f9102 ; undefined
     dc4:	000004eb 	.inst	0x000004eb ; undefined
     dc8:	00d83495 	.inst	0x00d83495 ; undefined
     dcc:	91020000 	add	x0, x0, #0x80
     dd0:	64690570 	fmls	z16.h, z11.h, z1.h[5]
     dd4:	43950078 	.inst	0x43950078 ; undefined
     dd8:	000000e6 	.inst	0x000000e6 ; undefined
     ddc:	03689102 	.inst	0x03689102 ; undefined
     de0:	000001c8 	.inst	0x000001c8 ; undefined
     de4:	00e64f95 	.inst	0x00e64f95 ; undefined
     de8:	91020000 	add	x0, x0, #0x80
     dec:	40230060 	.inst	0x40230060 ; undefined
     df0:	01000001 	.inst	0x01000001 ; undefined
     df4:	0048148e 	.inst	0x0048148e ; undefined
     df8:	00000020 	.inst	0x00000020 ; undefined
     dfc:	00200000 	.inst	0x00200000 ; NYI
     e00:	00000000 	.inst	0x00000000 ; undefined
     e04:	9c010000 	ldr	q0, 2e04 <_start-0x1fd1fc>
     e08:	00000e45 	.inst	0x00000e45 ; undefined
     e0c:	00021a03 	.inst	0x00021a03 ; undefined
     e10:	35238e00 	cbnz	w0, 47fd0 <_start-0x1b8030>
     e14:	02000001 	.inst	0x02000001 ; undefined
     e18:	eb037f91 	subs	x17, x28, x3, lsl #31
     e1c:	8e000004 	.inst	0x8e000004 ; undefined
     e20:	0000d834 	.inst	0x0000d834 ; undefined
     e24:	70910200 	adr	x0, fffffffffff22e67 <__sel4_ipc_buffer_obj+0xffffffffffd1be67>
     e28:	78646905 	ldrh	w5, [x8, x4]
     e2c:	e6438e00 	.inst	0xe6438e00 ; undefined
     e30:	02000000 	.inst	0x02000000 ; undefined
     e34:	c8036891 	stxr	w3, x17, [x4]
     e38:	8e000001 	.inst	0x8e000001 ; undefined
     e3c:	0000e64f 	.inst	0x0000e64f ; undefined
     e40:	60910200 	.inst	0x60910200 ; undefined
     e44:	00792400 	.inst	0x00792400 ; undefined
     e48:	85010000 	.inst	0x85010000 ; undefined
     e4c:	20000414 	.inst	0x20000414 ; undefined
     e50:	00000000 	.inst	0x00000000 ; undefined
     e54:	00004400 	.inst	0x00004400 ; undefined
     e58:	00000000 	.inst	0x00000000 ; undefined
     e5c:	039c0100 	.inst	0x039c0100 ; undefined
     e60:	0000021a 	.inst	0x0000021a ; undefined
     e64:	01352585 	.inst	0x01352585 ; undefined
     e68:	91020000 	add	x0, x0, #0x80
     e6c:	04eb037f 	add	z31.d, z27.d, z11.d
     e70:	36850000 	tbz	w0, #16, ffffffffffffae70 <__sel4_ipc_buffer_obj+0xffffffffffdf3e70>
     e74:	000000d8 	.inst	0x000000d8 ; undefined
     e78:	05709102 	.inst	0x05709102 ; undefined
     e7c:	00786469 	.inst	0x00786469 ; undefined
     e80:	00e64585 	.inst	0x00e64585 ; undefined
     e84:	91020000 	add	x0, x0, #0x80
     e88:	01c80368 	.inst	0x01c80368 ; undefined
     e8c:	51850000 	.inst	0x51850000 ; undefined
     e90:	000000e6 	.inst	0x000000e6 ; undefined
     e94:	00609102 	.inst	0x00609102 ; undefined
     e98:	0010b900 	.inst	0x0010b900 ; undefined
     e9c:	01000500 	.inst	0x01000500 ; undefined
     ea0:	00024b08 	.inst	0x00024b08 ; undefined
     ea4:	027a2100 	.inst	0x027a2100 ; undefined
     ea8:	a81d0000 	stnp	x0, x0, [x0, #464]
     eac:	00000003 	.inst	0x00000003 ; undefined
     eb0:	1c000000 	ldr	s0, eb0 <_start-0x1ff150>
     eb4:	0000202b 	.inst	0x0000202b ; undefined
     eb8:	04000000 	add	z0.b, p0/m, z0.b, z0.b
     ebc:	0000000c 	.inst	0x0000000c ; undefined
     ec0:	63000000 	.inst	0x63000000 ; undefined
     ec4:	0800000b 	stxrb	w0, w11, [x0]
     ec8:	017d0601 	.inst	0x017d0601 ; undefined
     ecc:	02080000 	.inst	0x02080000 ; undefined
     ed0:	00008e05 	.inst	0x00008e05 ; undefined
     ed4:	05042200 	.inst	0x05042200 ; undefined
     ed8:	00746e69 	.inst	0x00746e69 ; undefined
     edc:	0a050808 	and	w8, w0, w5, lsl #2
     ee0:	07000001 	.inst	0x07000001 ; undefined
     ee4:	0000076f 	.inst	0x0000076f ; undefined
     ee8:	56182e09 	.inst	0x56182e09 ; undefined
     eec:	08000000 	stxrb	w0, w0, [x0]
     ef0:	017b0801 	.inst	0x017b0801 ; undefined
     ef4:	56130000 	.inst	0x56130000 ; undefined
     ef8:	08000000 	stxrb	w0, w0, [x0]
     efc:	01d50702 	.inst	0x01d50702 ; undefined
     f00:	04080000 	smax	z0.b, p0/m, z0.b, z0.b
     f04:	0001b007 	.inst	0x0001b007 ; undefined
     f08:	00850700 	.inst	0x00850700 ; undefined
     f0c:	37090000 	tbnz	w0, #1, 2f0c <_start-0x1fd0f4>
     f10:	00007c19 	.inst	0x00007c19 ; undefined
     f14:	07080800 	.inst	0x07080800 ; undefined
     f18:	000001ab 	.inst	0x000001ab ; undefined
     f1c:	000c6f07 	.inst	0x000c6f07 ; undefined
     f20:	25260a00 	.inst	0x25260a00 ; undefined
     f24:	00000056 	.inst	0x00000056 ; undefined
     f28:	00043407 	.inst	0x00043407 ; undefined
     f2c:	25320a00 	.inst	0x25320a00 ; undefined
     f30:	00000062 	.inst	0x00000062 ; undefined
     f34:	00078907 	.inst	0x00078907 ; undefined
     f38:	25540a00 	cmpge	p0.h, p2/z, z16.h, #-12
     f3c:	0000007c 	.inst	0x0000007c ; undefined
     f40:	0004c907 	.inst	0x0004c907 ; undefined
     f44:	15740a00 	b	5d03744 <__sel4_ipc_buffer_obj+0x5afc744>
     f48:	0000009b 	.inst	0x0000009b ; undefined
     f4c:	00080d07 	.inst	0x00080d07 ; undefined
     f50:	13800a00 	extr	w0, w16, w0, #2
     f54:	000000a7 	.inst	0x000000a7 ; undefined
     f58:	7c080716 	str	h22, [x24], #128
     f5c:	0b000000 	add	w0, w0, w0
     f60:	0001684a 	.inst	0x0001684a ; undefined
     f64:	060b0100 	.inst	0x060b0100 ; undefined
     f68:	01000000 	.inst	0x01000000 ; undefined
     f6c:	000002f8 	.inst	0x000002f8 ; undefined
     f70:	030b0101 	.inst	0x030b0101 ; undefined
     f74:	01020000 	.inst	0x01020000 ; undefined
     f78:	00000a34 	.inst	0x00000a34 ; undefined
     f7c:	06c90103 	.inst	0x06c90103 ; undefined
     f80:	01040000 	.inst	0x01040000 ; undefined
     f84:	00000980 	.inst	0x00000980 ; undefined
     f88:	07c80105 	.inst	0x07c80105 ; undefined
     f8c:	01060000 	.inst	0x01060000 ; undefined
     f90:	0000091b 	.inst	0x0000091b ; undefined
     f94:	05940107 	mov	z7.s, p4/z, #8
     f98:	01080000 	.inst	0x01080000 ; undefined
     f9c:	000005ad 	.inst	0x000005ad ; undefined
     fa0:	05c00109 	mov	z9.s, #0x1ff
     fa4:	010a0000 	.inst	0x010a0000 ; undefined
     fa8:	00000b1c 	.inst	0x00000b1c ; undefined
     fac:	0351010b 	.inst	0x0351010b ; undefined
     fb0:	010c0000 	.inst	0x010c0000 ; undefined
     fb4:	000006b8 	.inst	0x000006b8 ; undefined
     fb8:	0795010d 	.inst	0x0795010d ; undefined
     fbc:	010e0000 	.inst	0x010e0000 ; undefined
     fc0:	00000817 	.inst	0x00000817 ; undefined
     fc4:	0ae8010f 	bic	w15, w8, w8, ror #0
     fc8:	01100000 	.inst	0x01100000 ; undefined
     fcc:	00000a45 	.inst	0x00000a45 ; undefined
     fd0:	0d730111 	.inst	0x0d730111 ; undefined
     fd4:	01120000 	.inst	0x01120000 ; undefined
     fd8:	0000072f 	.inst	0x0000072f ; undefined
     fdc:	06fc0113 	.inst	0x06fc0113 ; undefined
     fe0:	01140000 	.inst	0x01140000 ; undefined
     fe4:	0000061e 	.inst	0x0000061e ; undefined
     fe8:	0a8a0115 	and	w21, w8, w10, asr #0
     fec:	01160000 	.inst	0x01160000 ; undefined
     ff0:	00000a71 	.inst	0x00000a71 ; undefined
     ff4:	096f0117 	.inst	0x096f0117 ; undefined
     ff8:	1a180000 	adc	w0, w0, w24
     ffc:	00000758 	.inst	0x00000758 ; undefined
    1000:	07620700 	.inst	0x07620700 ; undefined
    1004:	730b0000 	.inst	0x730b0000 ; undefined
    1008:	0000bf03 	.inst	0x0000bf03 ; undefined
    100c:	07a71b00 	.inst	0x07a71b00 ; undefined
    1010:	01200000 	.inst	0x01200000 ; undefined
    1014:	034a110c 	.inst	0x034a110c ; undefined
    1018:	70020000 	adr	x0, 501b <_start-0x1fafe5>
    101c:	130c0063 	sbfiz	w3, w3, #20, #1
    1020:	0000a70f 	.inst	0x0000a70f ; undefined
    1024:	73020000 	.inst	0x73020000 ; undefined
    1028:	130c0070 	sbfiz	w16, w3, #20, #1
    102c:	0000a713 	.inst	0x0000a713 ; undefined
    1030:	1b170800 	madd	w0, w0, w23, w2
    1034:	0c00000c 	st4	{v12.8b-v15.8b}, [x0]
    1038:	00a71713 	.inst	0x00a71713 ; undefined
    103c:	02100000 	.inst	0x02100000 ; undefined
    1040:	0c003078 	.inst	0x0c003078 ; undefined
    1044:	00a71d13 	.inst	0x00a71d13 ; undefined
    1048:	02180000 	.inst	0x02180000 ; undefined
    104c:	0c003178 	.inst	0x0c003178 ; undefined
    1050:	00a72113 	.inst	0x00a72113 ; undefined
    1054:	02200000 	.inst	0x02200000 ; undefined
    1058:	0c003278 	.inst	0x0c003278 ; undefined
    105c:	00a72513 	.inst	0x00a72513 ; undefined
    1060:	02280000 	.inst	0x02280000 ; undefined
    1064:	0c003378 	.inst	0x0c003378 ; undefined
    1068:	00a72913 	.inst	0x00a72913 ; undefined
    106c:	02300000 	.inst	0x02300000 ; undefined
    1070:	0c003478 	.inst	0x0c003478 ; undefined
    1074:	00a72d13 	.inst	0x00a72d13 ; undefined
    1078:	02380000 	.inst	0x02380000 ; undefined
    107c:	0c003578 	.inst	0x0c003578 ; undefined
    1080:	00a73113 	.inst	0x00a73113 ; undefined
    1084:	02400000 	.inst	0x02400000 ; undefined
    1088:	0c003678 	.inst	0x0c003678 ; undefined
    108c:	00a73513 	.inst	0x00a73513 ; undefined
    1090:	02480000 	.inst	0x02480000 ; undefined
    1094:	0c003778 	.inst	0x0c003778 ; undefined
    1098:	00a73913 	.inst	0x00a73913 ; undefined
    109c:	02500000 	.inst	0x02500000 ; undefined
    10a0:	0c003878 	.inst	0x0c003878 ; undefined
    10a4:	00a73d13 	.inst	0x00a73d13 ; undefined
    10a8:	02580000 	.inst	0x02580000 ; undefined
    10ac:	00363178 	.inst	0x00363178 ; NYI
    10b0:	a741130c 	.inst	0xa741130c ; undefined
    10b4:	60000000 	.inst	0x60000000 ; undefined
    10b8:	37317802 	tbnz	w2, #6, 3fb8 <_start-0x1fc048>
    10bc:	46130c00 	.inst	0x46130c00 ; undefined
    10c0:	000000a7 	.inst	0x000000a7 ; undefined
    10c4:	31780268 	adds	w8, w19, #0xe00, lsl #12
    10c8:	130c0038 	sbfiz	w24, w1, #20, #1
    10cc:	0000a74b 	.inst	0x0000a74b ; undefined
    10d0:	78027000 	sturh	w0, [x0, #39]
    10d4:	0c003932 	.inst	0x0c003932 ; undefined
    10d8:	00a75013 	.inst	0x00a75013 ; undefined
    10dc:	02780000 	.inst	0x02780000 ; undefined
    10e0:	00303378 	.inst	0x00303378 ; NYI
    10e4:	a755130c 	.inst	0xa755130c ; undefined
    10e8:	80000000 	.inst	0x80000000 ; undefined
    10ec:	00397802 	.inst	0x00397802 ; NYI
    10f0:	a70f150c 	.inst	0xa70f150c ; undefined
    10f4:	88000000 	stxr	w0, w0, [x0]
    10f8:	30317802 	adr	x2, 63ff9 <_start-0x19c007>
    10fc:	13150c00 	sbfiz	w0, w0, #11, #4
    1100:	000000a7 	.inst	0x000000a7 ; undefined
    1104:	31780290 	adds	w16, w20, #0xe00, lsl #12
    1108:	150c0031 	b	43011cc <__sel4_ipc_buffer_obj+0x40fa1cc>
    110c:	0000a718 	.inst	0x0000a718 ; undefined
    1110:	78029800 	sttrh	w0, [x0, #41]
    1114:	0c003231 	.inst	0x0c003231 ; undefined
    1118:	00a71d15 	.inst	0x00a71d15 ; undefined
    111c:	02a00000 	.inst	0x02a00000 ; undefined
    1120:	00333178 	.inst	0x00333178 ; NYI
    1124:	a722150c 	.inst	0xa722150c ; undefined
    1128:	a8000000 	stnp	x0, x0, [x0]
    112c:	34317802 	cbz	w2, 6402c <_start-0x19bfd4>
    1130:	27150c00 	.inst	0x27150c00 ; undefined
    1134:	000000a7 	.inst	0x000000a7 ; undefined
    1138:	317802b0 	adds	w16, w21, #0xe00, lsl #12
    113c:	150c0035 	b	4301210 <__sel4_ipc_buffer_obj+0x40fa210>
    1140:	0000a72c 	.inst	0x0000a72c ; undefined
    1144:	7802b800 	sttrh	w0, [x0, #43]
    1148:	0c003931 	.inst	0x0c003931 ; undefined
    114c:	00a73115 	.inst	0x00a73115 ; undefined
    1150:	02c00000 	.inst	0x02c00000 ; undefined
    1154:	00303278 	.inst	0x00303278 ; NYI
    1158:	a736150c 	.inst	0xa736150c ; undefined
    115c:	c8000000 	stxr	w0, x0, [x0]
    1160:	31327802 	adds	w2, w0, #0xc9e
    1164:	3b150c00 	.inst	0x3b150c00 ; undefined
    1168:	000000a7 	.inst	0x000000a7 ; undefined
    116c:	327802d0 	.inst	0x327802d0 ; undefined
    1170:	150c0032 	b	4301238 <__sel4_ipc_buffer_obj+0x40fa238>
    1174:	0000a740 	.inst	0x0000a740 ; undefined
    1178:	7802d800 	sttrh	w0, [x0, #45]
    117c:	0c003332 	.inst	0x0c003332 ; undefined
    1180:	00a74515 	.inst	0x00a74515 ; undefined
    1184:	02e00000 	.inst	0x02e00000 ; undefined
    1188:	00343278 	.inst	0x00343278 ; NYI
    118c:	a74a150c 	.inst	0xa74a150c ; undefined
    1190:	e8000000 	.inst	0xe8000000 ; undefined
    1194:	35327802 	cbnz	w2, 66094 <_start-0x199f6c>
    1198:	4f150c00 	.inst	0x4f150c00 ; undefined
    119c:	000000a7 	.inst	0x000000a7 ; undefined
    11a0:	327802f0 	.inst	0x327802f0 ; undefined
    11a4:	150c0036 	b	430127c <__sel4_ipc_buffer_obj+0x40fa27c>
    11a8:	0000a754 	.inst	0x0000a754 ; undefined
    11ac:	781cf800 	sttrh	w0, [x0, #-49]
    11b0:	59003732 	.inst	0x59003732 ; undefined
    11b4:	000000a7 	.inst	0x000000a7 ; undefined
    11b8:	781c0100 	sturh	w0, [x8, #-64]
    11bc:	5e003832 	.inst	0x5e003832 ; undefined
    11c0:	000000a7 	.inst	0x000000a7 ; undefined
    11c4:	f60c0108 	.inst	0xf60c0108 ; undefined
    11c8:	0c000005 	st4	{v5.8b-v8.8b}, [x0]
    11cc:	00a70f17 	.inst	0x00a70f17 ; undefined
    11d0:	01100000 	.inst	0x01100000 ; undefined
    11d4:	00099c0c 	.inst	0x00099c0c ; undefined
    11d8:	1a170c00 	.inst	0x1a170c00 ; undefined
    11dc:	000000a7 	.inst	0x000000a7 ; undefined
    11e0:	07000118 	.inst	0x07000118 ; undefined
    11e4:	000005d3 	.inst	0x000005d3 ; undefined
    11e8:	7403180c 	.inst	0x7403180c ; undefined
    11ec:	07000001 	.inst	0x07000001 ; undefined
    11f0:	000007ff 	.inst	0x000007ff ; undefined
    11f4:	b313120d 	.inst	0xb313120d ; undefined
    11f8:	16000000 	b	fffffffff80011f8 <__sel4_ipc_buffer_obj+0xfffffffff7dfa1f8>
    11fc:	00430805 	.inst	0x00430805 ; undefined
    1200:	110e0000 	add	w0, w0, #0x380
    1204:	000003db 	.inst	0x000003db ; undefined
    1208:	00058706 	.inst	0x00058706 ; undefined
    120c:	40067f00 	.inst	0x40067f00 ; undefined
    1210:	7e000004 	.inst	0x7e000004 ; undefined
    1214:	000c4a06 	.inst	0x000c4a06 ; undefined
    1218:	45067d00 	.inst	0x45067d00 ; undefined
    121c:	7c000007 	stur	h7, [x0]
    1220:	0004bc06 	.inst	0x0004bc06 ; undefined
    1224:	58067b00 	ldr	x0, e184 <_start-0x1f1e7c>
    1228:	7a00000b 	sbcs	w11, w0, w0
    122c:	000c9306 	.inst	0x000c9306 ; undefined
    1230:	47067900 	.inst	0x47067900 ; undefined
    1234:	78000008 	sturh	w8, [x0]
    1238:	00094a06 	.inst	0x00094a06 ; undefined
    123c:	05067700 	.inst	0x05067700 ; undefined
    1240:	76000005 	.inst	0x76000005 ; undefined
    1244:	00042006 	.inst	0x00042006 ; undefined
    1248:	1f067500 	fmadd	s0, s8, s6, s29
    124c:	7400000a 	.inst	0x7400000a ; undefined
    1250:	000d0706 	.inst	0x000d0706 ; undefined
    1254:	5d067300 	.inst	0x5d067300 ; undefined
    1258:	72000006 	ands	w6, w0, #0x1
    125c:	0009c306 	.inst	0x0009c306 ; undefined
    1260:	92067100 	and	x0, x8, #0xfc7ffffffc7fffff
    1264:	70000003 	adr	x3, 1267 <_start-0x1fed99>
    1268:	00040806 	.inst	0x00040806 ; undefined
    126c:	561a6f00 	.inst	0x561a6f00 ; undefined
    1270:	00000008 	.inst	0x00000008 ; undefined
    1274:	0006521d 	.inst	0x0006521d ; undefined
    1278:	00006900 	.inst	0x00006900 ; undefined
    127c:	0e080f00 	.inst	0x0e080f00 ; undefined
    1280:	0000041c 	.inst	0x0000041c ; undefined
    1284:	000cb501 	.inst	0x000cb501 ; undefined
    1288:	ad010000 	stp	q0, q0, [x0, #32]
    128c:	01000004 	.inst	0x01000004 ; undefined
    1290:	0009f301 	.inst	0x0009f301 ; undefined
    1294:	57010200 	.inst	0x57010200 ; undefined
    1298:	03000009 	.inst	0x03000009 ; undefined
    129c:	000cc801 	.inst	0x000cc801 ; undefined
    12a0:	07010400 	.inst	0x07010400 ; undefined
    12a4:	0500000a 	orr	z10.s, z10.s, #0x1
    12a8:	00054c01 	.inst	0x00054c01 ; undefined
    12ac:	88010600 	stxr	w1, w0, [x16]
    12b0:	0700000b 	.inst	0x0700000b ; undefined
    12b4:	0d220700 	.inst	0x0d220700 ; undefined
    12b8:	130f0000 	sbfiz	w0, w0, #17, #1
    12bc:	0003db03 	.inst	0x0003db03 ; undefined
    12c0:	041c1300 	.inst	0x041c1300 ; undefined
    12c4:	86050000 	.inst	0x86050000 ; undefined
    12c8:	0f000006 	.inst	0x0f000006 ; undefined
    12cc:	04285915 	.inst	0x04285915 ; undefined
    12d0:	03090000 	.inst	0x03090000 ; undefined
    12d4:	00204408 	.inst	0x00204408 ; NYI
    12d8:	00000000 	.inst	0x00000000 ; undefined
    12dc:	69040716 	.inst	0x69040716 ; undefined
    12e0:	10000000 	adr	x0, 12e0 <_start-0x1fed20>
    12e4:	00049909 	.inst	0x00049909 ; undefined
    12e8:	08d60100 	ldlarb	w0, [x8]
    12ec:	01000000 	.inst	0x01000000 ; undefined
    12f0:	00000c20 	.inst	0x00000c20 ; undefined
    12f4:	0bb60101 	.inst	0x0bb60101 ; undefined
    12f8:	01020000 	.inst	0x01020000 ; undefined
    12fc:	000007e9 	.inst	0x000007e9 ; undefined
    1300:	03620103 	.inst	0x03620103 ; undefined
    1304:	01040000 	.inst	0x01040000 ; undefined
    1308:	0000046c 	.inst	0x0000046c ; undefined
    130c:	09090105 	.inst	0x09090105 ; undefined
    1310:	01060000 	.inst	0x01060000 ; undefined
    1314:	00000ad2 	.inst	0x00000ad2 ; undefined
    1318:	0d430107 	.inst	0x0d430107 ; undefined
    131c:	01080000 	.inst	0x01080000 ; undefined
    1320:	00000330 	.inst	0x00000330 ; undefined
    1324:	03b20109 	.inst	0x03b20109 ; undefined
    1328:	010a0000 	.inst	0x010a0000 ; undefined
    132c:	000008c7 	.inst	0x000008c7 ; undefined
    1330:	6807000b 	.inst	0x6807000b ; undefined
    1334:	1000000d 	adr	x13, 1334 <_start-0x1feccc>
    1338:	0443031b 	subr	z27.h, p0/m, z27.h, z24.h
    133c:	9b100000 	madd	x0, x0, x16, x0
    1340:	b5000000 	cbnz	x0, 1340 <_start-0x1fecc0>
    1344:	11000004 	add	w4, w0, #0x0
    1348:	0000007c 	.inst	0x0000007c ; undefined
    134c:	a7230000 	.inst	0xa7230000 ; undefined
    1350:	08000006 	stxrb	w0, w6, [x0]
    1354:	08013802 	stxrb	w1, w2, [x0]
    1358:	000004d2 	.inst	0x000004d2 ; undefined
    135c:	0005a724 	.inst	0x0005a724 ; undefined
    1360:	01390200 	.inst	0x01390200 ; undefined
    1364:	0004a511 	.inst	0x0004a511 ; undefined
    1368:	25000000 	cmpge	p0.b, p0/z, z0.b, #0
    136c:	000004f2 	.inst	0x000004f2 ; undefined
    1370:	21013b02 	.inst	0x21013b02 ; undefined
    1374:	000004b5 	.inst	0x000004b5 ; undefined
    1378:	0003411b 	.inst	0x0003411b ; undefined
    137c:	11040000 	add	w0, w0, #0x100
    1380:	00054d0b 	.inst	0x00054d0b ; undefined
    1384:	61740200 	.inst	0x61740200 ; undefined
    1388:	0c110067 	.inst	0x0c110067 ; undefined
    138c:	0004d218 	.inst	0x0004d218 ; undefined
    1390:	6d020000 	stp	d0, d0, [x0, #32]
    1394:	11006773 	add	w19, w27, #0x19
    1398:	054d0f0d 	.inst	0x054d0f0d ; undefined
    139c:	0c080000 	.inst	0x0c080000 ; undefined
    13a0:	00000c7a 	.inst	0x00000c7a ; undefined
    13a4:	a70f0e11 	.inst	0xa70f0e11 ; undefined
    13a8:	c8000000 	stxr	w0, x0, [x0]
    13ac:	07b90c03 	.inst	0x07b90c03 ; undefined
    13b0:	0f110000 	.inst	0x0f110000 ; undefined
    13b4:	00055d0f 	.inst	0x00055d0f ; undefined
    13b8:	0c03d000 	.inst	0x0c03d000 ; undefined
    13bc:	000008e3 	.inst	0x000008e3 ; undefined
    13c0:	b30f1011 	.inst	0xb30f1011 ; undefined
    13c4:	e8000000 	.inst	0xe8000000 ; undefined
    13c8:	09e60c03 	.inst	0x09e60c03 ; undefined
    13cc:	11110000 	add	w0, w0, #0x440
    13d0:	0000b30f 	.inst	0x0000b30f ; undefined
    13d4:	0c03f000 	.inst	0x0c03f000 ; undefined
    13d8:	00000cfa 	.inst	0x00000cfa ; undefined
    13dc:	a70f1211 	.inst	0xa70f1211 ; undefined
    13e0:	f8000000 	stur	x0, [x0]
    13e4:	a7100003 	.inst	0xa7100003 ; undefined
    13e8:	5d000000 	.inst	0x5d000000 ; undefined
    13ec:	11000005 	add	w5, w0, #0x0
    13f0:	0000007c 	.inst	0x0000007c ; undefined
    13f4:	a7100077 	.inst	0xa7100077 ; undefined
    13f8:	6d000000 	stp	d0, d0, [x0]
    13fc:	11000005 	add	w5, w0, #0x0
    1400:	0000007c 	.inst	0x0000007c ; undefined
    1404:	e8260002 	.inst	0xe8260002 ; undefined
    1408:	11000003 	add	w3, w0, #0x0
    140c:	04df0313 	.inst	0x04df0313 ; undefined
    1410:	04000000 	add	z0.b, p0/m, z0.b, z0.b
    1414:	0004e027 	.inst	0x0004e027 ; undefined
    1418:	210d0300 	.inst	0x210d0300 ; undefined
    141c:	00000587 	.inst	0x00000587 ; undefined
    1420:	00056d09 	.inst	0x00056d09 ; undefined
    1424:	11831d00 	.inst	0x11831d00 ; undefined
    1428:	00690000 	.inst	0x00690000 ; undefined
    142c:	0e120000 	tbl	v0.8b, {v0.16b}, v18.8b
    1430:	00060906 	.inst	0x00060906 ; undefined
    1434:	0bcd0100 	.inst	0x0bcd0100 ; undefined
    1438:	01290000 	.inst	0x01290000 ; undefined
    143c:	00000489 	.inst	0x00000489 ; undefined
    1440:	0caa012a 	.inst	0x0caa012a ; undefined
    1444:	012b0000 	.inst	0x012b0000 ; undefined
    1448:	00000722 	.inst	0x00000722 ; undefined
    144c:	049b012c 	bic	z12.s, p0/m, z12.s, z9.s
    1450:	012d0000 	.inst	0x012d0000 ; undefined
    1454:	00000530 	.inst	0x00000530 ; undefined
    1458:	089c012e 	stllrb	w14, [x9]
    145c:	012f0000 	.inst	0x012f0000 ; undefined
    1460:	000008f0 	.inst	0x000008f0 ; undefined
    1464:	05e40130 	.inst	0x05e40130 ; undefined
    1468:	01310000 	.inst	0x01310000 ; undefined
    146c:	00000514 	.inst	0x00000514 ; undefined
    1470:	031e0132 	.inst	0x031e0132 ; undefined
    1474:	01330000 	.inst	0x01330000 ; undefined
    1478:	00000b2d 	.inst	0x00000b2d ; undefined
    147c:	06eb0134 	.inst	0x06eb0134 ; undefined
    1480:	01350000 	.inst	0x01350000 ; undefined
    1484:	000008b8 	.inst	0x000008b8 ; undefined
    1488:	06db0136 	.inst	0x06db0136 ; undefined
    148c:	01370000 	.inst	0x01370000 ; undefined
    1490:	0000045d 	.inst	0x0000045d ; undefined
    1494:	0be20138 	.inst	0x0be20138 ; undefined
    1498:	01390000 	.inst	0x01390000 ; undefined
    149c:	0000055d 	.inst	0x0000055d ; undefined
    14a0:	6f28003a 	.inst	0x6f28003a ; undefined
    14a4:	10000006 	adr	x6, 14a4 <_start-0x1feb5c>
    14a8:	31084506 	adds	w6, w8, #0x211
    14ac:	17000006 	b	fffffffffc0014c4 <__sel4_ipc_buffer_obj+0xfffffffffbdfa4c4>
    14b0:	0000042e 	.inst	0x0000042e ; undefined
    14b4:	3c064606 	str	b6, [x16], #100
    14b8:	00000000 	.inst	0x00000000 ; undefined
    14bc:	0000c517 	.inst	0x0000c517 ; undefined
    14c0:	0c470600 	.inst	0x0c470600 ; undefined
    14c4:	000000a7 	.inst	0x000000a7 ; undefined
    14c8:	2e070008 	ext	v8.8b, v0.8b, v7.8b, #0
    14cc:	06000008 	.inst	0x06000008 ; undefined
    14d0:	06092749 	.inst	0x06092749 ; undefined
    14d4:	59070000 	.inst	0x59070000 ; undefined
    14d8:	0700000d 	.inst	0x0700000d ; undefined
    14dc:	0069160f 	.inst	0x0069160f ; undefined
    14e0:	32070000 	orr	w0, w0, #0x2000000
    14e4:	0700000d 	.inst	0x0700000d ; undefined
    14e8:	04d21c10 	smulh	z16.d, p7/m, z16.d, z0.d
    14ec:	01080000 	.inst	0x01080000 ; undefined
    14f0:	00018408 	.inst	0x00018408 ; undefined
    14f4:	06551300 	.inst	0x06551300 ; undefined
    14f8:	08290000 	.inst	0x08290000 ; undefined
    14fc:	0006611e 	.inst	0x0006611e ; undefined
    1500:	00980700 	.inst	0x00980700 ; undefined
    1504:	d6130000 	.inst	0xd6130000 ; undefined
    1508:	00007c17 	.inst	0x00007c17 ; undefined
    150c:	05080800 	.inst	0x05080800 ; undefined
    1510:	00000105 	.inst	0x00000105 ; undefined
    1514:	6f041008 	.inst	0x6f041008 ; undefined
    1518:	18000001 	ldr	w1, 1518 <_start-0x1feae8>
    151c:	00000b46 	.inst	0x00000b46 ; undefined
    1520:	06933007 	.inst	0x06933007 ; undefined
    1524:	3c0d0000 	stur	b0, [x0, #208]
    1528:	00000000 	.inst	0x00000000 ; undefined
    152c:	0001c02a 	.inst	0x0001c02a ; undefined
    1530:	053d1500 	ext	z0.b, z0.b, z8.b, #237
    1534:	0000003c 	.inst	0x0000003c ; undefined
    1538:	000006aa 	.inst	0x000006aa ; undefined
    153c:	0006aa0d 	.inst	0x0006aa0d ; undefined
    1540:	09002b00 	.inst	0x09002b00 ; undefined
    1544:	0000065c 	.inst	0x0000065c ; undefined
    1548:	000b0e18 	.inst	0x000b0e18 ; undefined
    154c:	cf161400 	.inst	0xcf161400 ; undefined
    1550:	0d000006 	st1	{v6.b}[0], [x0]
    1554:	000006aa 	.inst	0x000006aa ; undefined
    1558:	0006aa0d 	.inst	0x0006aa0d ; undefined
    155c:	003c0d00 	.inst	0x003c0d00 ; NYI
    1560:	aa0d0000 	orr	x0, x0, x13
    1564:	00000006 	.inst	0x00000006 ; undefined
    1568:	000ba418 	.inst	0x000ba418 ; undefined
    156c:	e0350700 	.inst	0xe0350700 ; undefined
    1570:	0d000006 	st1	{v6.b}[0], [x0]
    1574:	000006aa 	.inst	0x000006aa ; undefined
    1578:	03842c00 	.inst	0x03842c00 ; undefined
    157c:	12010000 	and	w0, w0, #0x80000000
    1580:	2036b806 	.inst	0x2036b806 ; undefined
    1584:	00000000 	.inst	0x00000000 ; undefined
    1588:	00006800 	.inst	0x00006800 ; undefined
    158c:	00000000 	.inst	0x00000000 ; undefined
    1590:	3b9c0100 	.inst	0x3b9c0100 ; undefined
    1594:	03000007 	.inst	0x03000007 ; undefined
    1598:	0000052b 	.inst	0x0000052b ; undefined
    159c:	aa201201 	orn	x1, x16, x0, lsl #4
    15a0:	02000006 	.inst	0x02000006 ; undefined
    15a4:	83037891 	.inst	0x83037891 ; undefined
    15a8:	0100000b 	.inst	0x0100000b ; undefined
    15ac:	003c2a12 	.inst	0x003c2a12 ; NYI
    15b0:	91020000 	add	x0, x0, #0x80
    15b4:	0b750374 	.inst	0x0b750374 ; undefined
    15b8:	12010000 	and	w0, w0, #0x80000000
    15bc:	0006aa3c 	.inst	0x0006aa3c ; undefined
    15c0:	68910200 	.inst	0x68910200 ; undefined
    15c4:	72747304 	.inst	0x72747304 ; undefined
    15c8:	52120100 	eor	w0, w8, #0x4000
    15cc:	000006aa 	.inst	0x000006aa ; undefined
    15d0:	00609102 	.inst	0x00609102 ; undefined
    15d4:	0002dc2d 	.inst	0x0002dc2d ; undefined
    15d8:	060c0100 	.inst	0x060c0100 ; undefined
    15dc:	00203698 	.inst	0x00203698 ; NYI
    15e0:	00000000 	.inst	0x00000000 ; undefined
    15e4:	00000020 	.inst	0x00000020 ; undefined
    15e8:	00000000 	.inst	0x00000000 ; undefined
    15ec:	07699c01 	.inst	0x07699c01 ; undefined
    15f0:	1a030000 	adc	w0, w0, w3
    15f4:	01000002 	.inst	0x01000002 ; undefined
    15f8:	0655140c 	.inst	0x0655140c ; undefined
    15fc:	91020000 	add	x0, x0, #0x80
    1600:	100f007f 	adr	xzr, 1f60c <_start-0x1e09f4>
    1604:	0800000b 	stxrb	w0, w11, [x0]
    1608:	365c0dae 	tbz	w14, #11, ffffffffffff97bc <__sel4_ipc_buffer_obj+0xffffffffffdf27bc>
    160c:	00000020 	.inst	0x00000020 ; undefined
    1610:	003c0000 	.inst	0x003c0000 ; NYI
    1614:	00000000 	.inst	0x00000000 ; undefined
    1618:	9c010000 	ldr	q0, 3618 <_start-0x1fc9e8>
    161c:	000007c4 	.inst	0x000007c4 ; undefined
    1620:	0003fe03 	.inst	0x0003fe03 ; undefined
    1624:	12af0800 	mov	w0, #0x87bfffff            	// #-2017460225
    1628:	000006aa 	.inst	0x000006aa ; undefined
    162c:	03789102 	.inst	0x03789102 ; undefined
    1630:	0000052b 	.inst	0x0000052b ; undefined
    1634:	aa12b008 	orr	x8, x0, x18, lsl #44
    1638:	02000006 	.inst	0x02000006 ; undefined
    163c:	83037091 	.inst	0x83037091 ; undefined
    1640:	0800000b 	stxrb	w0, w11, [x0]
    1644:	006912b1 	.inst	0x006912b1 ; undefined
    1648:	91020000 	add	x0, x0, #0x80
    164c:	0b75036c 	.inst	0x0b75036c ; undefined
    1650:	b2080000 	orr	x0, x0, #0x100000001000000
    1654:	0006aa12 	.inst	0x0006aa12 ; undefined
    1658:	60910200 	.inst	0x60910200 ; undefined
    165c:	03f71400 	.inst	0x03f71400 ; undefined
    1660:	0ea70000 	saddl	v0.2d, v0.2s, v7.2s
    1664:	00000661 	.inst	0x00000661 ; undefined
    1668:	00203600 	.inst	0x00203600 ; NYI
    166c:	00000000 	.inst	0x00000000 ; undefined
    1670:	0000005c 	.inst	0x0000005c ; undefined
    1674:	00000000 	.inst	0x00000000 ; undefined
    1678:	081c9c01 	stlxrb	w28, w1, [x0]
    167c:	54030000 	b.eq	767c <_start-0x1f8984>  // b.none
    1680:	0800000d 	stxrb	w0, w13, [x0]
    1684:	06611ba7 	.inst	0x06611ba7 ; undefined
    1688:	91020000 	add	x0, x0, #0x80
    168c:	00630468 	.inst	0x00630468 ; undefined
    1690:	3c25a708 	.inst	0x3c25a708 ; undefined
    1694:	02000000 	.inst	0x02000000 ; undefined
    1698:	6e046491 	mov	v17.s[0], v4.s[3]
    169c:	2fa70800 	mla	v0.2s, v0.2s, v7.s[3]
    16a0:	00000668 	.inst	0x00000668 ; undefined
    16a4:	0a589102 	.inst	0x0a589102 ; undefined
    16a8:	a9080073 	stp	x19, x0, [x3, #128]
    16ac:	00081c14 	.inst	0x00081c14 ; undefined
    16b0:	78910200 	ldursh	x0, [x16, #-240]
    16b4:	00560900 	.inst	0x00560900 ; undefined
    16b8:	83140000 	.inst	0x83140000 ; undefined
    16bc:	9f00000c 	.inst	0x9f00000c ; undefined
    16c0:	0006610e 	.inst	0x0006610e ; undefined
    16c4:	20359800 	.inst	0x20359800 ; undefined
    16c8:	00000000 	.inst	0x00000000 ; undefined
    16cc:	00006800 	.inst	0x00006800 ; undefined
    16d0:	00000000 	.inst	0x00000000 ; undefined
    16d4:	889c0100 	stllr	w0, [x8]
    16d8:	03000008 	.inst	0x03000008 ; undefined
    16dc:	00000d54 	.inst	0x00000d54 ; undefined
    16e0:	63249f08 	.inst	0x63249f08 ; undefined
    16e4:	02000006 	.inst	0x02000006 ; undefined
    16e8:	73046891 	.inst	0x73046891 ; undefined
    16ec:	08006372 	stxrb	w0, w18, [x27]
    16f0:	088d3f9f 	stllrb	wzr, [x28]
    16f4:	91020000 	add	x0, x0, #0x80
    16f8:	006e0460 	.inst	0x006e0460 ; undefined
    16fc:	684b9f08 	.inst	0x684b9f08 ; undefined
    1700:	02000006 	.inst	0x02000006 ; undefined
    1704:	640a5891 	.inst	0x640a5891 ; undefined
    1708:	14a10800 	b	2843708 <__sel4_ipc_buffer_obj+0x263c708>
    170c:	0000081c 	.inst	0x0000081c ; undefined
    1710:	0a789102 	.inst	0x0a789102 ; undefined
    1714:	a2080073 	.inst	0xa2080073 ; undefined
    1718:	0008931a 	.inst	0x0008931a ; undefined
    171c:	70910200 	adr	x0, fffffffffff2375f <__sel4_ipc_buffer_obj+0xffffffffffd1c75f>
    1720:	08920900 	stllrb	w0, [x8]
    1724:	881e0000 	stxr	w30, w0, [x0]
    1728:	2e000008 	ext	v8.8b, v0.8b, v0.8b, #0
    172c:	00005d09 	.inst	0x00005d09 ; undefined
    1730:	0cdc0f00 	.inst	0x0cdc0f00 ; undefined
    1734:	7a080000 	sbcs	w0, w0, w8
    1738:	2032f001 	.inst	0x2032f001 ; undefined
    173c:	00000000 	.inst	0x00000000 ; undefined
    1740:	0002a800 	.inst	0x0002a800 ; undefined
    1744:	00000000 	.inst	0x00000000 ; undefined
    1748:	c69c0100 	.inst	0xc69c0100 ; undefined
    174c:	03000008 	.inst	0x03000008 ; undefined
    1750:	0000069f 	.inst	0x0000069f ; undefined
    1754:	701a7a08 	adr	x8, 36697 <_start-0x1c9969>
    1758:	02000000 	.inst	0x02000000 ; undefined
    175c:	15007891 	b	401f9a0 <__sel4_ipc_buffer_obj+0x3e189a0>
    1760:	000007da 	.inst	0x000007da ; undefined
    1764:	dc014b08 	.inst	0xdc014b08 ; undefined
    1768:	00002032 	.inst	0x00002032 ; undefined
    176c:	14000000 	b	176c <_start-0x1fe894>
    1770:	00000000 	.inst	0x00000000 ; undefined
    1774:	01000000 	.inst	0x01000000 ; undefined
    1778:	0008f49c 	.inst	0x0008f49c ; undefined
    177c:	74630400 	.inst	0x74630400 ; undefined
    1780:	4b080078 	sub	w24, w3, w8
    1784:	0008f422 	.inst	0x0008f422 ; undefined
    1788:	78910200 	ldursh	x0, [x16, #-240]
    178c:	034a0900 	.inst	0x034a0900 ; undefined
    1790:	9f140000 	.inst	0x9f140000 ; undefined
    1794:	4400000a 	.inst	0x4400000a ; undefined
    1798:	00007011 	.inst	0x00007011 ; undefined
    179c:	2032b800 	.inst	0x2032b800 ; undefined
    17a0:	00000000 	.inst	0x00000000 ; undefined
    17a4:	00002400 	.inst	0x00002400 ; undefined
    17a8:	00000000 	.inst	0x00000000 ; undefined
    17ac:	2a9c0100 	orr	w0, w8, w28, asr #0
    17b0:	03000009 	.inst	0x03000009 ; undefined
    17b4:	00000cec 	.inst	0x00000cec ; undefined
    17b8:	2a224408 	orn	w8, w0, w2, lsl #17
    17bc:	02000009 	.inst	0x02000009 ; undefined
    17c0:	09007891 	.inst	0x09007891 ; undefined
    17c4:	00000655 	.inst	0x00000655 ; undefined
    17c8:	0005782f 	.inst	0x0005782f ; undefined
    17cc:	013e0800 	.inst	0x013e0800 ; undefined
    17d0:	00203288 	.inst	0x00203288 ; NYI
    17d4:	00000000 	.inst	0x00000000 ; undefined
    17d8:	00000030 	.inst	0x00000030 ; undefined
    17dc:	00000000 	.inst	0x00000000 ; undefined
    17e0:	095d9c01 	.inst	0x095d9c01 ; undefined
    17e4:	6d0a0000 	stp	d0, d0, [x0, #160]
    17e8:	08006773 	stxrb	w0, w19, [x27]
    17ec:	06491640 	.inst	0x06491640 ; undefined
    17f0:	91020000 	add	x0, x0, #0x80
    17f4:	470f0078 	.inst	0x470f0078 ; undefined
    17f8:	08000005 	stxrb	w0, w5, [x0]
    17fc:	31dc012f 	.inst	0x31dc012f ; undefined
    1800:	00000020 	.inst	0x00000020 ; undefined
    1804:	00ac0000 	.inst	0x00ac0000 ; undefined
    1808:	00000000 	.inst	0x00000000 ; undefined
    180c:	9c010000 	ldr	q0, 380c <_start-0x1fc7f4>
    1810:	000009c4 	.inst	0x000009c4 ; undefined
    1814:	08007804 	stxrb	w0, w4, [x0]
    1818:	004a0e2f 	.inst	0x004a0e2f ; undefined
    181c:	91020000 	add	x0, x0, #0x80
    1820:	6d740a6f 	ldp	d15, d2, [x19, #-192]
    1824:	31080070 	adds	w16, w3, #0x200
    1828:	0009c40a 	.inst	0x0009c40a ; undefined
    182c:	70910200 	adr	x0, fffffffffff2386f <__sel4_ipc_buffer_obj+0xffffffffffd1c86f>
    1830:	0800690a 	stxrb	w0, w10, [x8]
    1834:	00690e32 	.inst	0x00690e32 ; undefined
    1838:	91020000 	add	x0, x0, #0x80
    183c:	31f4307c 	.inst	0x31f4307c ; undefined
    1840:	00000020 	.inst	0x00000020 ; undefined
    1844:	006c0000 	.inst	0x006c0000 ; undefined
    1848:	00000000 	.inst	0x00000000 ; undefined
    184c:	630a0000 	.inst	0x630a0000 ; undefined
    1850:	11350800 	add	w0, w0, #0xd42
    1854:	0000004a 	.inst	0x0000004a ; undefined
    1858:	007b9102 	.inst	0x007b9102 ; undefined
    185c:	06551000 	.inst	0x06551000 ; undefined
    1860:	09d40000 	.inst	0x09d40000 ; undefined
    1864:	7c110000 	stur	h0, [x0, #-240]
    1868:	03000000 	.inst	0x03000000 ; undefined
    186c:	0c131400 	.inst	0x0c131400 ; undefined
    1870:	012a0000 	.inst	0x012a0000 ; undefined
    1874:	00000655 	.inst	0x00000655 ; undefined
    1878:	002031bc 	.inst	0x002031bc ; NYI
    187c:	00000000 	.inst	0x00000000 ; undefined
    1880:	00000020 	.inst	0x00000020 ; undefined
    1884:	00000000 	.inst	0x00000000 ; undefined
    1888:	0a039c01 	.inst	0x0a039c01 ; undefined
    188c:	76040000 	.inst	0x76040000 ; undefined
    1890:	162a0800 	b	fffffffff8a83890 <__sel4_ipc_buffer_obj+0xfffffffff887c890>
    1894:	00000069 	.inst	0x00000069 ; undefined
    1898:	007c9102 	.inst	0x007c9102 ; undefined
    189c:	00087012 	.inst	0x00087012 ; undefined
    18a0:	19bd0700 	.inst	0x19bd0700 ; undefined
    18a4:	000000a7 	.inst	0x000000a7 ; undefined
    18a8:	00203168 	.inst	0x00203168 ; NYI
    18ac:	00000000 	.inst	0x00000000 ; undefined
    18b0:	00000054 	.inst	0x00000054 ; undefined
    18b4:	00000000 	.inst	0x00000000 ; undefined
    18b8:	0a539c01 	.inst	0x0a539c01 ; undefined
    18bc:	73030000 	.inst	0x73030000 ; undefined
    18c0:	07000005 	.inst	0x07000005 ; undefined
    18c4:	063d43bd 	.inst	0x063d43bd ; undefined
    18c8:	91020000 	add	x0, x0, #0x80
    18cc:	6572046c 	fmla	z12.h, p1/m, z3.h, z18.h
    18d0:	bd070067 	str	s7, [x3, #1792]
    18d4:	0000a753 	.inst	0x0000a753 ; undefined
    18d8:	60910200 	.inst	0x60910200 ; undefined
    18dc:	7465720a 	.inst	0x7465720a ; undefined
    18e0:	1ebf0700 	.inst	0x1ebf0700 ; undefined
    18e4:	00000631 	.inst	0x00000631 ; undefined
    18e8:	00709102 	.inst	0x00709102 ; undefined
    18ec:	0009b312 	.inst	0x0009b312 ; undefined
    18f0:	12840700 	mov	w0, #0xffffdfc7            	// #-8249
    18f4:	000000a7 	.inst	0x000000a7 ; undefined
    18f8:	0020314c 	.inst	0x0020314c ; NYI
    18fc:	00000000 	.inst	0x00000000 ; undefined
    1900:	0000001c 	.inst	0x0000001c ; undefined
    1904:	00000000 	.inst	0x00000000 ; undefined
    1908:	0a849c01 	.inst	0x0a849c01 ; undefined
    190c:	6d040000 	stp	d0, d0, [x0, #64]
    1910:	84070072 	ld1sb	{z18.s}, p0/z, [x3, z7.s, uxtw]
    1914:	0000832d 	.inst	0x0000832d ; undefined
    1918:	7f910200 	.inst	0x7f910200 ; undefined
    191c:	07120f00 	.inst	0x07120f00 ; undefined
    1920:	7f070000 	.inst	0x7f070000 ; undefined
    1924:	2031240d 	.inst	0x2031240d ; undefined
    1928:	00000000 	.inst	0x00000000 ; undefined
    192c:	00002800 	.inst	0x00002800 ; undefined
    1930:	00000000 	.inst	0x00000000 ; undefined
    1934:	c09c0100 	.inst	0xc09c0100 ; undefined
    1938:	0400000a 	add	z10.b, p0/m, z10.b, z0.b
    193c:	0700726d 	.inst	0x0700726d ; undefined
    1940:	0083287f 	.inst	0x0083287f ; undefined
    1944:	91020000 	add	x0, x0, #0x80
    1948:	00c5037f 	.inst	0x00c5037f ; undefined
    194c:	7f070000 	.inst	0x7f070000 ; undefined
    1950:	0000a736 	.inst	0x0000a736 ; undefined
    1954:	70910200 	adr	x0, fffffffffff23997 <__sel4_ipc_buffer_obj+0xffffffffffd1c997>
    1958:	06351200 	.inst	0x06351200 ; undefined
    195c:	70070000 	adr	x0, f95f <_start-0x1f06a1>
    1960:	00064920 	.inst	0x00064920 ; undefined
    1964:	2030f400 	.inst	0x2030f400 ; undefined
    1968:	00000000 	.inst	0x00000000 ; undefined
    196c:	00003000 	.inst	0x00003000 ; undefined
    1970:	00000000 	.inst	0x00000000 ; undefined
    1974:	019c0100 	.inst	0x019c0100 ; undefined
    1978:	0300000b 	.inst	0x0300000b ; undefined
    197c:	00001193 	.inst	0x00001193 ; undefined
    1980:	a73f7007 	.inst	0xa73f7007 ; undefined
    1984:	02000000 	.inst	0x02000000 ; undefined
    1988:	2d037891 	stp	s17, s30, [x4, #24]
    198c:	07000002 	.inst	0x07000002 ; undefined
    1990:	008f5270 	.inst	0x008f5270 ; undefined
    1994:	91020000 	add	x0, x0, #0x80
    1998:	59150076 	.inst	0x59150076 ; undefined
    199c:	0700000a 	.inst	0x0700000a ; undefined
    19a0:	30d01437 	adr	x23, fffffffffffa1c25 <__sel4_ipc_buffer_obj+0xffffffffffd9ac25>
    19a4:	00000020 	.inst	0x00000020 ; undefined
    19a8:	00240000 	.inst	0x00240000 ; NYI
    19ac:	00000000 	.inst	0x00000000 ; undefined
    19b0:	9c010000 	ldr	q0, 39b0 <_start-0x1fc650>
    19b4:	00000b3c 	.inst	0x00000b3c ; undefined
    19b8:	72726504 	.inst	0x72726504 ; undefined
    19bc:	37370700 	tbnz	w0, #6, fffffffffffffa9c <__sel4_ipc_buffer_obj+0xffffffffffdf8a9c>
    19c0:	00000499 	.inst	0x00000499 ; undefined
    19c4:	0a6c9102 	.inst	0x0a6c9102 ; undefined
    19c8:	40070078 	.inst	0x40070078 ; undefined
    19cc:	000b3c0a 	.inst	0x000b3c0a ; undefined
    19d0:	78910200 	ldursh	x0, [x16, #-240]
    19d4:	003c0900 	.inst	0x003c0900 ; NYI
    19d8:	6f1f0000 	.inst	0x6f1f0000 ; undefined
    19dc:	06000006 	.inst	0x06000006 ; undefined
    19e0:	06310580 	.inst	0x06310580 ; undefined
    19e4:	2fc80000 	.inst	0x2fc80000 ; undefined
    19e8:	00000020 	.inst	0x00000020 ; undefined
    19ec:	01080000 	.inst	0x01080000 ; undefined
    19f0:	00000000 	.inst	0x00000000 ; undefined
    19f4:	9c010000 	ldr	q0, 39f4 <_start-0x1fc60c>
    19f8:	00000bf8 	.inst	0x00000bf8 ; undefined
    19fc:	0009930b 	.inst	0x0009930b ; undefined
    1a00:	05800600 	and	z0.b, z0.b, #0x1
    1a04:	00035626 	.inst	0x00035626 ; undefined
    1a08:	a8910300 	stp	x0, x0, [x24], #272
    1a0c:	04da0b7f 	and	z31.d, p2/m, z31.d, z27.d
    1a10:	80060000 	.inst	0x80060000 ; undefined
    1a14:	01683d05 	.inst	0x01683d05 ; undefined
    1a18:	91030000 	add	x0, x0, #0xc0
    1a1c:	d3197fa0 	.inst	0xd3197fa0 ; undefined
    1a20:	06000004 	.inst	0x06000004 ; undefined
    1a24:	311b0582 	adds	w2, w12, #0x6c1
    1a28:	02000006 	.inst	0x02000006 ; undefined
    1a2c:	740e6091 	.inst	0x740e6091 ; undefined
    1a30:	06006761 	.inst	0x06006761 ; undefined
    1a34:	d2150583 	eor	x3, x12, #0x180000001800
    1a38:	02000004 	.inst	0x02000004 ; undefined
    1a3c:	a8195891 	stnp	x17, x22, [x4, #400]
    1a40:	06000009 	.inst	0x06000009 ; undefined
    1a44:	d2150584 	eor	x4, x12, #0x180000001800
    1a48:	02000004 	.inst	0x02000004 ; undefined
    1a4c:	6d0e5091 	stp	d17, d20, [x4, #224]
    1a50:	06003072 	.inst	0x06003072 ; undefined
    1a54:	a70c0585 	.inst	0xa70c0585 ; undefined
    1a58:	02000000 	.inst	0x02000000 ; undefined
    1a5c:	6d0e4891 	stp	d17, d18, [x4, #224]
    1a60:	06003172 	.inst	0x06003172 ; undefined
    1a64:	a70c0586 	.inst	0xa70c0586 ; undefined
    1a68:	02000000 	.inst	0x02000000 ; undefined
    1a6c:	6d0e4091 	stp	d17, d16, [x4, #224]
    1a70:	06003272 	.inst	0x06003272 ; undefined
    1a74:	a70c0587 	.inst	0xa70c0587 ; undefined
    1a78:	03000000 	.inst	0x03000000 ; undefined
    1a7c:	0e7fb891 	.inst	0x0e7fb891 ; undefined
    1a80:	0033726d 	.inst	0x0033726d ; NYI
    1a84:	0c058806 	.inst	0x0c058806 ; undefined
    1a88:	000000a7 	.inst	0x000000a7 ; undefined
    1a8c:	7fb09103 	fmulx	s3, s8, v16.s[1]
    1a90:	088b1200 	stllrb	w0, [x16]
    1a94:	bb050000 	.inst	0xbb050000 ; undefined
    1a98:	0004d228 	.inst	0x0004d228 ; undefined
    1a9c:	202e5400 	.inst	0x202e5400 ; undefined
    1aa0:	00000000 	.inst	0x00000000 ; undefined
    1aa4:	00017400 	.inst	0x00017400 ; undefined
    1aa8:	00000000 	.inst	0x00000000 ; undefined
    1aac:	c49c0100 	ld1sh	{z0.d}, p0/z, [x8, z28.d, uxtw]
    1ab0:	0300000c 	.inst	0x0300000c ; undefined
    1ab4:	00000d54 	.inst	0x00000d54 ; undefined
    1ab8:	b343bb05 	bfxil	x5, x24, #3, #44
    1abc:	02000000 	.inst	0x02000000 ; undefined
    1ac0:	7c034891 	.inst	0x7c034891 ; undefined
    1ac4:	05000003 	orr	z3.s, z3.s, #0x1
    1ac8:	04d25cbb 	mla	z27.d, p7/m, z5.d, z18.d
    1acc:	91020000 	add	x0, x0, #0x80
    1ad0:	726d0440 	.inst	0x726d0440 ; undefined
    1ad4:	bc050030 	stur	s16, [x1, #80]
    1ad8:	000cc444 	.inst	0x000cc444 ; undefined
    1adc:	b8910300 	ldursw	x0, [x24, #-240]
    1ae0:	726d047f 	.inst	0x726d047f ; undefined
    1ae4:	bc050031 	stur	s17, [x1, #80]
    1ae8:	000cc454 	.inst	0x000cc454 ; undefined
    1aec:	b0910300 	adrp	x0, ffffffff22062000 <__sel4_ipc_buffer_obj+0xffffffff21e5b000>
    1af0:	726d047f 	.inst	0x726d047f ; undefined
    1af4:	bc050032 	stur	s18, [x1, #80]
    1af8:	000cc464 	.inst	0x000cc464 ; undefined
    1afc:	a8910300 	stp	x0, x0, [x24], #272
    1b00:	726d047f 	.inst	0x726d047f ; undefined
    1b04:	bc050033 	stur	s19, [x1, #80]
    1b08:	000cc474 	.inst	0x000cc474 ; undefined
    1b0c:	a0910300 	.inst	0xa0910300 ; undefined
    1b10:	0484057f 	.inst	0x0484057f ; undefined
    1b14:	be050000 	.inst	0xbe050000 ; undefined
    1b18:	0004d218 	.inst	0x0004d218 ; undefined
    1b1c:	78910200 	ldursh	x0, [x16, #-240]
    1b20:	000bdd05 	.inst	0x000bdd05 ; undefined
    1b24:	0fbf0500 	.inst	0x0fbf0500 ; undefined
    1b28:	000000a7 	.inst	0x000000a7 ; undefined
    1b2c:	05709102 	.inst	0x05709102 ; undefined
    1b30:	00000b67 	.inst	0x00000b67 ; undefined
    1b34:	a70fc005 	.inst	0xa70fc005 ; undefined
    1b38:	02000000 	.inst	0x02000000 ; undefined
    1b3c:	ff056891 	.inst	0xff056891 ; undefined
    1b40:	0500000b 	orr	z11.s, z11.s, #0x1
    1b44:	00a70fc1 	.inst	0x00a70fc1 ; undefined
    1b48:	91020000 	add	x0, x0, #0x80
    1b4c:	0c040560 	.inst	0x0c040560 ; undefined
    1b50:	c2050000 	.inst	0xc2050000 ; undefined
    1b54:	0000a70f 	.inst	0x0000a70f ; undefined
    1b58:	58910200 	ldr	x0, fffffffffff23b98 <__sel4_ipc_buffer_obj+0xffffffffffd1cb98>
    1b5c:	00a70900 	.inst	0x00a70900 ; undefined
    1b60:	dc0f0000 	.inst	0xdc0f0000 ; undefined
    1b64:	05000009 	orr	z9.s, z9.s, #0x1
    1b68:	2dd81a14 	ldp	s20, s6, [x16, #192]!
    1b6c:	00000020 	.inst	0x00000020 ; undefined
    1b70:	007c0000 	.inst	0x007c0000 ; undefined
    1b74:	00000000 	.inst	0x00000000 ; undefined
    1b78:	9c010000 	ldr	q0, 3b78 <_start-0x1fc488>
    1b7c:	00000d06 	.inst	0x00000d06 ; undefined
    1b80:	000d5403 	.inst	0x000d5403 ; undefined
    1b84:	2e140500 	.inst	0x2e140500 ; undefined
    1b88:	000000b3 	.inst	0x000000b3 ; undefined
    1b8c:	03789102 	.inst	0x03789102 ; undefined
    1b90:	0000037c 	.inst	0x0000037c ; undefined
    1b94:	d2471405 	eor	x5, x0, #0x7e00000000000000
    1b98:	02000004 	.inst	0x02000004 ; undefined
    1b9c:	15007091 	b	401dde0 <__sel4_ipc_buffer_obj+0x3e16de0>
    1ba0:	00000c5d 	.inst	0x00000c5d ; undefined
    1ba4:	2c149204 	stnp	s4, s4, [x16, #164]
    1ba8:	0000202d 	.inst	0x0000202d ; undefined
    1bac:	ac000000 	stnp	q0, q0, [x0]
    1bb0:	00000000 	.inst	0x00000000 ; undefined
    1bb4:	01000000 	.inst	0x01000000 ; undefined
    1bb8:	000e2b9c 	.inst	0x000e2b9c ; undefined
    1bbc:	79730400 	ldrh	w0, [x0, #6530]
    1bc0:	92040073 	and	x19, x3, #0x1000000010000000
    1bc4:	0000a730 	.inst	0x0000a730 ; undefined
    1bc8:	78910200 	ldursh	x0, [x16, #-240]
    1bcc:	000d5403 	.inst	0x000d5403 ; undefined
    1bd0:	3f920400 	.inst	0x3f920400 ; undefined
    1bd4:	000000a7 	.inst	0x000000a7 ; undefined
    1bd8:	03709102 	.inst	0x03709102 ; undefined
    1bdc:	00000ca0 	.inst	0x00000ca0 ; undefined
    1be0:	c4509204 	ld1sb	{z4.d}, p4/z, [x16, z16.d]
    1be4:	0200000c 	.inst	0x0200000c ; undefined
    1be8:	6c036891 	stnp	d17, d26, [x4, #48]
    1bec:	0400000b 	add	z11.b, p0/m, z11.b, z0.b
    1bf0:	00a76592 	.inst	0x00a76592 ; undefined
    1bf4:	91020000 	add	x0, x0, #0x80
    1bf8:	04800360 	add	z0.s, p0/m, z0.s, z27.s
    1bfc:	93040000 	.inst	0x93040000 ; undefined
    1c00:	000cc431 	.inst	0x000cc431 ; undefined
    1c04:	58910200 	ldr	x0, fffffffffff23c44 <__sel4_ipc_buffer_obj+0xffffffffffd1cc44>
    1c08:	000b3b03 	.inst	0x000b3b03 ; undefined
    1c0c:	46930400 	.inst	0x46930400 ; undefined
    1c10:	00000cc4 	.inst	0x00000cc4 ; undefined
    1c14:	03509102 	.inst	0x03509102 ; undefined
    1c18:	000003c7 	.inst	0x000003c7 ; undefined
    1c1c:	c45d9304 	ld1sb	{z4.d}, p4/z, [x24, z29.d]
    1c20:	0200000c 	.inst	0x0200000c ; undefined
    1c24:	d2034891 	eor	x17, x4, #0xe000ffffe000ffff
    1c28:	04000003 	add	z3.b, p0/m, z3.b, z0.b
    1c2c:	0cc47493 	ld1	{v19.4h}, [x4], x4
    1c30:	91020000 	add	x0, x0, #0x80
    1c34:	03dd0340 	.inst	0x03dd0340 ; undefined
    1c38:	93040000 	.inst	0x93040000 ; undefined
    1c3c:	000cc48b 	.inst	0x000cc48b ; undefined
    1c40:	00910200 	.inst	0x00910200 ; undefined
    1c44:	0013cb03 	.inst	0x0013cb03 ; undefined
    1c48:	3f940400 	.inst	0x3f940400 ; undefined
    1c4c:	000000a7 	.inst	0x000000a7 ; undefined
    1c50:	05089102 	.inst	0x05089102 ; undefined
    1c54:	0000064a 	.inst	0x0000064a ; undefined
    1c58:	a7189604 	.inst	0xa7189604 ; undefined
    1c5c:	01000000 	.inst	0x01000000 ; undefined
    1c60:	04840550 	.inst	0x04840550 ; undefined
    1c64:	97040000 	bl	fffffffffc101c64 <__sel4_ipc_buffer_obj+0xfffffffffbefac64>
    1c68:	0000a718 	.inst	0x0000a718 ; undefined
    1c6c:	05510100 	mov	z0.h, p1/z, #8
    1c70:	00000bdd 	.inst	0x00000bdd ; undefined
    1c74:	a7189a04 	.inst	0xa7189a04 ; undefined
    1c78:	01000000 	.inst	0x01000000 ; undefined
    1c7c:	0b670552 	.inst	0x0b670552 ; undefined
    1c80:	9b040000 	madd	x0, x0, x4, x0
    1c84:	0000a718 	.inst	0x0000a718 ; undefined
    1c88:	05530100 	mov	z0.h, p3/z, #8
    1c8c:	00000bff 	.inst	0x00000bff ; undefined
    1c90:	a7189c04 	.inst	0xa7189c04 ; undefined
    1c94:	01000000 	.inst	0x01000000 ; undefined
    1c98:	0c040554 	.inst	0x0c040554 ; undefined
    1c9c:	9d040000 	.inst	0x9d040000 ; undefined
    1ca0:	0000a718 	.inst	0x0000a718 ; undefined
    1ca4:	05550100 	mov	z0.h, p5/z, #8
    1ca8:	00000c09 	.inst	0x00000c09 ; undefined
    1cac:	a7059e04 	.inst	0xa7059e04 ; undefined
    1cb0:	01000000 	.inst	0x01000000 ; undefined
    1cb4:	0b7e0556 	.inst	0x0b7e0556 ; undefined
    1cb8:	a1040000 	.inst	0xa1040000 ; undefined
    1cbc:	0000a718 	.inst	0x0000a718 ; undefined
    1cc0:	00570100 	.inst	0x00570100 ; undefined
    1cc4:	000ac515 	.inst	0x000ac515 ; undefined
    1cc8:	14390400 	b	e42cc8 <__sel4_ipc_buffer_obj+0xc3bcc8>
    1ccc:	00202ce0 	.inst	0x00202ce0 ; NYI
    1cd0:	00000000 	.inst	0x00000000 ; undefined
    1cd4:	0000004c 	.inst	0x0000004c ; undefined
    1cd8:	00000000 	.inst	0x00000000 ; undefined
    1cdc:	0f159c01 	sqrshrn	v1.4h, v0.4s, #11
    1ce0:	73040000 	.inst	0x73040000 ; undefined
    1ce4:	04007379 	mls	z25.b, p4/m, z27.b, z0.b
    1ce8:	00a72b39 	.inst	0x00a72b39 ; undefined
    1cec:	91020000 	add	x0, x0, #0x80
    1cf0:	0d540378 	.inst	0x0d540378 ; undefined
    1cf4:	39040000 	strb	w0, [x0, #256]
    1cf8:	0000a73a 	.inst	0x0000a73a ; undefined
    1cfc:	70910200 	adr	x0, fffffffffff23d3f <__sel4_ipc_buffer_obj+0xffffffffffd1cd3f>
    1d00:	000b6c03 	.inst	0x000b6c03 ; undefined
    1d04:	4a390400 	eon	w0, w0, w25, lsl #1
    1d08:	000000a7 	.inst	0x000000a7 ; undefined
    1d0c:	04689102 	asr	z2.s, z8.s, #24
    1d10:	0030726d 	.inst	0x0030726d ; NYI
    1d14:	a75e3904 	.inst	0xa75e3904 ; undefined
    1d18:	02000000 	.inst	0x02000000 ; undefined
    1d1c:	6d046091 	stp	d17, d24, [x4, #64]
    1d20:	04003172 	saddv	d18, p4, z11.b
    1d24:	00a76d39 	.inst	0x00a76d39 ; undefined
    1d28:	91020000 	add	x0, x0, #0x80
    1d2c:	726d0458 	.inst	0x726d0458 ; undefined
    1d30:	3a040032 	adcs	w18, w1, w4
    1d34:	0000a72b 	.inst	0x0000a72b ; undefined
    1d38:	50910200 	adr	x0, fffffffffff23d7a <__sel4_ipc_buffer_obj+0xffffffffffd1cd7a>
    1d3c:	33726d04 	.inst	0x33726d04 ; undefined
    1d40:	3a3a0400 	.inst	0x3a3a0400 ; undefined
    1d44:	000000a7 	.inst	0x000000a7 ; undefined
    1d48:	05489102 	.inst	0x05489102 ; undefined
    1d4c:	0000064a 	.inst	0x0000064a ; undefined
    1d50:	a7183c04 	.inst	0xa7183c04 ; undefined
    1d54:	01000000 	.inst	0x01000000 ; undefined
    1d58:	04840550 	.inst	0x04840550 ; undefined
    1d5c:	3d040000 	str	b0, [x0, #256]
    1d60:	0000a718 	.inst	0x0000a718 ; undefined
    1d64:	05510100 	mov	z0.h, p1/z, #8
    1d68:	00000bdd 	.inst	0x00000bdd ; undefined
    1d6c:	a7184004 	.inst	0xa7184004 ; undefined
    1d70:	01000000 	.inst	0x01000000 ; undefined
    1d74:	0b670552 	.inst	0x0b670552 ; undefined
    1d78:	41040000 	.inst	0x41040000 ; undefined
    1d7c:	0000a718 	.inst	0x0000a718 ; undefined
    1d80:	05530100 	mov	z0.h, p3/z, #8
    1d84:	00000bff 	.inst	0x00000bff ; undefined
    1d88:	a7184204 	.inst	0xa7184204 ; undefined
    1d8c:	01000000 	.inst	0x01000000 ; undefined
    1d90:	0c040554 	.inst	0x0c040554 ; undefined
    1d94:	43040000 	.inst	0x43040000 ; undefined
    1d98:	0000a718 	.inst	0x0000a718 ; undefined
    1d9c:	05550100 	mov	z0.h, p5/z, #8
    1da0:	00000b7e 	.inst	0x00000b7e ; undefined
    1da4:	a7184604 	.inst	0xa7184604 ; undefined
    1da8:	01000000 	.inst	0x01000000 ; undefined
    1dac:	520f0057 	eor	w23, w2, #0x20000
    1db0:	03000004 	.inst	0x03000004 ; undefined
    1db4:	2ca81a33 	stp	s19, s6, [x17], #-192
    1db8:	00000020 	.inst	0x00000020 ; undefined
    1dbc:	00380000 	.inst	0x00380000 ; NYI
    1dc0:	00000000 	.inst	0x00000000 ; undefined
    1dc4:	9c010000 	ldr	q0, 3dc4 <_start-0x1fc23c>
    1dc8:	00000f4f 	.inst	0x00000f4f ; undefined
    1dcc:	03006904 	.inst	0x03006904 ; undefined
    1dd0:	003c2933 	.inst	0x003c2933 ; NYI
    1dd4:	91020000 	add	x0, x0, #0x80
    1dd8:	726d047c 	.inst	0x726d047c ; undefined
    1ddc:	36330300 	tbz	w0, #6, 7e3c <_start-0x1f81c4>
    1de0:	000000a7 	.inst	0x000000a7 ; undefined
    1de4:	00709102 	.inst	0x00709102 ; undefined
    1de8:	00060012 	.inst	0x00060012 ; undefined
    1dec:	1f2e0300 	fnmadd	s0, s24, s14, s0
    1df0:	000000a7 	.inst	0x000000a7 ; undefined
    1df4:	00202c7c 	.inst	0x00202c7c ; NYI
    1df8:	00000000 	.inst	0x00000000 ; undefined
    1dfc:	0000002c 	.inst	0x0000002c ; undefined
    1e00:	00000000 	.inst	0x00000000 ; undefined
    1e04:	0f7f9c01 	.inst	0x0f7f9c01 ; undefined
    1e08:	69040000 	.inst	0x69040000 ; undefined
    1e0c:	2e2e0300 	uaddl	v0.8h, v24.8b, v14.8b
    1e10:	0000003c 	.inst	0x0000003c ; undefined
    1e14:	007c9102 	.inst	0x007c9102 ; undefined
    1e18:	00077731 	.inst	0x00077731 ; undefined
    1e1c:	25290300 	.inst	0x25290300 ; undefined
    1e20:	00000587 	.inst	0x00000587 ; undefined
    1e24:	00202c6c 	.inst	0x00202c6c ; NYI
    1e28:	00000000 	.inst	0x00000000 ; undefined
    1e2c:	00000010 	.inst	0x00000010 ; undefined
    1e30:	00000000 	.inst	0x00000000 ; undefined
    1e34:	2e209c01 	pmul	v1.8b, v0.8b, v0.8b
    1e38:	d5000009 	msr	s0_0_c0_c0_0, x9
    1e3c:	00009b01 	.inst	0x00009b01 ; undefined
    1e40:	202c4c00 	.inst	0x202c4c00 ; undefined
    1e44:	00000000 	.inst	0x00000000 ; undefined
    1e48:	00002000 	.inst	0x00002000 ; undefined
    1e4c:	00000000 	.inst	0x00000000 ; undefined
    1e50:	df9c0100 	.inst	0xdf9c0100 ; undefined
    1e54:	0b00000f 	add	w15, w0, w0
    1e58:	000006a7 	.inst	0x000006a7 ; undefined
    1e5c:	3001d502 	adr	x2, 58fd <_start-0x1fa703>
    1e60:	000004d2 	.inst	0x000004d2 ; undefined
    1e64:	0e689102 	sqdmlal	v2.4s, v8.4h, v8.4h
    1e68:	00746572 	.inst	0x00746572 ; undefined
    1e6c:	1101d602 	add	w2, w16, #0x75
    1e70:	0000009b 	.inst	0x0000009b ; undefined
    1e74:	00789102 	.inst	0x00789102 ; undefined
    1e78:	000aaa20 	.inst	0x000aaa20 ; undefined
    1e7c:	9b016000 	madd	x0, x0, x1, x24
    1e80:	2c000000 	stnp	s0, s0, [x0]
    1e84:	0000202c 	.inst	0x0000202c ; undefined
    1e88:	20000000 	.inst	0x20000000 ; undefined
    1e8c:	00000000 	.inst	0x00000000 ; undefined
    1e90:	01000000 	.inst	0x01000000 ; undefined
    1e94:	0010219c 	.inst	0x0010219c ; undefined
    1e98:	06a70b00 	.inst	0x06a70b00 ; undefined
    1e9c:	60020000 	.inst	0x60020000 ; undefined
    1ea0:	04d22f01 	.inst	0x04d22f01 ; undefined
    1ea4:	91020000 	add	x0, x0, #0x80
    1ea8:	65720e68 	fmla	z8.h, p3/m, z19.h, z18.h
    1eac:	61020074 	.inst	0x61020074 ; undefined
    1eb0:	009b1101 	.inst	0x009b1101 ; undefined
    1eb4:	91020000 	add	x0, x0, #0x80
    1eb8:	351f0078 	cbnz	w24, 3fec4 <_start-0x1c013c>
    1ebc:	0200000c 	.inst	0x0200000c ; undefined
    1ec0:	04d2013e 	smulh	z30.d, p0/m, z30.d, z9.d
    1ec4:	2b1c0000 	adds	w0, w0, w28
    1ec8:	00000020 	.inst	0x00000020 ; undefined
    1ecc:	01100000 	.inst	0x01100000 ; undefined
    1ed0:	00000000 	.inst	0x00000000 ; undefined
    1ed4:	9c010000 	ldr	q0, 3ed4 <_start-0x1fc12c>
    1ed8:	000010a7 	.inst	0x000010a7 ; undefined
    1edc:	0011930b 	.inst	0x0011930b ; undefined
    1ee0:	013e0200 	.inst	0x013e0200 ; undefined
    1ee4:	00009b22 	.inst	0x00009b22 ; undefined
    1ee8:	68910200 	.inst	0x68910200 ; undefined
    1eec:	000b000b 	.inst	0x000b000b ; undefined
    1ef0:	013e0200 	.inst	0x013e0200 ; undefined
    1ef4:	00009b35 	.inst	0x00009b35 ; undefined
    1ef8:	60910200 	.inst	0x60910200 ; undefined
    1efc:	0003720b 	.inst	0x0003720b ; undefined
    1f00:	013e0200 	.inst	0x013e0200 ; undefined
    1f04:	00009b50 	.inst	0x00009b50 ; undefined
    1f08:	58910200 	ldr	x0, fffffffffff23f48 <__sel4_ipc_buffer_obj+0xffffffffffd1cf48>
    1f0c:	0009430b 	.inst	0x0009430b ; undefined
    1f10:	013e0200 	.inst	0x013e0200 ; undefined
    1f14:	00009b67 	.inst	0x00009b67 ; undefined
    1f18:	50910200 	adr	x0, fffffffffff23f5a <__sel4_ipc_buffer_obj+0xffffffffffd1cf5a>
    1f1c:	0006a719 	.inst	0x0006a719 ; undefined
    1f20:	013f0200 	.inst	0x013f0200 ; undefined
    1f24:	0004d218 	.inst	0x0004d218 ; undefined
    1f28:	78910200 	ldursh	x0, [x16, #-240]
    1f2c:	000c8a32 	.inst	0x000c8a32 ; undefined
    1f30:	0010b700 	.inst	0x0010b700 ; undefined
    1f34:	88030900 	stxr	w3, w0, [x8]
    1f38:	00002048 	.inst	0x00002048 ; undefined
    1f3c:	00000000 	.inst	0x00000000 ; undefined
    1f40:	00065c10 	.inst	0x00065c10 ; undefined
    1f44:	0010b700 	.inst	0x0010b700 ; undefined
    1f48:	007c1100 	.inst	0x007c1100 ; undefined
    1f4c:	00140000 	.inst	0x00140000 ; undefined
    1f50:	0010a713 	.inst	0x0010a713 ; undefined
    1f54:	01050000 	.inst	0x01050000 ; undefined
    1f58:	00050000 	.inst	0x00050000 ; undefined
    1f5c:	059a0801 	mov	z1.s, p10/z, #64
    1f60:	7a050000 	sbcs	w0, w0, w5
    1f64:	1d000002 	.inst	0x1d000002 ; undefined
    1f68:	00000deb 	.inst	0x00000deb ; undefined
    1f6c:	00000000 	.inst	0x00000000 ; undefined
    1f70:	00203720 	.inst	0x00203720 ; NYI
    1f74:	00000000 	.inst	0x00000000 ; undefined
    1f78:	00000024 	.inst	0x00000024 ; undefined
    1f7c:	00000000 	.inst	0x00000000 ; undefined
    1f80:	00001294 	.inst	0x00001294 ; undefined
    1f84:	7d060101 	str	h1, [x8, #768]
    1f88:	01000001 	.inst	0x01000001 ; undefined
    1f8c:	008e0502 	.inst	0x008e0502 ; undefined
    1f90:	04060000 	.inst	0x04060000 ; undefined
    1f94:	746e6905 	.inst	0x746e6905 ; undefined
    1f98:	05080100 	.inst	0x05080100 ; undefined
    1f9c:	0000010a 	.inst	0x0000010a ; undefined
    1fa0:	7b080101 	.inst	0x7b080101 ; undefined
    1fa4:	01000001 	.inst	0x01000001 ; undefined
    1fa8:	01d50702 	.inst	0x01d50702 ; undefined
    1fac:	04010000 	sub	z0.b, p0/m, z0.b, z0.b
    1fb0:	0001b007 	.inst	0x0001b007 ; undefined
    1fb4:	07080100 	.inst	0x07080100 ; undefined
    1fb8:	000001ab 	.inst	0x000001ab ; undefined
    1fbc:	58040707 	ldr	x7, a09c <_start-0x1f5f64>
    1fc0:	02000000 	.inst	0x02000000 ; undefined
    1fc4:	00990e05 	.inst	0x00990e05 ; undefined
    1fc8:	88020000 	stxr	w2, w0, [x0]
    1fcc:	0000000d 	.inst	0x0000000d ; undefined
    1fd0:	000d9902 	.inst	0x000d9902 ; undefined
    1fd4:	e3020100 	.inst	0xe3020100 ; undefined
    1fd8:	0200000d 	.inst	0x0200000d ; undefined
    1fdc:	000db202 	.inst	0x000db202 ; undefined
    1fe0:	8d020300 	.inst	0x8d020300 ; undefined
    1fe4:	0400000d 	add	z13.b, p0/m, z13.b, z0.b
    1fe8:	000d9502 	.inst	0x000d9502 ; undefined
    1fec:	03000500 	.inst	0x03000500 ; undefined
    1ff0:	00000dce 	.inst	0x00000dce ; undefined
    1ff4:	00006607 	.inst	0x00006607 ; undefined
    1ff8:	02040800 	.inst	0x02040800 ; undefined
    1ffc:	00ba0909 	.inst	0x00ba0909 ; undefined
    2000:	9d090000 	.inst	0x9d090000 ; undefined
    2004:	02000012 	.inst	0x02000012 ; undefined
    2008:	00991a0a 	.inst	0x00991a0a ; undefined
    200c:	00000000 	.inst	0x00000000 ; undefined
    2010:	000d9f03 	.inst	0x000d9f03 ; undefined
    2014:	00a30b00 	.inst	0x00a30b00 ; undefined
    2018:	ba0a0000 	adcs	x0, x0, x10
    201c:	0b000000 	add	w0, w0, w0
    2020:	00000dba 	.inst	0x00000dba ; undefined
    2024:	20060301 	.inst	0x20060301 ; undefined
    2028:	00002037 	.inst	0x00002037 ; undefined
    202c:	24000000 	cmphs	p0.b, p0/z, z0.b, z0.b
    2030:	00000000 	.inst	0x00000000 ; undefined
    2034:	01000000 	.inst	0x01000000 ; undefined
    2038:	0001029c 	.inst	0x0001029c ; undefined
    203c:	0fd80400 	.inst	0x0fd80400 ; undefined
    2040:	02370000 	.inst	0x02370000 ; undefined
    2044:	02000001 	.inst	0x02000001 ; undefined
    2048:	9d047891 	.inst	0x9d047891 ; undefined
    204c:	57000012 	.inst	0x57000012 ; undefined
    2050:	00000099 	.inst	0x00000099 ; undefined
    2054:	00749102 	.inst	0x00749102 ; undefined
    2058:	00c4080c 	.inst	0x00c4080c ; undefined
    205c:	7c000000 	stur	h0, [x0]
    2060:	0500000b 	orr	z11.s, z11.s, #0x1
    2064:	4f080100 	.inst	0x4f080100 ; undefined
    2068:	1b000006 	madd	w6, w0, w0, w0
    206c:	0000027a 	.inst	0x0000027a ; undefined
    2070:	000f881d 	.inst	0x000f881d ; undefined
    2074:	00000000 	.inst	0x00000000 ; undefined
    2078:	20374400 	.inst	0x20374400 ; undefined
    207c:	00000000 	.inst	0x00000000 ; undefined
    2080:	00079c00 	.inst	0x00079c00 ; undefined
    2084:	00000000 	.inst	0x00000000 ; undefined
    2088:	0012eb00 	.inst	0x0012eb00 ; undefined
    208c:	06010800 	.inst	0x06010800 ; undefined
    2090:	0000017d 	.inst	0x0000017d ; undefined
    2094:	8e050208 	.inst	0x8e050208 ; undefined
    2098:	1c000000 	ldr	s0, 2098 <_start-0x1fdf68>
    209c:	6e690504 	uhadd	v4.8h, v8.8h, v9.8h
    20a0:	08080074 	stxrb	w8, w20, [x3]
    20a4:	00010a05 	.inst	0x00010a05 ; undefined
    20a8:	08010800 	stxrb	w1, w0, [x0]
    20ac:	0000017b 	.inst	0x0000017b ; undefined
    20b0:	0010f505 	.inst	0x0010f505 ; undefined
    20b4:	19310800 	.inst	0x19310800 ; undefined
    20b8:	0000005d 	.inst	0x0000005d ; undefined
    20bc:	d5070208 	msr	s0_7_c0_c2_0, x8
    20c0:	05000001 	orr	z1.s, z1.s, #0x1
    20c4:	00000ec4 	.inst	0x00000ec4 ; undefined
    20c8:	70193408 	adr	x8, 3474b <_start-0x1cb8b5>
    20cc:	08000000 	stxrb	w0, w0, [x0]
    20d0:	01b00704 	.inst	0x01b00704 ; undefined
    20d4:	85050000 	.inst	0x85050000 ; undefined
    20d8:	08000000 	stxrb	w0, w0, [x0]
    20dc:	00831937 	.inst	0x00831937 ; undefined
    20e0:	08080000 	stxrb	w8, w0, [x0]
    20e4:	0001ab07 	.inst	0x0001ab07 ; undefined
    20e8:	04071500 	.inst	0x04071500 ; undefined
    20ec:	00000070 	.inst	0x00000070 ; undefined
    20f0:	00bc0509 	.inst	0x00bc0509 ; undefined
    20f4:	88010000 	stxr	w1, w0, [x0]
    20f8:	0000000d 	.inst	0x0000000d ; undefined
    20fc:	000d9901 	.inst	0x000d9901 ; undefined
    2100:	e3010100 	.inst	0xe3010100 ; undefined
    2104:	0200000d 	.inst	0x0200000d ; undefined
    2108:	000db201 	.inst	0x000db201 ; undefined
    210c:	8d010300 	.inst	0x8d010300 ; undefined
    2110:	0400000d 	add	z13.b, p0/m, z13.b, z0.b
    2114:	000d9501 	.inst	0x000d9501 ; undefined
    2118:	05000500 	orr	z0.h, z0.h, #0x1ff
    211c:	00000dce 	.inst	0x00000dce ; undefined
    2120:	8a030709 	and	x9, x24, x3, lsl #1
    2124:	16000000 	b	fffffffff8002124 <__sel4_ipc_buffer_obj+0xfffffffff7dfb124>
    2128:	00dc0904 	.inst	0x00dc0904 ; undefined
    212c:	9d120000 	.inst	0x9d120000 ; undefined
    2130:	0a000012 	and	w18, w0, w0
    2134:	0000bc1a 	.inst	0x0000bc1a ; undefined
    2138:	05000000 	orr	z0.s, z0.s, #0x1
    213c:	00000d9f 	.inst	0x00000d9f ; undefined
    2140:	c8030b09 	stxr	w3, x9, [x24]
    2144:	1d000000 	.inst	0x1d000000 ; undefined
    2148:	000000dc 	.inst	0x000000dc ; undefined
    214c:	0d0e0816 	.inst	0x0d0e0816 ; undefined
    2150:	12000001 	and	w1, w0, #0x1
    2154:	00000f6d 	.inst	0x00000f6d ; undefined
    2158:	00640e0f 	.inst	0x00640e0f ; undefined
    215c:	12000000 	and	w0, w0, #0x1
    2160:	00000ebd 	.inst	0x00000ebd ; undefined
    2164:	00640e10 	.inst	0x00640e10 ; undefined
    2168:	00040000 	.inst	0x00040000 ; undefined
    216c:	00124a05 	.inst	0x00124a05 ; undefined
    2170:	03120900 	.inst	0x03120900 ; undefined
    2174:	000000ed 	.inst	0x000000ed ; undefined
    2178:	000c6f05 	.inst	0x000c6f05 ; undefined
    217c:	25260a00 	.inst	0x25260a00 ; undefined
    2180:	0000004a 	.inst	0x0000004a ; undefined
    2184:	00043405 	.inst	0x00043405 ; undefined
    2188:	25320a00 	.inst	0x25320a00 ; undefined
    218c:	0000005d 	.inst	0x0000005d ; undefined
    2190:	00078905 	.inst	0x00078905 ; undefined
    2194:	25540a00 	cmpge	p0.h, p2/z, z16.h, #-12
    2198:	00000083 	.inst	0x00000083 ; undefined
    219c:	0004c905 	.inst	0x0004c905 ; undefined
    21a0:	15740a00 	b	5d049a0 <__sel4_ipc_buffer_obj+0x5afd9a0>
    21a4:	00000131 	.inst	0x00000131 ; undefined
    21a8:	00080d05 	.inst	0x00080d05 ; undefined
    21ac:	13800a00 	extr	w0, w16, w0, #2
    21b0:	0000013d 	.inst	0x0000013d ; undefined
    21b4:	43080515 	.inst	0x43080515 ; undefined
    21b8:	0b000000 	add	w0, w0, w0
    21bc:	0001d611 	.inst	0x0001d611 ; undefined
    21c0:	05870400 	.inst	0x05870400 ; undefined
    21c4:	047f0000 	add	z0.h, z0.h, z31.h
    21c8:	00000440 	.inst	0x00000440 ; undefined
    21cc:	0c4a047e 	.inst	0x0c4a047e ; undefined
    21d0:	047d0000 	add	z0.h, z0.h, z29.h
    21d4:	00000745 	.inst	0x00000745 ; undefined
    21d8:	04bc047c 	sub	z28.s, z3.s, z28.s
    21dc:	047b0000 	add	z0.h, z0.h, z27.h
    21e0:	00000b58 	.inst	0x00000b58 ; undefined
    21e4:	0c93047a 	st4	{v26.4h-v29.4h}, [x3], x19
    21e8:	04790000 	add	z0.h, z0.h, z25.h
    21ec:	00000847 	.inst	0x00000847 ; undefined
    21f0:	094a0478 	.inst	0x094a0478 ; undefined
    21f4:	04770000 	add	z0.h, z0.h, z23.h
    21f8:	00000505 	.inst	0x00000505 ; undefined
    21fc:	04200476 	sub	z22.b, z3.b, z0.b
    2200:	04750000 	add	z0.h, z0.h, z21.h
    2204:	00000a1f 	.inst	0x00000a1f ; undefined
    2208:	0d070474 	.inst	0x0d070474 ; undefined
    220c:	04730000 	add	z0.h, z0.h, z19.h
    2210:	0000065d 	.inst	0x0000065d ; undefined
    2214:	09c30472 	.inst	0x09c30472 ; undefined
    2218:	04710000 	add	z0.h, z0.h, z17.h
    221c:	00000392 	.inst	0x00000392 ; undefined
    2220:	04080470 	smax	z16.b, p1/m, z16.b, z3.b
    2224:	1e6f0000 	.inst	0x1e6f0000 ; undefined
    2228:	00000856 	.inst	0x00000856 ; undefined
    222c:	ffffffff 	.inst	0xffffffff ; undefined
    2230:	7fffffff 	.inst	0x7fffffff ; undefined
    2234:	06520c00 	.inst	0x06520c00 ; undefined
    2238:	00700000 	.inst	0x00700000 ; undefined
    223c:	080c0000 	stxrb	w12, w0, [x0]
    2240:	0002170e 	.inst	0x0002170e ; undefined
    2244:	0cb50100 	.inst	0x0cb50100 ; undefined
    2248:	01000000 	.inst	0x01000000 ; undefined
    224c:	000004ad 	.inst	0x000004ad ; undefined
    2250:	09f30101 	.inst	0x09f30101 ; undefined
    2254:	01020000 	.inst	0x01020000 ; undefined
    2258:	00000957 	.inst	0x00000957 ; undefined
    225c:	0cc80103 	ld4	{v3.8b-v6.8b}, [x8], x8
    2260:	01040000 	.inst	0x01040000 ; undefined
    2264:	00000a07 	.inst	0x00000a07 ; undefined
    2268:	054c0105 	.inst	0x054c0105 ; undefined
    226c:	01060000 	.inst	0x01060000 ; undefined
    2270:	00000b88 	.inst	0x00000b88 ; undefined
    2274:	22050007 	.inst	0x22050007 ; undefined
    2278:	0c00000d 	st4	{v13.8b-v16.8b}, [x0]
    227c:	01d60313 	.inst	0x01d60313 ; undefined
    2280:	17130000 	b	fffffffffc4c2280 <__sel4_ipc_buffer_obj+0xfffffffffc2bb280>
    2284:	03000002 	.inst	0x03000002 ; undefined
    2288:	00000686 	.inst	0x00000686 ; undefined
    228c:	2359150c 	.inst	0x2359150c ; undefined
    2290:	09000002 	.inst	0x09000002 ; undefined
    2294:	2048a003 	.inst	0x2048a003 ; undefined
    2298:	00000000 	.inst	0x00000000 ; undefined
    229c:	10c70c00 	adr	x0, fffffffffff9041c <__sel4_ipc_buffer_obj+0xffffffffffd8941c>
    22a0:	00700000 	.inst	0x00700000 ; undefined
    22a4:	090d0000 	.inst	0x090d0000 ; undefined
    22a8:	0002610e 	.inst	0x0002610e ; undefined
    22ac:	0f970100 	.inst	0x0f970100 ; undefined
    22b0:	01070000 	.inst	0x01070000 ; undefined
    22b4:	000011eb 	.inst	0x000011eb ; undefined
    22b8:	0f320108 	.inst	0x0f320108 ; undefined
    22bc:	00090000 	.inst	0x00090000 ; undefined
    22c0:	00102b0c 	.inst	0x00102b0c ; undefined
    22c4:	00007000 	.inst	0x00007000 ; undefined
    22c8:	06340e00 	.inst	0x06340e00 ; undefined
    22cc:	00000284 	.inst	0x00000284 ; undefined
    22d0:	000e3101 	.inst	0x000e3101 ; undefined
    22d4:	d4010700 	.inst	0xd4010700 ; undefined
    22d8:	02000010 	.inst	0x02000010 ; undefined
    22dc:	00106601 	.inst	0x00106601 ; undefined
    22e0:	0a007800 	and	w0, w0, w0, lsl #30
    22e4:	00000131 	.inst	0x00000131 ; undefined
    22e8:	00000294 	.inst	0x00000294 ; undefined
    22ec:	0000830b 	.inst	0x0000830b ; undefined
    22f0:	1f000000 	fmadd	s0, s0, s0, s0
    22f4:	000006a7 	.inst	0x000006a7 ; undefined
    22f8:	01380208 	.inst	0x01380208 ; undefined
    22fc:	0002b108 	.inst	0x0002b108 ; undefined
    2300:	05a72000 	mov	z0.b, z0.b[35]
    2304:	39020000 	strb	w0, [x0, #128]
    2308:	02841101 	.inst	0x02841101 ; undefined
    230c:	00000000 	.inst	0x00000000 ; undefined
    2310:	0004f221 	.inst	0x0004f221 ; undefined
    2314:	013b0200 	.inst	0x013b0200 ; undefined
    2318:	00029421 	.inst	0x00029421 ; undefined
    231c:	03412200 	.inst	0x03412200 ; undefined
    2320:	04000000 	add	z0.b, p0/m, z0.b, z0.b
    2324:	21100b0f 	.inst	0x21100b0f ; undefined
    2328:	17000003 	b	fffffffffc002334 <__sel4_ipc_buffer_obj+0xfffffffffbdfb334>
    232c:	00676174 	.inst	0x00676174 ; undefined
    2330:	02b1180c 	.inst	0x02b1180c ; undefined
    2334:	17000000 	b	fffffffffc002334 <__sel4_ipc_buffer_obj+0xfffffffffbdfb334>
    2338:	0067736d 	.inst	0x0067736d ; undefined
    233c:	03210f0d 	.inst	0x03210f0d ; undefined
    2340:	0d080000 	.inst	0x0d080000 ; undefined
    2344:	00000c7a 	.inst	0x00000c7a ; undefined
    2348:	00013d0e 	.inst	0x00013d0e ; undefined
    234c:	0d03c800 	.inst	0x0d03c800 ; undefined
    2350:	000007b9 	.inst	0x000007b9 ; undefined
    2354:	0003310f 	.inst	0x0003310f ; undefined
    2358:	0d03d000 	.inst	0x0d03d000 ; undefined
    235c:	000008e3 	.inst	0x000008e3 ; undefined
    2360:	00014910 	.inst	0x00014910 ; undefined
    2364:	0d03e800 	.inst	0x0d03e800 ; undefined
    2368:	000009e6 	.inst	0x000009e6 ; undefined
    236c:	00014911 	.inst	0x00014911 ; undefined
    2370:	0d03f000 	.inst	0x0d03f000 ; undefined
    2374:	00000cfa 	.inst	0x00000cfa ; undefined
    2378:	00013d12 	.inst	0x00013d12 ; undefined
    237c:	0003f800 	.inst	0x0003f800 ; undefined
    2380:	00013d0a 	.inst	0x00013d0a ; undefined
    2384:	00033100 	.inst	0x00033100 ; undefined
    2388:	00830b00 	.inst	0x00830b00 ; undefined
    238c:	00770000 	.inst	0x00770000 ; undefined
    2390:	00013d0a 	.inst	0x00013d0a ; undefined
    2394:	00034100 	.inst	0x00034100 ; undefined
    2398:	00830b00 	.inst	0x00830b00 ; undefined
    239c:	00020000 	.inst	0x00020000 ; undefined
    23a0:	0003e823 	.inst	0x0003e823 ; undefined
    23a4:	03130f00 	.inst	0x03130f00 ; undefined
    23a8:	000002be 	.inst	0x000002be ; undefined
    23ac:	e0240400 	.inst	0xe0240400 ; undefined
    23b0:	03000004 	.inst	0x03000004 ; undefined
    23b4:	035b210d 	.inst	0x035b210d ; undefined
    23b8:	410e0000 	.inst	0x410e0000 ; undefined
    23bc:	0c000003 	st4	{v3.8b-v6.8b}, [x0]
    23c0:	00001188 	.inst	0x00001188 ; undefined
    23c4:	00000070 	.inst	0x00000070 ; undefined
    23c8:	4f060e10 	.inst	0x4f060e10 ; undefined
    23cc:	01000004 	.inst	0x01000004 ; undefined
    23d0:	00000eab 	.inst	0x00000eab ; undefined
    23d4:	12d50100 	.inst	0x12d50100 ; undefined
    23d8:	01010000 	.inst	0x01010000 ; undefined
    23dc:	00000f21 	.inst	0x00000f21 ; undefined
    23e0:	113d0102 	add	w2, w8, #0xf40
    23e4:	01030000 	.inst	0x01030000 ; undefined
    23e8:	000011da 	.inst	0x000011da ; undefined
    23ec:	0ecd0104 	.inst	0x0ecd0104 ; undefined
    23f0:	01050000 	.inst	0x01050000 ; undefined
    23f4:	0000114f 	.inst	0x0000114f ; undefined
    23f8:	0ef20106 	.inst	0x0ef20106 ; undefined
    23fc:	01070000 	.inst	0x01070000 ; undefined
    2400:	00000e90 	.inst	0x00000e90 ; undefined
    2404:	0f570108 	.inst	0x0f570108 ; undefined
    2408:	01090000 	.inst	0x01090000 ; undefined
    240c:	00000e4f 	.inst	0x00000e4f ; undefined
    2410:	10e9010a 	adr	x10, fffffffffffd4430 <__sel4_ipc_buffer_obj+0xffffffffffdcd430>
    2414:	010b0000 	.inst	0x010b0000 ; undefined
    2418:	00000ffd 	.inst	0x00000ffd ; undefined
    241c:	11d0010c 	.inst	0x11d0010c ; undefined
    2420:	010d0000 	.inst	0x010d0000 ; undefined
    2424:	0000115e 	.inst	0x0000115e ; undefined
    2428:	1210010e 	and	w14, w8, #0x10000
    242c:	010f0000 	.inst	0x010f0000 ; undefined
    2430:	000012a3 	.inst	0x000012a3 ; undefined
    2434:	12650110 	.inst	0x12650110 ; undefined
    2438:	01110000 	.inst	0x01110000 ; undefined
    243c:	00000f4b 	.inst	0x00000f4b ; undefined
    2440:	10b00112 	adr	x18, fffffffffff62460 <__sel4_ipc_buffer_obj+0xffffffffffd5b460>
    2444:	01130000 	.inst	0x01130000 ; undefined
    2448:	000012b1 	.inst	0x000012b1 ; undefined
    244c:	0f030114 	.inst	0x0f030114 ; undefined
    2450:	01150000 	.inst	0x01150000 ; undefined
    2454:	00000e7d 	.inst	0x00000e7d ; undefined
    2458:	11720116 	add	w22, w8, #0xc80, lsl #12
    245c:	01170000 	.inst	0x01170000 ; undefined
    2460:	00000f7c 	.inst	0x00000f7c ; undefined
    2464:	0fc00118 	.inst	0x0fc00118 ; undefined
    2468:	01190000 	.inst	0x01190000 ; undefined
    246c:	0000125b 	.inst	0x0000125b ; undefined
    2470:	0faf011a 	.inst	0x0faf011a ; undefined
    2474:	011b0000 	.inst	0x011b0000 ; undefined
    2478:	0000112a 	.inst	0x0000112a ; undefined
    247c:	10a3011c 	adr	x28, fffffffffff4849c <__sel4_ipc_buffer_obj+0xffffffffffd4149c>
    2480:	011d0000 	.inst	0x011d0000 ; undefined
    2484:	00001010 	.inst	0x00001010 ; undefined
    2488:	1226011e 	and	w30, w8, #0x4000000
    248c:	011f0000 	.inst	0x011f0000 ; undefined
    2490:	00001237 	.inst	0x00001237 ; undefined
    2494:	11990120 	.inst	0x11990120 ; undefined
    2498:	01210000 	.inst	0x01210000 ; undefined
    249c:	00001051 	.inst	0x00001051 ; undefined
    24a0:	0e1d0122 	tbl	v2.8b, {v9.16b}, v29.8b
    24a4:	01230000 	.inst	0x01230000 ; undefined
    24a8:	00000dfa 	.inst	0x00000dfa ; undefined
    24ac:	7e0c0024 	.inst	0x7e0c0024 ; undefined
    24b0:	70000011 	adr	x17, 24b3 <_start-0x1fdb4d>
    24b4:	11000000 	add	w0, w0, #0x0
    24b8:	0484060e 	.inst	0x0484060e ; undefined
    24bc:	0d010000 	.inst	0x0d010000 ; undefined
    24c0:	2400000f 	cmphs	p15.b, p0/z, z0.b, z0.b
    24c4:	0012e301 	.inst	0x0012e301 ; undefined
    24c8:	5f012500 	.inst	0x5f012500 ; undefined
    24cc:	2600000e 	.inst	0x2600000e ; undefined
    24d0:	000fe201 	.inst	0x000fe201 ; undefined
    24d4:	44012700 	.inst	0x44012700 ; undefined
    24d8:	2800000e 	stnp	w14, w0, [x0]
    24dc:	0012bb01 	.inst	0x0012bb01 ; undefined
    24e0:	05002900 	orr	z0.s, z0.s, #0xf800000f
    24e4:	00000e0c 	.inst	0x00000e0c ; undefined
    24e8:	70160e06 	adr	x6, 2e6ab <_start-0x1d1955>
    24ec:	05000000 	orr	z0.s, z0.s, #0x1
    24f0:	00000d32 	.inst	0x00000d32 ; undefined
    24f4:	b11c1006 	adds	x6, x0, #0x704
    24f8:	08000002 	stxrb	w0, w2, [x0]
    24fc:	01840801 	.inst	0x01840801 ; undefined
    2500:	9c130000 	ldr	q0, 28500 <_start-0x1d7b00>
    2504:	08000004 	stxrb	w0, w4, [x0]
    2508:	01050508 	.inst	0x01050508 ; undefined
    250c:	10080000 	adr	x0, 1250c <_start-0x1edaf4>
    2510:	00016f04 	.inst	0x00016f04 ; undefined
    2514:	129a0600 	mov	w0, #0xffff2fcf            	// #-53297
    2518:	1e250000 	fcvtau	w0, s0
    251c:	000004cb 	.inst	0x000004cb ; undefined
    2520:	60100309 	.inst	0x60100309 ; undefined
    2524:	00000020 	.inst	0x00000020 ; undefined
    2528:	e80e0000 	.inst	0xe80e0000 ; undefined
    252c:	06000000 	.inst	0x06000000 ; undefined
    2530:	00001078 	.inst	0x00001078 ; undefined
    2534:	04cb1e26 	umin	z6.d, p7/m, z6.d, z17.d
    2538:	03090000 	.inst	0x03090000 ; undefined
    253c:	00206018 	.inst	0x00206018 ; NYI
    2540:	00000000 	.inst	0x00000000 ; undefined
    2544:	000ea206 	.inst	0x000ea206 ; undefined
    2548:	cb1e2700 	sub	x0, x24, x30, lsl #9
    254c:	09000004 	.inst	0x09000004 ; undefined
    2550:	20602003 	.inst	0x20602003 ; undefined
    2554:	00000000 	.inst	0x00000000 ; undefined
    2558:	0eea0600 	.inst	0x0eea0600 ; undefined
    255c:	13290000 	.inst	0x13290000 ; undefined
    2560:	0000050f 	.inst	0x0000050f ; undefined
    2564:	60280309 	.inst	0x60280309 ; undefined
    2568:	00000020 	.inst	0x00000020 ; undefined
    256c:	0d0e0000 	.inst	0x0d0e0000 ; undefined
    2570:	06000001 	.inst	0x06000001 ; undefined
    2574:	000011c8 	.inst	0x000011c8 ; undefined
    2578:	050f132a 	.inst	0x050f132a ; undefined
    257c:	03090000 	.inst	0x03090000 ; undefined
    2580:	00206030 	.inst	0x00206030 ; NYI
    2584:	00000000 	.inst	0x00000000 ; undefined
    2588:	00100806 	.inst	0x00100806 ; undefined
    258c:	0f132b00 	.inst	0x0f132b00 ; undefined
    2590:	09000005 	.inst	0x09000005 ; undefined
    2594:	20603803 	.inst	0x20603803 ; undefined
    2598:	00000000 	.inst	0x00000000 ; undefined
    259c:	04cb0a00 	umin	z0.d, p2/m, z0.d, z16.d
    25a0:	054e0000 	.inst	0x054e0000 ; undefined
    25a4:	830b0000 	.inst	0x830b0000 ; undefined
    25a8:	02000000 	.inst	0x02000000 ; undefined
    25ac:	12710600 	.inst	0x12710600 ; undefined
    25b0:	1e2d0000 	.inst	0x1e2d0000 ; undefined
    25b4:	0000053e 	.inst	0x0000053e ; undefined
    25b8:	60400309 	.inst	0x60400309 ; undefined
    25bc:	00000020 	.inst	0x00000020 ; undefined
    25c0:	0f0a0000 	.inst	0x0f0a0000 ; undefined
    25c4:	73000005 	.inst	0x73000005 ; undefined
    25c8:	0b000005 	add	w5, w0, w0
    25cc:	00000083 	.inst	0x00000083 ; undefined
    25d0:	86060002 	.inst	0x86060002 ; undefined
    25d4:	30000012 	adr	x18, 25d5 <_start-0x1fda2b>
    25d8:	00056313 	.inst	0x00056313 ; undefined
    25dc:	58030900 	ldr	x0, 86fc <_start-0x1f7904>
    25e0:	00002060 	.inst	0x00002060 ; undefined
    25e4:	06000000 	.inst	0x06000000 ; undefined
    25e8:	0000111f 	.inst	0x0000111f ; undefined
    25ec:	003c0531 	.inst	0x003c0531 ; NYI
    25f0:	03090000 	.inst	0x03090000 ; undefined
    25f4:	00206000 	.inst	0x00206000 ; NYI
    25f8:	00000000 	.inst	0x00000000 ; undefined
    25fc:	00111506 	.inst	0x00111506 ; undefined
    2600:	510a3900 	sub	w0, w8, #0x28e
    2604:	09000000 	.inst	0x09000000 ; undefined
    2608:	20607003 	.inst	0x20607003 ; undefined
    260c:	00000000 	.inst	0x00000000 ; undefined
    2610:	12010600 	and	w0, w16, #0x80000001
    2614:	0a3b0000 	bic	w0, w0, w27
    2618:	00000051 	.inst	0x00000051 ; undefined
    261c:	60040309 	.inst	0x60040309 ; undefined
    2620:	00000020 	.inst	0x00000020 ; undefined
    2624:	0e140000 	tbl	v0.8b, {v0.16b}, v20.8b
    2628:	1200000b 	and	w11, w0, #0x1
    262c:	0005e716 	.inst	0x0005e716 ; undefined
    2630:	05e70900 	.inst	0x05e70900 ; undefined
    2634:	e7090000 	.inst	0xe7090000 ; undefined
    2638:	09000005 	.inst	0x09000005 ; undefined
    263c:	0000003c 	.inst	0x0000003c ; undefined
    2640:	0005e709 	.inst	0x0005e709 ; undefined
    2644:	a30e0000 	.inst	0xa30e0000 ; undefined
    2648:	14000004 	b	2658 <_start-0x1fd9a8>
    264c:	00000ba4 	.inst	0x00000ba4 ; undefined
    2650:	05fd3506 	.inst	0x05fd3506 ; undefined
    2654:	e7090000 	.inst	0xe7090000 ; undefined
    2658:	00000005 	.inst	0x00000005 ; undefined
    265c:	000dba14 	.inst	0x000dba14 ; undefined
    2660:	13180900 	sbfiz	w0, w8, #8, #3
    2664:	09000006 	.inst	0x09000006 ; undefined
    2668:	000004cb 	.inst	0x000004cb ; undefined
    266c:	0000bc09 	.inst	0x0000bc09 ; undefined
    2670:	87180000 	.inst	0x87180000 ; undefined
    2674:	5f00000e 	.inst	0x5f00000e ; undefined
    2678:	00203d50 	.inst	0x00203d50 ; NYI
    267c:	00000000 	.inst	0x00000000 ; undefined
    2680:	00000190 	.inst	0x00000190 ; undefined
    2684:	00000000 	.inst	0x00000000 ; undefined
    2688:	065f9c01 	.inst	0x065f9c01 ; undefined
    268c:	63070000 	.inst	0x63070000 ; undefined
    2690:	5f010068 	.inst	0x5f010068 ; undefined
    2694:	00048420 	.inst	0x00048420 ; undefined
    2698:	6c910200 	stp	d0, d0, [x16], #272
    269c:	203e0819 	.inst	0x203e0819 ; undefined
    26a0:	00000000 	.inst	0x00000000 ; undefined
    26a4:	0000b800 	.inst	0x0000b800 ; undefined
    26a8:	00000000 	.inst	0x00000000 ; undefined
    26ac:	0fd30300 	.inst	0x0fd30300 ; undefined
    26b0:	70010000 	adr	x0, 46b3 <_start-0x1fb94d>
    26b4:	00003c11 	.inst	0x00003c11 ; undefined
    26b8:	7c910200 	.inst	0x7c910200 ; undefined
    26bc:	1a180000 	adc	w0, w0, w24
    26c0:	3d000011 	str	b17, [x0]
    26c4:	00203bd4 	.inst	0x00203bd4 ; NYI
    26c8:	00000000 	.inst	0x00000000 ; undefined
    26cc:	0000017c 	.inst	0x0000017c ; undefined
    26d0:	00000000 	.inst	0x00000000 ; undefined
    26d4:	069b9c01 	.inst	0x069b9c01 ; undefined
    26d8:	24190000 	cmphs	p0.b, p0/z, z0.b, z25.b
    26dc:	0000203c 	.inst	0x0000203c ; undefined
    26e0:	38000000 	sturb	w0, [x0]
    26e4:	00000000 	.inst	0x00000000 ; undefined
    26e8:	25000000 	cmpge	p0.b, p0/z, z0.b, #0
    26ec:	44010069 	.inst	0x44010069 ; undefined
    26f0:	00003c0e 	.inst	0x00003c0e ; undefined
    26f4:	7c910200 	.inst	0x7c910200 ; undefined
    26f8:	fe260000 	.inst	0xfe260000 ; undefined
    26fc:	01000010 	.inst	0x01000010 ; undefined
    2700:	003c0533 	.inst	0x003c0533 ; NYI
    2704:	3ba80000 	.inst	0x3ba80000 ; undefined
    2708:	00000020 	.inst	0x00000020 ; undefined
    270c:	002c0000 	.inst	0x002c0000 ; NYI
    2710:	00000000 	.inst	0x00000000 ; undefined
    2714:	9c010000 	ldr	q0, 4714 <_start-0x1fb8ec>
    2718:	00103a0f 	.inst	0x00103a0f ; undefined
    271c:	14120700 	b	48431c <__sel4_ipc_buffer_obj+0x27d31c>
    2720:	00203b68 	.inst	0x00203b68 ; NYI
    2724:	00000000 	.inst	0x00000000 ; undefined
    2728:	00000040 	.inst	0x00000040 ; undefined
    272c:	00000000 	.inst	0x00000000 ; undefined
    2730:	06f69c01 	.inst	0x06f69c01 ; undefined
    2734:	15020000 	b	4082734 <__sel4_ipc_buffer_obj+0x3e7b734>
    2738:	0700000e 	.inst	0x0700000e ; undefined
    273c:	04843c12 	.inst	0x04843c12 ; undefined
    2740:	91020000 	add	x0, x0, #0x80
    2744:	1049027c 	adr	x28, 94790 <_start-0x16b870>
    2748:	12070000 	and	w0, w0, #0x2000000
    274c:	0000774e 	.inst	0x0000774e ; undefined
    2750:	70910200 	adr	x0, fffffffffff24793 <__sel4_ipc_buffer_obj+0xffffffffffd1d793>
    2754:	09b31000 	.inst	0x09b31000 ; undefined
    2758:	84060000 	ld1sb	{z0.s}, p0/z, [x0, z6.s, uxtw]
    275c:	00013d12 	.inst	0x00013d12 ; undefined
    2760:	203b4c00 	.inst	0x203b4c00 ; undefined
    2764:	00000000 	.inst	0x00000000 ; undefined
    2768:	00001c00 	.inst	0x00001c00 ; undefined
    276c:	00000000 	.inst	0x00000000 ; undefined
    2770:	279c0100 	.inst	0x279c0100 ; undefined
    2774:	07000007 	.inst	0x07000007 ; undefined
    2778:	0600726d 	.inst	0x0600726d ; undefined
    277c:	01192d84 	.inst	0x01192d84 ; undefined
    2780:	91020000 	add	x0, x0, #0x80
    2784:	120f007f 	and	wsp, w3, #0x20000
    2788:	06000007 	.inst	0x06000007 ; undefined
    278c:	3b240d7f 	.inst	0x3b240d7f ; undefined
    2790:	00000020 	.inst	0x00000020 ; undefined
    2794:	00280000 	.inst	0x00280000 ; NYI
    2798:	00000000 	.inst	0x00000000 ; undefined
    279c:	9c010000 	ldr	q0, 479c <_start-0x1fb864>
    27a0:	00000763 	.inst	0x00000763 ; undefined
    27a4:	00726d07 	.inst	0x00726d07 ; undefined
    27a8:	19287f06 	.inst	0x19287f06 ; undefined
    27ac:	02000001 	.inst	0x02000001 ; undefined
    27b0:	c5027f91 	ldff1w	{z17.d}, p7/z, [x28, z2.d, uxtw]
    27b4:	06000000 	.inst	0x06000000 ; undefined
    27b8:	013d367f 	.inst	0x013d367f ; undefined
    27bc:	91020000 	add	x0, x0, #0x80
    27c0:	35100070 	cbnz	w16, 227cc <_start-0x1dd834>
    27c4:	06000006 	.inst	0x06000006 ; undefined
    27c8:	04902070 	movprfx	z16.s, p0/z, z3.s
    27cc:	3af40000 	.inst	0x3af40000 ; undefined
    27d0:	00000020 	.inst	0x00000020 ; undefined
    27d4:	00300000 	.inst	0x00300000 ; NYI
    27d8:	00000000 	.inst	0x00000000 ; undefined
    27dc:	9c010000 	ldr	q0, 47dc <_start-0x1fb824>
    27e0:	000007a4 	.inst	0x000007a4 ; undefined
    27e4:	00119302 	.inst	0x00119302 ; undefined
    27e8:	3f700600 	.inst	0x3f700600 ; undefined
    27ec:	0000013d 	.inst	0x0000013d ; undefined
    27f0:	02789102 	.inst	0x02789102 ; undefined
    27f4:	0000022d 	.inst	0x0000022d ; undefined
    27f8:	25527006 	.inst	0x25527006 ; undefined
    27fc:	02000001 	.inst	0x02000001 ; undefined
    2800:	10007691 	adr	x17, 36d0 <_start-0x1fc930>
    2804:	00001093 	.inst	0x00001093 ; undefined
    2808:	90206b06 	adrp	x6, 40d62000 <__sel4_ipc_buffer_obj+0x40b5b000>
    280c:	c8000004 	stxr	w0, x4, [x0]
    2810:	0000203a 	.inst	0x0000203a ; undefined
    2814:	2c000000 	stnp	s0, s0, [x0]
    2818:	00000000 	.inst	0x00000000 ; undefined
    281c:	01000000 	.inst	0x01000000 ; undefined
    2820:	0007e49c 	.inst	0x0007e49c ; undefined
    2824:	68630700 	.inst	0x68630700 ; undefined
    2828:	416b0600 	.inst	0x416b0600 ; undefined
    282c:	00000484 	.inst	0x00000484 ; undefined
    2830:	027c9102 	.inst	0x027c9102 ; undefined
    2834:	00000d3b 	.inst	0x00000d3b ; undefined
    2838:	90566b06 	adrp	x6, acd62000 <__sel4_ipc_buffer_obj+0xacb5b000>
    283c:	02000004 	.inst	0x02000004 ; undefined
    2840:	0f007091 	.inst	0x0f007091 ; undefined
    2844:	00000eda 	.inst	0x00000eda ; undefined
    2848:	a0144406 	.inst	0xa0144406 ; undefined
    284c:	0000203a 	.inst	0x0000203a ; undefined
    2850:	28000000 	stnp	w0, w0, [x0]
    2854:	00000000 	.inst	0x00000000 ; undefined
    2858:	01000000 	.inst	0x01000000 ; undefined
    285c:	0008119c 	.inst	0x0008119c ; undefined
    2860:	68630700 	.inst	0x68630700 ; undefined
    2864:	35440600 	cbnz	w0, 8a924 <_start-0x1756dc>
    2868:	00000484 	.inst	0x00000484 ; undefined
    286c:	007c9102 	.inst	0x007c9102 ; undefined
    2870:	0011b210 	.inst	0x0011b210 ; undefined
    2874:	28a80500 	stp	w0, w1, [x8], #-192
    2878:	000002b1 	.inst	0x000002b1 ; undefined
    287c:	002039dc 	.inst	0x002039dc ; NYI
    2880:	00000000 	.inst	0x00000000 ; undefined
    2884:	000000c4 	.inst	0x000000c4 ; undefined
    2888:	00000000 	.inst	0x00000000 ; undefined
    288c:	089d9c01 	stlrb	w1, [x0]
    2890:	54020000 	b.eq	6890 <_start-0x1f9770>  // b.none
    2894:	0500000d 	orr	z13.s, z13.s, #0x1
    2898:	01493ca8 	.inst	0x01493ca8 ; undefined
    289c:	91020000 	add	x0, x0, #0x80
    28a0:	037c0248 	.inst	0x037c0248 ; undefined
    28a4:	a8050000 	stnp	x0, x0, [x0, #80]
    28a8:	0002b155 	.inst	0x0002b155 ; undefined
    28ac:	40910200 	.inst	0x40910200 ; undefined
    28b0:	00048403 	.inst	0x00048403 ; undefined
    28b4:	18aa0500 	ldr	w0, fffffffffff56954 <__sel4_ipc_buffer_obj+0xffffffffffd4f954>
    28b8:	000002b1 	.inst	0x000002b1 ; undefined
    28bc:	03789102 	.inst	0x03789102 ; undefined
    28c0:	00000bdd 	.inst	0x00000bdd ; undefined
    28c4:	3d0fab05 	str	b5, [x24, #1002]
    28c8:	02000001 	.inst	0x02000001 ; undefined
    28cc:	67037091 	.inst	0x67037091 ; undefined
    28d0:	0500000b 	orr	z11.s, z11.s, #0x1
    28d4:	013d0fac 	.inst	0x013d0fac ; undefined
    28d8:	91020000 	add	x0, x0, #0x80
    28dc:	0bff0368 	.inst	0x0bff0368 ; undefined
    28e0:	ad050000 	stp	q0, q0, [x0, #160]
    28e4:	00013d0f 	.inst	0x00013d0f ; undefined
    28e8:	60910200 	.inst	0x60910200 ; undefined
    28ec:	000c0403 	.inst	0x000c0403 ; undefined
    28f0:	0fae0500 	.inst	0x0fae0500 ; undefined
    28f4:	0000013d 	.inst	0x0000013d ; undefined
    28f8:	00589102 	.inst	0x00589102 ; undefined
    28fc:	0011bc0f 	.inst	0x0011bc0f ; undefined
    2900:	1a460500 	.inst	0x1a460500 ; undefined
    2904:	002039a0 	.inst	0x002039a0 ; NYI
    2908:	00000000 	.inst	0x00000000 ; undefined
    290c:	0000003c 	.inst	0x0000003c ; undefined
    2910:	00000000 	.inst	0x00000000 ; undefined
    2914:	08cb9c01 	.inst	0x08cb9c01 ; undefined
    2918:	54020000 	b.eq	6918 <_start-0x1f96e8>  // b.none
    291c:	0500000d 	orr	z13.s, z13.s, #0x1
    2920:	01493046 	.inst	0x01493046 ; undefined
    2924:	91020000 	add	x0, x0, #0x80
    2928:	5d1a0078 	.inst	0x5d1a0078 ; undefined
    292c:	9200000c 	and	x12, x0, #0x100000001
    2930:	002038f4 	.inst	0x002038f4 ; NYI
    2934:	00000000 	.inst	0x00000000 ; undefined
    2938:	000000ac 	.inst	0x000000ac ; undefined
    293c:	00000000 	.inst	0x00000000 ; undefined
    2940:	09ee9c01 	.inst	0x09ee9c01 ; undefined
    2944:	73070000 	.inst	0x73070000 ; undefined
    2948:	04007379 	mls	z25.b, p4/m, z27.b, z0.b
    294c:	013d3092 	.inst	0x013d3092 ; undefined
    2950:	91020000 	add	x0, x0, #0x80
    2954:	0d540278 	.inst	0x0d540278 ; undefined
    2958:	92040000 	and	x0, x0, #0x1000000010000000
    295c:	00013d3f 	.inst	0x00013d3f ; undefined
    2960:	70910200 	adr	x0, fffffffffff249a3 <__sel4_ipc_buffer_obj+0xffffffffffd1d9a3>
    2964:	000ca002 	.inst	0x000ca002 ; undefined
    2968:	50920400 	adr	x0, fffffffffff269ea <__sel4_ipc_buffer_obj+0xffffffffffd1f9ea>
    296c:	000009ee 	.inst	0x000009ee ; undefined
    2970:	02689102 	.inst	0x02689102 ; undefined
    2974:	00000b6c 	.inst	0x00000b6c ; undefined
    2978:	3d659204 	ldr	b4, [x16, #2404]
    297c:	02000001 	.inst	0x02000001 ; undefined
    2980:	80026091 	.inst	0x80026091 ; undefined
    2984:	04000004 	add	z4.b, p0/m, z4.b, z0.b
    2988:	09ee3193 	.inst	0x09ee3193 ; undefined
    298c:	91020000 	add	x0, x0, #0x80
    2990:	0b3b0258 	add	w24, w18, w27, uxtb
    2994:	93040000 	.inst	0x93040000 ; undefined
    2998:	0009ee46 	.inst	0x0009ee46 ; undefined
    299c:	50910200 	adr	x0, fffffffffff249de <__sel4_ipc_buffer_obj+0xffffffffffd1d9de>
    29a0:	0003c702 	.inst	0x0003c702 ; undefined
    29a4:	5d930400 	.inst	0x5d930400 ; undefined
    29a8:	000009ee 	.inst	0x000009ee ; undefined
    29ac:	02489102 	.inst	0x02489102 ; undefined
    29b0:	000003d2 	.inst	0x000003d2 ; undefined
    29b4:	ee749304 	.inst	0xee749304 ; undefined
    29b8:	02000009 	.inst	0x02000009 ; undefined
    29bc:	dd024091 	.inst	0xdd024091 ; undefined
    29c0:	04000003 	add	z3.b, p0/m, z3.b, z0.b
    29c4:	09ee8b93 	.inst	0x09ee8b93 ; undefined
    29c8:	91020000 	add	x0, x0, #0x80
    29cc:	13cb0200 	.inst	0x13cb0200 ; undefined
    29d0:	94040000 	bl	1029d0 <_start-0xfd630>
    29d4:	00013d3f 	.inst	0x00013d3f ; undefined
    29d8:	08910200 	stllrb	w0, [x16]
    29dc:	00064a03 	.inst	0x00064a03 ; undefined
    29e0:	18960400 	ldr	w0, fffffffffff2ea60 <__sel4_ipc_buffer_obj+0xffffffffffd27a60>
    29e4:	0000013d 	.inst	0x0000013d ; undefined
    29e8:	84035001 	ld1b	{z1.s}, p4/z, [x0, z3.s, uxtw]
    29ec:	04000004 	add	z4.b, p0/m, z4.b, z0.b
    29f0:	013d1897 	.inst	0x013d1897 ; undefined
    29f4:	51010000 	sub	w0, w0, #0x40
    29f8:	000bdd03 	.inst	0x000bdd03 ; undefined
    29fc:	189a0400 	ldr	w0, fffffffffff36a7c <__sel4_ipc_buffer_obj+0xffffffffffd2fa7c>
    2a00:	0000013d 	.inst	0x0000013d ; undefined
    2a04:	67035201 	.inst	0x67035201 ; undefined
    2a08:	0400000b 	add	z11.b, p0/m, z11.b, z0.b
    2a0c:	013d189b 	.inst	0x013d189b ; undefined
    2a10:	53010000 	lsl	w0, w0, #31
    2a14:	000bff03 	.inst	0x000bff03 ; undefined
    2a18:	189c0400 	ldr	w0, fffffffffff3aa98 <__sel4_ipc_buffer_obj+0xffffffffffd33a98>
    2a1c:	0000013d 	.inst	0x0000013d ; undefined
    2a20:	04035401 	mla	z1.b, p5/m, z0.b, z3.b
    2a24:	0400000c 	add	z12.b, p0/m, z12.b, z0.b
    2a28:	013d189d 	.inst	0x013d189d ; undefined
    2a2c:	55010000 	.inst	0x55010000 ; undefined
    2a30:	000c0903 	.inst	0x000c0903 ; undefined
    2a34:	059e0400 	mov	z0.s, p14/z, #32
    2a38:	0000013d 	.inst	0x0000013d ; undefined
    2a3c:	7e035601 	.inst	0x7e035601 ; undefined
    2a40:	0400000b 	add	z11.b, p0/m, z11.b, z0.b
    2a44:	013d18a1 	.inst	0x013d18a1 ; undefined
    2a48:	57010000 	.inst	0x57010000 ; undefined
    2a4c:	013d0e00 	.inst	0x013d0e00 ; undefined
    2a50:	811a0000 	.inst	0x811a0000 ; undefined
    2a54:	66000010 	.inst	0x66000010 ; undefined
    2a58:	002038c8 	.inst	0x002038c8 ; NYI
    2a5c:	00000000 	.inst	0x00000000 ; undefined
    2a60:	0000002c 	.inst	0x0000002c ; undefined
    2a64:	00000000 	.inst	0x00000000 ; undefined
    2a68:	0a679c01 	.inst	0x0a679c01 ; undefined
    2a6c:	73070000 	.inst	0x73070000 ; undefined
    2a70:	04007379 	mls	z25.b, p4/m, z27.b, z0.b
    2a74:	013d3066 	.inst	0x013d3066 ; undefined
    2a78:	91020000 	add	x0, x0, #0x80
    2a7c:	72730778 	.inst	0x72730778 ; undefined
    2a80:	66040063 	.inst	0x66040063 ; undefined
    2a84:	00013d3f 	.inst	0x00013d3f ; undefined
    2a88:	70910200 	adr	x0, fffffffffff24acb <__sel4_ipc_buffer_obj+0xffffffffffd1dacb>
    2a8c:	000b6c02 	.inst	0x000b6c02 ; undefined
    2a90:	4e660400 	shadd	v0.8h, v0.8h, v6.8h
    2a94:	0000013d 	.inst	0x0000013d ; undefined
    2a98:	03689102 	.inst	0x03689102 ; undefined
    2a9c:	0000064a 	.inst	0x0000064a ; undefined
    2aa0:	3d186804 	str	b4, [x0, #1562]
    2aa4:	01000001 	.inst	0x01000001 ; undefined
    2aa8:	04840350 	.inst	0x04840350 ; undefined
    2aac:	69040000 	.inst	0x69040000 ; undefined
    2ab0:	00013d18 	.inst	0x00013d18 ; undefined
    2ab4:	03510100 	.inst	0x03510100 ; undefined
    2ab8:	00000b7e 	.inst	0x00000b7e ; undefined
    2abc:	3d186c04 	str	b4, [x0, #1563]
    2ac0:	01000001 	.inst	0x01000001 ; undefined
    2ac4:	520f0057 	eor	w23, w2, #0x20000
    2ac8:	03000004 	.inst	0x03000004 ; undefined
    2acc:	38901a33 	ldtrsb	x19, [x17, #-255]
    2ad0:	00000020 	.inst	0x00000020 ; undefined
    2ad4:	00380000 	.inst	0x00380000 ; NYI
    2ad8:	00000000 	.inst	0x00000000 ; undefined
    2adc:	9c010000 	ldr	q0, 4adc <_start-0x1fb524>
    2ae0:	00000aa1 	.inst	0x00000aa1 ; undefined
    2ae4:	03006907 	.inst	0x03006907 ; undefined
    2ae8:	003c2933 	.inst	0x003c2933 ; NYI
    2aec:	91020000 	add	x0, x0, #0x80
    2af0:	726d077c 	.inst	0x726d077c ; undefined
    2af4:	36330300 	tbz	w0, #6, 8b54 <_start-0x1f74ac>
    2af8:	0000013d 	.inst	0x0000013d ; undefined
    2afc:	00709102 	.inst	0x00709102 ; undefined
    2b00:	00060010 	.inst	0x00060010 ; undefined
    2b04:	1f2e0300 	fnmadd	s0, s24, s14, s0
    2b08:	0000013d 	.inst	0x0000013d ; undefined
    2b0c:	00203864 	.inst	0x00203864 ; NYI
    2b10:	00000000 	.inst	0x00000000 ; undefined
    2b14:	0000002c 	.inst	0x0000002c ; undefined
    2b18:	00000000 	.inst	0x00000000 ; undefined
    2b1c:	0ad19c01 	.inst	0x0ad19c01 ; undefined
    2b20:	69070000 	.inst	0x69070000 ; undefined
    2b24:	2e2e0300 	uaddl	v0.8h, v24.8b, v14.8b
    2b28:	0000003c 	.inst	0x0000003c ; undefined
    2b2c:	007c9102 	.inst	0x007c9102 ; undefined
    2b30:	00077727 	.inst	0x00077727 ; undefined
    2b34:	25290300 	.inst	0x25290300 ; undefined
    2b38:	0000035b 	.inst	0x0000035b ; undefined
    2b3c:	00203854 	.inst	0x00203854 ; NYI
    2b40:	00000000 	.inst	0x00000000 ; undefined
    2b44:	00000010 	.inst	0x00000010 ; undefined
    2b48:	00000000 	.inst	0x00000000 ; undefined
    2b4c:	35289c01 	cbnz	w1, 53ecc <_start-0x1ac134>
    2b50:	0200000c 	.inst	0x0200000c ; undefined
    2b54:	b101013e 	adds	x30, x9, #0x40
    2b58:	44000002 	.inst	0x44000002 ; undefined
    2b5c:	00002037 	.inst	0x00002037 ; undefined
    2b60:	10000000 	adr	x0, 2b60 <_start-0x1fd4a0>
    2b64:	00000001 	.inst	0x00000001 ; undefined
    2b68:	01000000 	.inst	0x01000000 ; undefined
    2b6c:	000b6a9c 	.inst	0x000b6a9c ; undefined
    2b70:	11931100 	.inst	0x11931100 ; undefined
    2b74:	31220000 	adds	w0, w0, #0x880
    2b78:	02000001 	.inst	0x02000001 ; undefined
    2b7c:	00116891 	.inst	0x00116891 ; undefined
    2b80:	3500000b 	cbnz	w11, 2b80 <_start-0x1fd480>
    2b84:	00000131 	.inst	0x00000131 ; undefined
    2b88:	11609102 	add	w2, w8, #0x824, lsl #12
    2b8c:	00000372 	.inst	0x00000372 ; undefined
    2b90:	00013150 	.inst	0x00013150 ; undefined
    2b94:	58910200 	ldr	x0, fffffffffff24bd4 <__sel4_ipc_buffer_obj+0xffffffffffd1dbd4>
    2b98:	00094311 	.inst	0x00094311 ; undefined
    2b9c:	01316700 	.inst	0x01316700 ; undefined
    2ba0:	91020000 	add	x0, x0, #0x80
    2ba4:	06a72950 	.inst	0x06a72950 ; undefined
    2ba8:	3f020000 	.inst	0x3f020000 ; undefined
    2bac:	02b11801 	.inst	0x02b11801 ; undefined
    2bb0:	91020000 	add	x0, x0, #0x80
    2bb4:	0c8a2a78 	st1	{v24.2s-v27.2s}, [x19], x10
    2bb8:	0b7a0000 	.inst	0x0b7a0000 ; undefined
    2bbc:	03090000 	.inst	0x03090000 ; undefined
    2bc0:	00204b48 	.inst	0x00204b48 ; NYI
    2bc4:	00000000 	.inst	0x00000000 ; undefined
    2bc8:	04a30a00 	.inst	0x04a30a00 ; undefined
    2bcc:	0b7a0000 	.inst	0x0b7a0000 ; undefined
    2bd0:	830b0000 	.inst	0x830b0000 ; undefined
    2bd4:	14000000 	b	2bd4 <_start-0x1fd42c>
    2bd8:	0b6a1300 	.inst	0x0b6a1300 ; undefined
    2bdc:	6b000000 	subs	w0, w0, w0
    2be0:	05000016 	orr	z22.s, z22.s, #0x1
    2be4:	10080100 	adr	x0, 12c04 <_start-0x1ed3fc>
    2be8:	30000009 	adr	x9, 2be9 <_start-0x1fd417>
    2bec:	00001429 	.inst	0x00001429 ; undefined
    2bf0:	0000311d 	.inst	0x0000311d ; undefined
    2bf4:	00000000 	.inst	0x00000000 ; undefined
    2bf8:	0000c900 	.inst	0x0000c900 ; undefined
	...
    2c04:	00184d00 	.inst	0x00184d00 ; undefined
    2c08:	05080900 	.inst	0x05080900 ; undefined
    2c0c:	0000010a 	.inst	0x0000010a ; undefined
    2c10:	00009808 	.inst	0x00009808 ; undefined
    2c14:	17d60600 	b	ffffffffff584414 <__sel4_ipc_buffer_obj+0xffffffffff37d414>
    2c18:	0000003d 	.inst	0x0000003d ; undefined
    2c1c:	ab070809 	adds	x9, x0, x7, lsl #2
    2c20:	09000001 	.inst	0x09000001 ; undefined
    2c24:	01b00704 	.inst	0x01b00704 ; undefined
    2c28:	08090000 	stxrb	w9, w0, [x0]
    2c2c:	00010505 	.inst	0x00010505 ; undefined
    2c30:	04100900 	mul	z0.b, p2/m, z0.b, z8.b
    2c34:	0000016f 	.inst	0x0000016f ; undefined
    2c38:	7d060109 	str	h9, [x8, #768]
    2c3c:	09000001 	.inst	0x09000001 ; undefined
    2c40:	008e0502 	.inst	0x008e0502 ; undefined
    2c44:	04310000 	add	z0.b, z0.b, z17.b
    2c48:	746e6905 	.inst	0x746e6905 ; undefined
    2c4c:	08010900 	stxrb	w1, w0, [x8]
    2c50:	0000017b 	.inst	0x0000017b ; undefined
    2c54:	d5070209 	msr	s0_7_c0_c2_0, x9
    2c58:	08000001 	stxrb	w0, w1, [x0]
    2c5c:	00000085 	.inst	0x00000085 ; undefined
    2c60:	3d193707 	str	b7, [x24, #1613]
    2c64:	08000000 	stxrb	w0, w0, [x0]
    2c68:	0000148e 	.inst	0x0000148e ; undefined
    2c6c:	59252508 	.inst	0x59252508 ; undefined
    2c70:	08000000 	stxrb	w0, w0, [x0]
    2c74:	00000789 	.inst	0x00000789 ; undefined
    2c78:	3d255408 	str	b8, [x0, #2389]
    2c7c:	08000000 	stxrb	w0, w0, [x0]
    2c80:	00001498 	.inst	0x00001498 ; undefined
    2c84:	88156608 	stxr	w21, w8, [x16]
    2c88:	08000000 	stxrb	w0, w0, [x0]
    2c8c:	000004c9 	.inst	0x000004c9 ; undefined
    2c90:	94157408 	bl	55fcb0 <__sel4_ipc_buffer_obj+0x358cb0>
    2c94:	08000000 	stxrb	w0, w0, [x0]
    2c98:	0000080d 	.inst	0x0000080d ; undefined
    2c9c:	ac138008 	stnp	q8, q0, [x0, #624]
    2ca0:	25000000 	cmpge	p0.b, p0/z, z0.b, #0
    2ca4:	002a0805 	.inst	0x002a0805 ; NYI
    2ca8:	110b0000 	add	w0, w0, #0x2c0
    2cac:	00000145 	.inst	0x00000145 ; undefined
    2cb0:	00058707 	.inst	0x00058707 ; undefined
    2cb4:	40077f00 	.inst	0x40077f00 ; undefined
    2cb8:	7e000004 	.inst	0x7e000004 ; undefined
    2cbc:	000c4a07 	.inst	0x000c4a07 ; undefined
    2cc0:	45077d00 	.inst	0x45077d00 ; undefined
    2cc4:	7c000007 	stur	h7, [x0]
    2cc8:	0004bc07 	.inst	0x0004bc07 ; undefined
    2ccc:	58077b00 	ldr	x0, 11c2c <_start-0x1ee3d4>
    2cd0:	7a00000b 	sbcs	w11, w0, w0
    2cd4:	000c9307 	.inst	0x000c9307 ; undefined
    2cd8:	47077900 	.inst	0x47077900 ; undefined
    2cdc:	78000008 	sturh	w8, [x0]
    2ce0:	00094a07 	.inst	0x00094a07 ; undefined
    2ce4:	05077700 	.inst	0x05077700 ; undefined
    2ce8:	76000005 	.inst	0x76000005 ; undefined
    2cec:	00042007 	.inst	0x00042007 ; undefined
    2cf0:	1f077500 	fmadd	s0, s8, s7, s29
    2cf4:	7400000a 	.inst	0x7400000a ; undefined
    2cf8:	000d0707 	.inst	0x000d0707 ; undefined
    2cfc:	5d077300 	.inst	0x5d077300 ; undefined
    2d00:	72000006 	ands	w6, w0, #0x1
    2d04:	0009c307 	.inst	0x0009c307 ; undefined
    2d08:	92077100 	and	x0, x8, #0xfe3ffffffe3fffff
    2d0c:	70000003 	adr	x3, 2d0f <_start-0x1fd2f1>
    2d10:	00040807 	.inst	0x00040807 ; undefined
    2d14:	56326f00 	.inst	0x56326f00 ; undefined
    2d18:	ff000008 	.inst	0xff000008 ; undefined
    2d1c:	ffffffff 	.inst	0xffffffff ; undefined
    2d20:	007fffff 	.inst	0x007fffff ; undefined
    2d24:	00065215 	.inst	0x00065215 ; undefined
    2d28:	00004400 	.inst	0x00004400 ; undefined
    2d2c:	0e080900 	.inst	0x0e080900 ; undefined
    2d30:	00000186 	.inst	0x00000186 ; undefined
    2d34:	000cb501 	.inst	0x000cb501 ; undefined
    2d38:	ad010000 	stp	q0, q0, [x0, #32]
    2d3c:	01000004 	.inst	0x01000004 ; undefined
    2d40:	0009f301 	.inst	0x0009f301 ; undefined
    2d44:	57010200 	.inst	0x57010200 ; undefined
    2d48:	03000009 	.inst	0x03000009 ; undefined
    2d4c:	000cc801 	.inst	0x000cc801 ; undefined
    2d50:	07010400 	.inst	0x07010400 ; undefined
    2d54:	0500000a 	orr	z10.s, z10.s, #0x1
    2d58:	00054c01 	.inst	0x00054c01 ; undefined
    2d5c:	88010600 	stxr	w1, w0, [x16]
    2d60:	0700000b 	.inst	0x0700000b ; undefined
    2d64:	0d220800 	.inst	0x0d220800 ; undefined
    2d68:	13090000 	sbfiz	w0, w0, #23, #1
    2d6c:	00014503 	.inst	0x00014503 ; undefined
    2d70:	01861600 	.inst	0x01861600 ; undefined
    2d74:	86330000 	.inst	0x86330000 ; undefined
    2d78:	09000006 	.inst	0x09000006 ; undefined
    2d7c:	01925915 	.inst	0x01925915 ; undefined
    2d80:	15030000 	b	40c2d80 <__sel4_ipc_buffer_obj+0x3ebbd80>
    2d84:	000010c7 	.inst	0x000010c7 ; undefined
    2d88:	00000044 	.inst	0x00000044 ; undefined
    2d8c:	c70e090a 	.inst	0xc70e090a ; undefined
    2d90:	01000001 	.inst	0x01000001 ; undefined
    2d94:	00000f97 	.inst	0x00000f97 ; undefined
    2d98:	11eb0107 	.inst	0x11eb0107 ; undefined
    2d9c:	01080000 	.inst	0x01080000 ; undefined
    2da0:	00000f32 	.inst	0x00000f32 ; undefined
    2da4:	07250009 	.inst	0x07250009 ; undefined
    2da8:	00004404 	.inst	0x00004404 ; undefined
    2dac:	1d090c00 	.inst	0x1d090c00 ; undefined
    2db0:	01000002 	.inst	0x01000002 ; undefined
    2db4:	000008d6 	.inst	0x000008d6 ; undefined
    2db8:	0c200100 	.inst	0x0c200100 ; undefined
    2dbc:	01010000 	.inst	0x01010000 ; undefined
    2dc0:	00000bb6 	.inst	0x00000bb6 ; undefined
    2dc4:	07e90102 	.inst	0x07e90102 ; undefined
    2dc8:	01030000 	.inst	0x01030000 ; undefined
    2dcc:	00000362 	.inst	0x00000362 ; undefined
    2dd0:	046c0104 	add	z4.h, z8.h, z12.h
    2dd4:	01050000 	.inst	0x01050000 ; undefined
    2dd8:	00000909 	.inst	0x00000909 ; undefined
    2ddc:	0ad20106 	and	w6, w8, w18, ror #0
    2de0:	01070000 	.inst	0x01070000 ; undefined
    2de4:	00000d43 	.inst	0x00000d43 ; undefined
    2de8:	03300108 	.inst	0x03300108 ; undefined
    2dec:	01090000 	.inst	0x01090000 ; undefined
    2df0:	000003b2 	.inst	0x000003b2 ; undefined
    2df4:	08c7010a 	ldlarb	w10, [x8]
    2df8:	000b0000 	.inst	0x000b0000 ; undefined
    2dfc:	000d6808 	.inst	0x000d6808 ; undefined
    2e00:	031b0c00 	.inst	0x031b0c00 ; undefined
    2e04:	000001c7 	.inst	0x000001c7 ; undefined
    2e08:	00102b15 	.inst	0x00102b15 ; undefined
    2e0c:	00004400 	.inst	0x00004400 ; undefined
    2e10:	06340d00 	.inst	0x06340d00 ; undefined
    2e14:	0000024c 	.inst	0x0000024c ; undefined
    2e18:	000e3101 	.inst	0x000e3101 ; undefined
    2e1c:	d4010700 	.inst	0xd4010700 ; undefined
    2e20:	02000010 	.inst	0x02000010 ; undefined
    2e24:	00106601 	.inst	0x00106601 ; undefined
    2e28:	12007800 	and	w0, w0, #0x7fffffff
    2e2c:	00000094 	.inst	0x00000094 ; undefined
    2e30:	0000025c 	.inst	0x0000025c ; undefined
    2e34:	00003d17 	.inst	0x00003d17 ; undefined
    2e38:	34000000 	cbz	w0, 2e38 <_start-0x1fd1c8>
    2e3c:	000006a7 	.inst	0x000006a7 ; undefined
    2e40:	01380e08 	.inst	0x01380e08 ; undefined
    2e44:	00027908 	.inst	0x00027908 ; undefined
    2e48:	05a73500 	.inst	0x05a73500 ; undefined
    2e4c:	390e0000 	strb	w0, [x0, #896]
    2e50:	024c1101 	.inst	0x024c1101 ; undefined
    2e54:	00000000 	.inst	0x00000000 ; undefined
    2e58:	0004f236 	.inst	0x0004f236 ; undefined
    2e5c:	013b0e00 	.inst	0x013b0e00 ; undefined
    2e60:	00025c21 	.inst	0x00025c21 ; undefined
    2e64:	03413700 	.inst	0x03413700 ; undefined
    2e68:	04000000 	add	z0.b, p0/m, z0.b, z0.b
    2e6c:	e9100b0f 	.inst	0xe9100b0f ; undefined
    2e70:	26000002 	.inst	0x26000002 ; undefined
    2e74:	00676174 	.inst	0x00676174 ; undefined
    2e78:	0279180c 	.inst	0x0279180c ; undefined
    2e7c:	26000000 	.inst	0x26000000 ; undefined
    2e80:	0067736d 	.inst	0x0067736d ; undefined
    2e84:	02e90f0d 	.inst	0x02e90f0d ; undefined
    2e88:	18080000 	ldr	w0, 12e88 <_start-0x1ed178>
    2e8c:	00000c7a 	.inst	0x00000c7a ; undefined
    2e90:	0000ac0e 	.inst	0x0000ac0e ; undefined
    2e94:	1803c800 	ldr	w0, a794 <_start-0x1f586c>
    2e98:	000007b9 	.inst	0x000007b9 ; undefined
    2e9c:	0002f90f 	.inst	0x0002f90f ; undefined
    2ea0:	1803d000 	ldr	w0, a8a0 <_start-0x1f5760>
    2ea4:	000008e3 	.inst	0x000008e3 ; undefined
    2ea8:	0000b810 	.inst	0x0000b810 ; undefined
    2eac:	1803e800 	ldr	w0, abac <_start-0x1f5454>
    2eb0:	000009e6 	.inst	0x000009e6 ; undefined
    2eb4:	0000b811 	.inst	0x0000b811 ; undefined
    2eb8:	1803f000 	ldr	w0, acb8 <_start-0x1f5348>
    2ebc:	00000cfa 	.inst	0x00000cfa ; undefined
    2ec0:	0000ac12 	.inst	0x0000ac12 ; undefined
    2ec4:	0003f800 	.inst	0x0003f800 ; undefined
    2ec8:	0000ac12 	.inst	0x0000ac12 ; undefined
    2ecc:	0002f900 	.inst	0x0002f900 ; undefined
    2ed0:	003d1700 	.inst	0x003d1700 ; NYI
    2ed4:	00770000 	.inst	0x00770000 ; undefined
    2ed8:	0000ac12 	.inst	0x0000ac12 ; undefined
    2edc:	00030900 	.inst	0x00030900 ; undefined
    2ee0:	003d1700 	.inst	0x003d1700 ; NYI
    2ee4:	00020000 	.inst	0x00020000 ; undefined
    2ee8:	0003e838 	.inst	0x0003e838 ; undefined
    2eec:	03130f00 	.inst	0x03130f00 ; undefined
    2ef0:	00000286 	.inst	0x00000286 ; undefined
    2ef4:	e00c0400 	.inst	0xe00c0400 ; undefined
    2ef8:	05000004 	orr	z4.s, z4.s, #0x1
    2efc:	0323210d 	.inst	0x0323210d ; undefined
    2f00:	09130000 	.inst	0x09130000 ; undefined
    2f04:	15000003 	b	4002f10 <__sel4_ipc_buffer_obj+0x3dfbf10>
    2f08:	00001188 	.inst	0x00001188 ; undefined
    2f0c:	00000044 	.inst	0x00000044 ; undefined
    2f10:	17060e10 	b	fffffffffc186750 <__sel4_ipc_buffer_obj+0xfffffffffbf7f750>
    2f14:	01000004 	.inst	0x01000004 ; undefined
    2f18:	00000eab 	.inst	0x00000eab ; undefined
    2f1c:	12d50100 	.inst	0x12d50100 ; undefined
    2f20:	01010000 	.inst	0x01010000 ; undefined
    2f24:	00000f21 	.inst	0x00000f21 ; undefined
    2f28:	113d0102 	add	w2, w8, #0xf40
    2f2c:	01030000 	.inst	0x01030000 ; undefined
    2f30:	000011da 	.inst	0x000011da ; undefined
    2f34:	0ecd0104 	.inst	0x0ecd0104 ; undefined
    2f38:	01050000 	.inst	0x01050000 ; undefined
    2f3c:	0000114f 	.inst	0x0000114f ; undefined
    2f40:	0ef20106 	.inst	0x0ef20106 ; undefined
    2f44:	01070000 	.inst	0x01070000 ; undefined
    2f48:	00000e90 	.inst	0x00000e90 ; undefined
    2f4c:	0f570108 	.inst	0x0f570108 ; undefined
    2f50:	01090000 	.inst	0x01090000 ; undefined
    2f54:	00000e4f 	.inst	0x00000e4f ; undefined
    2f58:	10e9010a 	adr	x10, fffffffffffd4f78 <__sel4_ipc_buffer_obj+0xffffffffffdcdf78>
    2f5c:	010b0000 	.inst	0x010b0000 ; undefined
    2f60:	00000ffd 	.inst	0x00000ffd ; undefined
    2f64:	11d0010c 	.inst	0x11d0010c ; undefined
    2f68:	010d0000 	.inst	0x010d0000 ; undefined
    2f6c:	0000115e 	.inst	0x0000115e ; undefined
    2f70:	1210010e 	and	w14, w8, #0x10000
    2f74:	010f0000 	.inst	0x010f0000 ; undefined
    2f78:	000012a3 	.inst	0x000012a3 ; undefined
    2f7c:	12650110 	.inst	0x12650110 ; undefined
    2f80:	01110000 	.inst	0x01110000 ; undefined
    2f84:	00000f4b 	.inst	0x00000f4b ; undefined
    2f88:	10b00112 	adr	x18, fffffffffff62fa8 <__sel4_ipc_buffer_obj+0xffffffffffd5bfa8>
    2f8c:	01130000 	.inst	0x01130000 ; undefined
    2f90:	000012b1 	.inst	0x000012b1 ; undefined
    2f94:	0f030114 	.inst	0x0f030114 ; undefined
    2f98:	01150000 	.inst	0x01150000 ; undefined
    2f9c:	00000e7d 	.inst	0x00000e7d ; undefined
    2fa0:	11720116 	add	w22, w8, #0xc80, lsl #12
    2fa4:	01170000 	.inst	0x01170000 ; undefined
    2fa8:	00000f7c 	.inst	0x00000f7c ; undefined
    2fac:	0fc00118 	.inst	0x0fc00118 ; undefined
    2fb0:	01190000 	.inst	0x01190000 ; undefined
    2fb4:	0000125b 	.inst	0x0000125b ; undefined
    2fb8:	0faf011a 	.inst	0x0faf011a ; undefined
    2fbc:	011b0000 	.inst	0x011b0000 ; undefined
    2fc0:	0000112a 	.inst	0x0000112a ; undefined
    2fc4:	10a3011c 	adr	x28, fffffffffff48fe4 <__sel4_ipc_buffer_obj+0xffffffffffd41fe4>
    2fc8:	011d0000 	.inst	0x011d0000 ; undefined
    2fcc:	00001010 	.inst	0x00001010 ; undefined
    2fd0:	1226011e 	and	w30, w8, #0x4000000
    2fd4:	011f0000 	.inst	0x011f0000 ; undefined
    2fd8:	00001237 	.inst	0x00001237 ; undefined
    2fdc:	11990120 	.inst	0x11990120 ; undefined
    2fe0:	01210000 	.inst	0x01210000 ; undefined
    2fe4:	00001051 	.inst	0x00001051 ; undefined
    2fe8:	0e1d0122 	tbl	v2.8b, {v9.16b}, v29.8b
    2fec:	01230000 	.inst	0x01230000 ; undefined
    2ff0:	00000dfa 	.inst	0x00000dfa ; undefined
    2ff4:	7e150024 	.inst	0x7e150024 ; undefined
    2ff8:	44000011 	.inst	0x44000011 ; undefined
    2ffc:	11000000 	add	w0, w0, #0x0
    3000:	044c060e 	sabd	z14.h, p1/m, z14.h, z16.h
    3004:	0d010000 	.inst	0x0d010000 ; undefined
    3008:	2400000f 	cmphs	p15.b, p0/z, z0.b, z0.b
    300c:	0012e301 	.inst	0x0012e301 ; undefined
    3010:	5f012500 	.inst	0x5f012500 ; undefined
    3014:	2600000e 	.inst	0x2600000e ; undefined
    3018:	000fe201 	.inst	0x000fe201 ; undefined
    301c:	44012700 	.inst	0x44012700 ; undefined
    3020:	2800000e 	stnp	w14, w0, [x0]
    3024:	0012bb01 	.inst	0x0012bb01 ; undefined
    3028:	08002900 	stxrb	w0, w0, [x8]
    302c:	00000e0c 	.inst	0x00000e0c ; undefined
    3030:	44160e02 	.inst	0x44160e02 ; undefined
    3034:	08000000 	stxrb	w0, w0, [x0]
    3038:	00000d59 	.inst	0x00000d59 ; undefined
    303c:	44160f02 	.inst	0x44160f02 ; undefined
    3040:	08000000 	stxrb	w0, w0, [x0]
    3044:	00000d32 	.inst	0x00000d32 ; undefined
    3048:	791c1002 	strh	w2, [x0, #3592]
    304c:	12000002 	and	w2, w0, #0x1
    3050:	00000480 	.inst	0x00000480 ; undefined
    3054:	00000480 	.inst	0x00000480 ; undefined
    3058:	00003d17 	.inst	0x00003d17 ; undefined
    305c:	09003f00 	.inst	0x09003f00 ; undefined
    3060:	01840801 	.inst	0x01840801 ; undefined
    3064:	80160000 	.inst	0x80160000 ; undefined
    3068:	0c000004 	st4	{v4.8b-v7.8b}, [x0]
    306c:	00000cec 	.inst	0x00000cec ; undefined
    3070:	700d2702 	adr	x2, 1d553 <_start-0x1e2aad>
    3074:	0c000004 	st4	{v4.8b-v7.8b}, [x0]
    3078:	00001407 	.inst	0x00001407 ; undefined
    307c:	a0122902 	.inst	0xa0122902 ; undefined
    3080:	0c000000 	st4	{v0.8b-v3.8b}, [x0]
    3084:	00001367 	.inst	0x00001367 ; undefined
    3088:	b8122a02 	sttr	w2, [x16, #-222]
    308c:	0c000000 	st4	{v0.8b-v3.8b}, [x0]
    3090:	000013a2 	.inst	0x000013a2 ; undefined
    3094:	791b2b02 	strh	w2, [x24, #3476]
    3098:	39000002 	strb	w2, [x0]
    309c:	00001356 	.inst	0x00001356 ; undefined
    30a0:	d2061701 	eor	x1, x24, #0xfc000000fc000000
    30a4:	09000004 	.inst	0x09000004 ; undefined
    30a8:	2060c003 	.inst	0x2060c003 ; undefined
    30ac:	00000000 	.inst	0x00000000 ; undefined
    30b0:	02010900 	.inst	0x02010900 ; undefined
    30b4:	0000149c 	.inst	0x0000149c ; undefined
    30b8:	00048c19 	.inst	0x00048c19 ; undefined
    30bc:	09061800 	.inst	0x09061800 ; undefined
    30c0:	20608003 	.inst	0x20608003 ; undefined
    30c4:	00000000 	.inst	0x00000000 ; undefined
    30c8:	04981900 	orr	z0.s, p6/m, z0.s, z8.s
    30cc:	0b1b0000 	add	w0, w0, w27
    30d0:	60c10309 	.inst	0x60c10309 ; undefined
    30d4:	00000020 	.inst	0x00000020 ; undefined
    30d8:	a4190000 	ld1rqb	{z0.b}, p0/z, [x0, x25]
    30dc:	1c000004 	ldr	s4, 30dc <_start-0x1fcf24>
    30e0:	d003090b 	adrp	x11, 6125000 <__sel4_ipc_buffer_obj+0x5f1e000>
    30e4:	00002060 	.inst	0x00002060 ; undefined
    30e8:	19000000 	.inst	0x19000000 ; undefined
    30ec:	000004b0 	.inst	0x000004b0 ; undefined
    30f0:	0309141d 	.inst	0x0309141d ; undefined
    30f4:	002060c8 	.inst	0x002060c8 ; NYI
    30f8:	00000000 	.inst	0x00000000 ; undefined
    30fc:	0013d10c 	.inst	0x0013d10c ; undefined
    3100:	171f0100 	b	fffffffffc7c3500 <__sel4_ipc_buffer_obj+0xfffffffffc5bc500>
    3104:	00000309 	.inst	0x00000309 ; undefined
    3108:	00031719 	.inst	0x00031719 ; undefined
    310c:	09112100 	.inst	0x09112100 ; undefined
    3110:	20600803 	.inst	0x20600803 ; undefined
    3114:	00000000 	.inst	0x00000000 ; undefined
    3118:	054f1200 	.inst	0x054f1200 ; undefined
    311c:	05450000 	.inst	0x05450000 ; undefined
    3120:	003a0000 	.inst	0x003a0000 ; NYI
    3124:	00053a16 	.inst	0x00053a16 ; undefined
    3128:	05541300 	mov	z0.h, p4/z, #-104
    312c:	4a160000 	eor	w0, w0, w22
    3130:	3b000005 	.inst	0x3b000005 ; undefined
    3134:	00138f0c 	.inst	0x00138f0c ; undefined
    3138:	1b230100 	.inst	0x1b230100 ; undefined
    313c:	00000545 	.inst	0x00000545 ; undefined
    3140:	00131e0c 	.inst	0x00131e0c ; undefined
    3144:	1b240100 	.inst	0x1b240100 ; undefined
    3148:	00000545 	.inst	0x00000545 ; undefined
    314c:	000e8722 	.inst	0x000e8722 ; undefined
    3150:	7e230200 	.inst	0x7e230200 ; undefined
    3154:	14000005 	b	3168 <_start-0x1fce98>
    3158:	0000044c 	.inst	0x0000044c ; undefined
    315c:	111a3c00 	add	w0, w0, #0x68f
    3160:	22020000 	.inst	0x22020000 ; undefined
    3164:	0b0e2206 	add	w6, w16, w14, lsl #8
    3168:	16120000 	b	fffffffff8483168 <__sel4_ipc_buffer_obj+0xfffffffff827c168>
    316c:	000005a6 	.inst	0x000005a6 ; undefined
    3170:	0005a614 	.inst	0x0005a614 ; undefined
    3174:	05a61400 	.inst	0x05a61400 ; undefined
    3178:	67140000 	.inst	0x67140000 ; undefined
    317c:	14000000 	b	317c <_start-0x1fce84>
    3180:	000005a6 	.inst	0x000005a6 ; undefined
    3184:	04871300 	.inst	0x04871300 ; undefined
    3188:	a4220000 	.inst	0xa4220000 ; undefined
    318c:	0200000b 	.inst	0x0200000b ; undefined
    3190:	0005bc35 	.inst	0x0005bc35 ; undefined
    3194:	05a61400 	.inst	0x05a61400 ; undefined
    3198:	3d000000 	str	b0, [x0]
    319c:	000014a2 	.inst	0x000014a2 ; undefined
    31a0:	40066a01 	.inst	0x40066a01 ; undefined
    31a4:	0000203f 	.inst	0x0000203f ; undefined
    31a8:	54000000 	b.eq	31a8 <_start-0x1fce58>  // b.none
    31ac:	00000001 	.inst	0x00000001 ; undefined
    31b0:	01000000 	.inst	0x01000000 ; undefined
    31b4:	000eff9c 	.inst	0x000eff9c ; undefined
    31b8:	0f771c00 	.inst	0x0f771c00 ; undefined
    31bc:	3f400000 	.inst	0x3f400000 ; undefined
    31c0:	00000020 	.inst	0x00000020 ; undefined
    31c4:	0c020000 	.inst	0x0c020000 ; undefined
    31c8:	01000000 	.inst	0x01000000 ; undefined
    31cc:	0630056c 	.inst	0x0630056c ; undefined
    31d0:	0c1d0000 	.inst	0x0c1d0000 ; undefined
    31d4:	06000000 	.inst	0x06000000 ; undefined
    31d8:	00000f84 	.inst	0x00000f84 ; undefined
    31dc:	00000010 	.inst	0x00000010 ; undefined
    31e0:	0000000c 	.inst	0x0000000c ; undefined
    31e4:	000f9027 	.inst	0x000f9027 ; undefined
    31e8:	00002500 	.inst	0x00002500 ; undefined
    31ec:	0f910600 	.inst	0x0f910600 ; undefined
    31f0:	00300000 	.inst	0x00300000 ; NYI
    31f4:	00280000 	.inst	0x00280000 ; NYI
    31f8:	7c3e0000 	.inst	0x7c3e0000 ; undefined
    31fc:	0000203f 	.inst	0x0000203f ; undefined
    3200:	08000000 	stxrb	w0, w0, [x0]
    3204:	24337f83 	cmplo	p3.b, p7/z, z28.b, #77
    3208:	06220084 	.inst	0x06220084 ; undefined
    320c:	28000000 	stnp	w0, w0, [x0]
    3210:	00000eff 	.inst	0x00000eff ; undefined
    3214:	00203fb8 	.inst	0x00203fb8 ; NYI
    3218:	00000000 	.inst	0x00000000 ; undefined
    321c:	000000dc 	.inst	0x000000dc ; undefined
    3220:	00000000 	.inst	0x00000000 ; undefined
    3224:	0ef17b01 	.inst	0x0ef17b01 ; undefined
    3228:	0c060000 	.inst	0x0c060000 ; undefined
    322c:	5b00000f 	.inst	0x5b00000f ; undefined
    3230:	51000000 	sub	w0, w0, #0x0
    3234:	05000000 	orr	z0.s, z0.s, #0x1
    3238:	00000f18 	.inst	0x00000f18 ; undefined
    323c:	27789102 	.inst	0x27789102 ; undefined
    3240:	00000f24 	.inst	0x00000f24 ; undefined
    3244:	00000038 	.inst	0x00000038 ; undefined
    3248:	000f2506 	.inst	0x000f2506 ; undefined
    324c:	00009100 	.inst	0x00009100 ; undefined
    3250:	00008300 	.inst	0x00008300 ; undefined
    3254:	0f310500 	sshr	v0.2s, v8.2s, #15
    3258:	51010000 	sub	w0, w0, #0x40
    325c:	000f3d06 	.inst	0x000f3d06 ; undefined
    3260:	0000ca00 	.inst	0x0000ca00 ; undefined
    3264:	0000c000 	.inst	0x0000c000 ; undefined
    3268:	0f490600 	.inst	0x0f490600 ; undefined
    326c:	01100000 	.inst	0x01100000 ; undefined
    3270:	01060000 	.inst	0x01060000 ; undefined
    3274:	730b0000 	.inst	0x730b0000 ; undefined
    3278:	c4000012 	ld1sb	{z18.d}, p0/z, [x0, z0.d, uxtw]
    327c:	0000203f 	.inst	0x0000203f ; undefined
    3280:	01000000 	.inst	0x01000000 ; undefined
    3284:	00203fc4 	.inst	0x00203fc4 ; NYI
    3288:	00000000 	.inst	0x00000000 ; undefined
    328c:	00000020 	.inst	0x00000020 ; undefined
    3290:	00000000 	.inst	0x00000000 ; undefined
    3294:	c6134d01 	.inst	0xc6134d01 ; undefined
    3298:	02000008 	.inst	0x02000008 ; undefined
    329c:	0000129b 	.inst	0x0000129b ; undefined
    32a0:	00000158 	.inst	0x00000158 ; undefined
    32a4:	00000156 	.inst	0x00000156 ; undefined
    32a8:	00128f02 	.inst	0x00128f02 ; undefined
    32ac:	00016800 	.inst	0x00016800 ; undefined
    32b0:	00016600 	.inst	0x00016600 ; undefined
    32b4:	12830200 	mov	w0, #0xffffe7ef            	// #-6161
    32b8:	017c0000 	.inst	0x017c0000 ; undefined
    32bc:	017a0000 	.inst	0x017a0000 ; undefined
    32c0:	a71e0000 	.inst	0xa71e0000 ; undefined
    32c4:	06000012 	.inst	0x06000012 ; undefined
    32c8:	000012b3 	.inst	0x000012b3 ; undefined
    32cc:	0000018c 	.inst	0x0000018c ; undefined
    32d0:	0000018a 	.inst	0x0000018a ; undefined
    32d4:	0012bf06 	.inst	0x0012bf06 ; undefined
    32d8:	00019b00 	.inst	0x00019b00 ; undefined
    32dc:	00019900 	.inst	0x00019900 ; undefined
    32e0:	12cb0600 	.inst	0x12cb0600 ; undefined
    32e4:	01aa0000 	.inst	0x01aa0000 ; undefined
    32e8:	01a80000 	.inst	0x01a80000 ; undefined
    32ec:	d7060000 	.inst	0xd7060000 ; undefined
    32f0:	b9000012 	str	w18, [x0]
    32f4:	b7000001 	tbnz	x1, #32, 32f4 <_start-0x1fcd0c>
    32f8:	06000001 	.inst	0x06000001 ; undefined
    32fc:	000012e3 	.inst	0x000012e3 ; undefined
    3300:	000001c8 	.inst	0x000001c8 ; undefined
    3304:	000001c6 	.inst	0x000001c6 ; undefined
    3308:	0014d41c 	.inst	0x0014d41c ; undefined
    330c:	203fc400 	.inst	0x203fc400 ; undefined
    3310:	00000000 	.inst	0x00000000 ; undefined
    3314:	00490900 	.inst	0x00490900 ; undefined
    3318:	59030000 	.inst	0x59030000 ; undefined
    331c:	0007f605 	.inst	0x0007f605 ; undefined
    3320:	15410200 	b	5043b20 <__sel4_ipc_buffer_obj+0x4e3cb20>
    3324:	01d70000 	.inst	0x01d70000 ; undefined
    3328:	01d50000 	.inst	0x01d50000 ; undefined
    332c:	35020000 	cbnz	w0, 732c <_start-0x1f8cd4>
    3330:	e7000015 	.inst	0xe7000015 ; undefined
    3334:	e5000001 	.inst	0xe5000001 ; undefined
    3338:	02000001 	.inst	0x02000001 ; undefined
    333c:	00001529 	.inst	0x00001529 ; undefined
    3340:	000001fb 	.inst	0x000001fb ; undefined
    3344:	000001f9 	.inst	0x000001f9 ; undefined
    3348:	00151d02 	.inst	0x00151d02 ; undefined
    334c:	00020f00 	.inst	0x00020f00 ; undefined
    3350:	00020d00 	.inst	0x00020d00 ; undefined
    3354:	15110200 	b	4443b54 <__sel4_ipc_buffer_obj+0x423cb54>
    3358:	02230000 	.inst	0x02230000 ; undefined
    335c:	02210000 	.inst	0x02210000 ; undefined
    3360:	05020000 	orr	z0.d, z0.d, #0x1
    3364:	37000015 	tbnz	w21, #0, 3364 <_start-0x1fcc9c>
    3368:	35000002 	cbnz	w2, 3368 <_start-0x1fcc98>
    336c:	02000002 	.inst	0x02000002 ; undefined
    3370:	000014f9 	.inst	0x000014f9 ; undefined
    3374:	0000024b 	.inst	0x0000024b ; undefined
    3378:	00000249 	.inst	0x00000249 ; undefined
    337c:	0014ed02 	.inst	0x0014ed02 ; undefined
    3380:	00025f00 	.inst	0x00025f00 ; undefined
    3384:	00025d00 	.inst	0x00025d00 ; undefined
    3388:	14e10200 	b	3843b88 <__sel4_ipc_buffer_obj+0x363cb88>
    338c:	026f0000 	.inst	0x026f0000 ; undefined
    3390:	026d0000 	.inst	0x026d0000 ; undefined
    3394:	491d0000 	.inst	0x491d0000 ; undefined
    3398:	05000000 	orr	z0.s, z0.s, #0x1
    339c:	0000154d 	.inst	0x0000154d ; undefined
    33a0:	59055001 	.inst	0x59055001 ; undefined
    33a4:	01000015 	.inst	0x01000015 ; undefined
    33a8:	15650551 	b	59448ec <__sel4_ipc_buffer_obj+0x573d8ec>
    33ac:	52010000 	eor	w0, w0, #0x80000000
    33b0:	00157105 	.inst	0x00157105 ; undefined
    33b4:	05530100 	mov	z0.h, p3/z, #8
    33b8:	0000157d 	.inst	0x0000157d ; undefined
    33bc:	89055401 	.inst	0x89055401 ; undefined
    33c0:	01000015 	.inst	0x01000015 ; undefined
    33c4:	15950555 	b	6544918 <__sel4_ipc_buffer_obj+0x633d918>
    33c8:	56010000 	.inst	0x56010000 ; undefined
    33cc:	0015a105 	.inst	0x0015a105 ; undefined
    33d0:	00570100 	.inst	0x00570100 ; undefined
    33d4:	15ae1c00 	b	6b8a3d4 <__sel4_ipc_buffer_obj+0x69833d4>
    33d8:	3fdc0000 	.inst	0x3fdc0000 ; undefined
    33dc:	00000020 	.inst	0x00000020 ; undefined
    33e0:	59070000 	.inst	0x59070000 ; undefined
    33e4:	03000000 	.inst	0x03000000 ; undefined
    33e8:	083c055b 	.inst	0x083c055b ; undefined
    33ec:	c5020000 	ld1sw	{z0.d}, p0/z, [x0, z2.d, uxtw]
    33f0:	80000015 	.inst	0x80000015 ; undefined
    33f4:	7e000002 	.inst	0x7e000002 ; undefined
    33f8:	02000002 	.inst	0x02000002 ; undefined
    33fc:	000015bb 	.inst	0x000015bb ; undefined
    3400:	0000028f 	.inst	0x0000028f ; undefined
    3404:	0000028d 	.inst	0x0000028d ; undefined
    3408:	0015ec29 	.inst	0x0015ec29 ; undefined
    340c:	203fdc00 	.inst	0x203fdc00 ; undefined
    3410:	00000000 	.inst	0x00000000 ; undefined
    3414:	00690900 	.inst	0x00690900 ; undefined
    3418:	28000000 	stnp	w0, w0, [x0]
    341c:	000015ae 	.inst	0x000015ae ; undefined
    3420:	00203fdc 	.inst	0x00203fdc ; NYI
    3424:	00000000 	.inst	0x00000000 ; undefined
    3428:	00000004 	.inst	0x00000004 ; undefined
    342c:	00000000 	.inst	0x00000000 ; undefined
    3430:	08625c03 	.inst	0x08625c03 ; undefined
    3434:	c50d0000 	ld1sw	{z0.d}, p0/z, [x0, z13.d, uxtw]
    3438:	0d000015 	st1	{v21.b}[0], [x0]
    343c:	000015bb 	.inst	0x000015bb ; undefined
    3440:	15ae0b00 	b	6b86040 <__sel4_ipc_buffer_obj+0x697f040>
    3444:	3fe00000 	.inst	0x3fe00000 ; undefined
    3448:	00000020 	.inst	0x00000020 ; undefined
    344c:	e0010000 	.inst	0xe0010000 ; undefined
    3450:	0000203f 	.inst	0x0000203f ; undefined
	...
    345c:	03000000 	.inst	0x03000000 ; undefined
    3460:	08a2055d 	.inst	0x08a2055d ; undefined
    3464:	c5020000 	ld1sw	{z0.d}, p0/z, [x0, z2.d, uxtw]
    3468:	9f000015 	.inst	0x9f000015 ; undefined
    346c:	9d000002 	.inst	0x9d000002 ; undefined
    3470:	02000002 	.inst	0x02000002 ; undefined
    3474:	000015bb 	.inst	0x000015bb ; undefined
    3478:	000002ae 	.inst	0x000002ae ; undefined
    347c:	000002ac 	.inst	0x000002ac ; undefined
    3480:	15ae3f00 	b	6b93080 <__sel4_ipc_buffer_obj+0x698c080>
    3484:	3fe00000 	.inst	0x3fe00000 ; undefined
    3488:	00000020 	.inst	0x00000020 ; undefined
    348c:	00040000 	.inst	0x00040000 ; undefined
    3490:	00000000 	.inst	0x00000000 ; undefined
    3494:	5e030000 	sha1c	q0, s0, v3.4s
    3498:	15c50d05 	b	71468ac <__sel4_ipc_buffer_obj+0x6f3f8ac>
    349c:	bb0d0000 	.inst	0xbb0d0000 ; undefined
    34a0:	00000015 	.inst	0x00000015 ; undefined
    34a4:	0f674000 	.inst	0x0f674000 ; undefined
    34a8:	00790000 	.inst	0x00790000 ; undefined
    34ac:	08f50000 	.inst	0x08f50000 ; undefined
    34b0:	68060000 	.inst	0x68060000 ; undefined
    34b4:	be00000f 	.inst	0xbe00000f ; undefined
    34b8:	bc000002 	stur	s2, [x0]
    34bc:	1a000002 	adc	w2, w0, w0
    34c0:	00204040 	.inst	0x00204040 ; NYI
    34c4:	00000000 	.inst	0x00000000 ; undefined
    34c8:	0000056d 	.inst	0x0000056d ; undefined
    34cc:	0250010e 	.inst	0x0250010e ; undefined
    34d0:	00000084 	.inst	0x00000084 ; undefined
    34d4:	0011ea0b 	.inst	0x0011ea0b ; undefined
    34d8:	203ffc00 	.inst	0x203ffc00 ; undefined
    34dc:	00000000 	.inst	0x00000000 ; undefined
    34e0:	3ffc0800 	.inst	0x3ffc0800 ; undefined
    34e4:	00000020 	.inst	0x00000020 ; undefined
    34e8:	00240000 	.inst	0x00240000 ; NYI
    34ec:	00000000 	.inst	0x00000000 ; undefined
    34f0:	48010000 	stxrh	w1, w0, [x0]
    34f4:	000b5313 	.inst	0x000b5313 ; undefined
    34f8:	11fa0200 	.inst	0x11fa0200 ; undefined
    34fc:	02cd0000 	.inst	0x02cd0000 ; undefined
    3500:	02cb0000 	.inst	0x02cb0000 ; undefined
    3504:	1e020000 	.inst	0x1e020000 ; undefined
    3508:	dd000012 	.inst	0xdd000012 ; undefined
    350c:	db000002 	.inst	0xdb000002 ; undefined
    3510:	02000002 	.inst	0x02000002 ; undefined
    3514:	00001212 	.inst	0x00001212 ; undefined
    3518:	000002ed 	.inst	0x000002ed ; undefined
    351c:	000002eb 	.inst	0x000002eb ; undefined
    3520:	00120602 	.inst	0x00120602 ; undefined
    3524:	00030100 	.inst	0x00030100 ; undefined
    3528:	0002ff00 	.inst	0x0002ff00 ; undefined
    352c:	122a1e00 	and	w0, w16, #0x3fc00000
    3530:	361e0000 	tbz	w0, #3, fffffffffffff530 <__sel4_ipc_buffer_obj+0xffffffffffdf8530>
    3534:	06000012 	.inst	0x06000012 ; undefined
    3538:	00001242 	.inst	0x00001242 ; undefined
    353c:	00000317 	.inst	0x00000317 ; undefined
    3540:	00000311 	.inst	0x00000311 ; undefined
    3544:	00124e06 	.inst	0x00124e06 ; undefined
    3548:	00034200 	.inst	0x00034200 ; undefined
    354c:	00033c00 	.inst	0x00033c00 ; undefined
    3550:	125a0600 	.inst	0x125a0600 ; undefined
    3554:	036b0000 	.inst	0x036b0000 ; undefined
    3558:	03670000 	.inst	0x03670000 ; undefined
    355c:	66060000 	.inst	0x66060000 ; undefined
    3560:	91000012 	add	x18, x0, #0x0
    3564:	8b000003 	add	x3, x0, x0
    3568:	0b000003 	add	w3, w0, w0
    356c:	000015d1 	.inst	0x000015d1 ; undefined
    3570:	00203ffc 	.inst	0x00203ffc ; NYI
    3574:	00000000 	.inst	0x00000000 ; undefined
    3578:	203ffc10 	.inst	0x203ffc10 ; undefined
    357c:	00000000 	.inst	0x00000000 ; undefined
    3580:	00000400 	.inst	0x00000400 ; undefined
    3584:	00000000 	.inst	0x00000000 ; undefined
    3588:	0cf40300 	.inst	0x0cf40300 ; undefined
    358c:	000009dd 	.inst	0x000009dd ; undefined
    3590:	0015e102 	.inst	0x0015e102 ; undefined
    3594:	0003b800 	.inst	0x0003b800 ; undefined
    3598:	0003b600 	.inst	0x0003b600 ; undefined
    359c:	15ec2a00 	b	7b0dd9c <__sel4_ipc_buffer_obj+0x7906d9c>
    35a0:	3ffc0000 	.inst	0x3ffc0000 ; undefined
    35a4:	00000020 	.inst	0x00000020 ; undefined
    35a8:	fc120000 	stur	d0, [x0, #-224]
    35ac:	0000203f 	.inst	0x0000203f ; undefined
    35b0:	04000000 	add	z0.b, p0/m, z0.b, z0.b
	...
    35bc:	0015d10b 	.inst	0x0015d10b ; undefined
    35c0:	20400000 	.inst	0x20400000 ; undefined
    35c4:	00000000 	.inst	0x00000000 ; undefined
    35c8:	40000200 	.inst	0x40000200 ; undefined
    35cc:	00000020 	.inst	0x00000020 ; undefined
	...
    35d8:	f5030000 	.inst	0xf5030000 ; undefined
    35dc:	000a100c 	.inst	0x000a100c ; undefined
    35e0:	15e10200 	b	7843de0 <__sel4_ipc_buffer_obj+0x763cde0>
    35e4:	03c80000 	.inst	0x03c80000 ; undefined
    35e8:	03c60000 	.inst	0x03c60000 ; undefined
    35ec:	0b000000 	add	w0, w0, w0
    35f0:	000015d1 	.inst	0x000015d1 ; undefined
    35f4:	00204000 	.inst	0x00204000 ; NYI
    35f8:	00000000 	.inst	0x00000000 ; undefined
    35fc:	20400006 	.inst	0x20400006 ; undefined
	...
    360c:	0cf60300 	.inst	0x0cf60300 ; undefined
    3610:	00000a43 	.inst	0x00000a43 ; undefined
    3614:	0015e102 	.inst	0x0015e102 ; undefined
    3618:	0003d800 	.inst	0x0003d800 ; undefined
    361c:	0003d600 	.inst	0x0003d600 ; undefined
    3620:	d10b0000 	sub	x0, x0, #0x2c0
    3624:	00000015 	.inst	0x00000015 ; undefined
    3628:	00002040 	.inst	0x00002040 ; undefined
    362c:	0a000000 	and	w0, w0, w0
    3630:	00204000 	.inst	0x00204000 ; NYI
	...
    3640:	760cf703 	.inst	0x760cf703 ; undefined
    3644:	0200000a 	.inst	0x0200000a ; undefined
    3648:	000015e1 	.inst	0x000015e1 ; undefined
    364c:	000003e8 	.inst	0x000003e8 ; undefined
    3650:	000003e6 	.inst	0x000003e6 ; undefined
    3654:	13ee4100 	.inst	0x13ee4100 ; undefined
    3658:	40000000 	.inst	0x40000000 ; undefined
    365c:	00000020 	.inst	0x00000020 ; undefined
    3660:	000e0000 	.inst	0x000e0000 ; undefined
    3664:	00002040 	.inst	0x00002040 ; undefined
    3668:	20000000 	.inst	0x20000000 ; undefined
    366c:	00000000 	.inst	0x00000000 ; undefined
    3670:	03000000 	.inst	0x03000000 ; undefined
    3674:	670205f9 	.inst	0x670205f9 ; undefined
    3678:	f8000014 	stur	x20, [x0]
    367c:	f6000003 	.inst	0xf6000003 ; undefined
    3680:	02000003 	.inst	0x02000003 ; undefined
    3684:	0000145b 	.inst	0x0000145b ; undefined
    3688:	00000408 	.inst	0x00000408 ; undefined
    368c:	00000406 	.inst	0x00000406 ; undefined
    3690:	00144f02 	.inst	0x00144f02 ; undefined
    3694:	00041c00 	.inst	0x00041c00 ; undefined
    3698:	00041a00 	.inst	0x00041a00 ; undefined
    369c:	14430200 	b	10c3e9c <__sel4_ipc_buffer_obj+0xebce9c>
    36a0:	04300000 	add	z0.b, z0.b, z16.b
    36a4:	042e0000 	add	z0.b, z0.b, z14.b
    36a8:	37020000 	tbnz	w0, #0, 76a8 <_start-0x1f8958>
    36ac:	44000014 	.inst	0x44000014 ; undefined
    36b0:	42000004 	.inst	0x42000004 ; undefined
    36b4:	02000004 	.inst	0x02000004 ; undefined
    36b8:	0000142b 	.inst	0x0000142b ; undefined
    36bc:	00000458 	.inst	0x00000458 ; undefined
    36c0:	00000456 	.inst	0x00000456 ; undefined
    36c4:	00141f02 	.inst	0x00141f02 ; undefined
    36c8:	00046c00 	.inst	0x00046c00 ; undefined
    36cc:	00046a00 	.inst	0x00046a00 ; undefined
    36d0:	14130200 	b	4c3ed0 <__sel4_ipc_buffer_obj+0x2bced0>
    36d4:	047c0000 	add	z0.h, z0.h, z28.h
    36d8:	047a0000 	add	z0.h, z0.h, z26.h
    36dc:	07020000 	.inst	0x07020000 ; undefined
    36e0:	90000014 	adrp	x20, 3000 <_start-0x1fd000>
    36e4:	8e000004 	.inst	0x8e000004 ; undefined
    36e8:	02000004 	.inst	0x02000004 ; undefined
    36ec:	000013fb 	.inst	0x000013fb ; undefined
    36f0:	000004a0 	.inst	0x000004a0 ; undefined
    36f4:	0000049e 	.inst	0x0000049e ; undefined
    36f8:	00147305 	.inst	0x00147305 ; undefined
    36fc:	05500100 	mov	z0.h, p0/z, #8
    3700:	0000147f 	.inst	0x0000147f ; undefined
    3704:	8b055101 	add	x1, x8, x5, lsl #20
    3708:	01000014 	.inst	0x01000014 ; undefined
    370c:	14970552 	b	25c4c54 <__sel4_ipc_buffer_obj+0x23bdc54>
    3710:	53010000 	lsl	w0, w0, #31
    3714:	0014a305 	.inst	0x0014a305 ; undefined
    3718:	05540100 	mov	z0.h, p4/z, #8
    371c:	000014af 	.inst	0x000014af ; undefined
    3720:	bb055501 	.inst	0xbb055501 ; undefined
    3724:	01000014 	.inst	0x01000014 ; undefined
    3728:	14c70556 	b	31c4c80 <__sel4_ipc_buffer_obj+0x2fbdc80>
    372c:	57010000 	.inst	0x57010000 ; undefined
    3730:	55420000 	.inst	0x55420000 ; undefined
    3734:	4400000f 	.inst	0x4400000f ; undefined
    3738:	00002040 	.inst	0x00002040 ; undefined
    373c:	18000000 	ldr	w0, 373c <_start-0x1fc8c4>
    3740:	00000000 	.inst	0x00000000 ; undefined
    3744:	97000000 	bl	fffffffffc003744 <__sel4_ipc_buffer_obj+0xfffffffffbdfc744>
    3748:	0600000b 	.inst	0x0600000b ; undefined
    374c:	00000f5a 	.inst	0x00000f5a ; undefined
    3750:	000004b1 	.inst	0x000004b1 ; undefined
    3754:	000004af 	.inst	0x000004af ; undefined
    3758:	2040501a 	.inst	0x2040501a ; undefined
    375c:	00000000 	.inst	0x00000000 ; undefined
    3760:	000f9d00 	.inst	0x000f9d00 ; undefined
    3764:	50010e00 	adr	x0, 5926 <_start-0x1fa6da>
    3768:	08008305 	stlxrb	w0, w5, [x24]
    376c:	010e1aff 	.inst	0x010e1aff ; undefined
    3770:	78910252 	ldursh	x18, [x18, #-240]
    3774:	441c0000 	.inst	0x441c0000 ; undefined
    3778:	5c000011 	ldr	d17, 3778 <_start-0x1fc888>
    377c:	00002040 	.inst	0x00002040 ; undefined
    3780:	02000000 	.inst	0x02000000 ; undefined
    3784:	00000089 	.inst	0x00000089 ; undefined
    3788:	d8134a01 	prfm	pldl1strm, 2a0c8 <_start-0x1d5f38>
    378c:	0200000e 	.inst	0x0200000e ; undefined
    3790:	0000116f 	.inst	0x0000116f ; undefined
    3794:	000004c0 	.inst	0x000004c0 ; undefined
    3798:	000004be 	.inst	0x000004be ; undefined
    379c:	00118902 	.inst	0x00118902 ; undefined
    37a0:	0004d000 	.inst	0x0004d000 ; undefined
    37a4:	0004ce00 	.inst	0x0004ce00 ; undefined
    37a8:	117c0200 	add	w0, w16, #0xf00, lsl #12
    37ac:	04e00000 	add	z0.d, z0.d, z0.d
    37b0:	04de0000 	.inst	0x04de0000 ; undefined
    37b4:	62020000 	.inst	0x62020000 ; undefined
    37b8:	f4000011 	.inst	0xf4000011 ; undefined
    37bc:	f2000004 	ands	x4, x0, #0x100000001
    37c0:	02000004 	.inst	0x02000004 ; undefined
    37c4:	00001155 	.inst	0x00001155 ; undefined
    37c8:	00000507 	.inst	0x00000507 ; undefined
    37cc:	00000505 	.inst	0x00000505 ; undefined
    37d0:	0000891d 	.inst	0x0000891d ; undefined
    37d4:	11961e00 	.inst	0x11961e00 ; undefined
    37d8:	a3060000 	.inst	0xa3060000 ; undefined
    37dc:	1e000011 	.inst	0x1e000011 ; undefined
    37e0:	1c000005 	ldr	s5, 37e0 <_start-0x1fc820>
    37e4:	06000005 	.inst	0x06000005 ; undefined
    37e8:	000011b0 	.inst	0x000011b0 ; undefined
    37ec:	00000533 	.inst	0x00000533 ; undefined
    37f0:	0000052b 	.inst	0x0000052b ; undefined
    37f4:	0011bd06 	.inst	0x0011bd06 ; undefined
    37f8:	00056500 	.inst	0x00056500 ; undefined
    37fc:	00055d00 	.inst	0x00055d00 ; undefined
    3800:	11ca0600 	.inst	0x11ca0600 ; undefined
    3804:	05950000 	mov	z0.s, p5/z, #0
    3808:	058f0000 	.inst	0x058f0000 ; undefined
    380c:	d7060000 	.inst	0xd7060000 ; undefined
    3810:	c2000011 	.inst	0xc2000011 ; undefined
    3814:	ba000005 	adcs	x5, x0, x0
    3818:	1b000005 	madd	w5, w0, w0, w0
    381c:	000015d1 	.inst	0x000015d1 ; undefined
    3820:	0020405c 	.inst	0x0020405c ; NYI
    3824:	00000000 	.inst	0x00000000 ; undefined
    3828:	20405c0a 	.inst	0x20405c0a ; undefined
    382c:	00000000 	.inst	0x00000000 ; undefined
    3830:	00000400 	.inst	0x00000400 ; undefined
    3834:	00000000 	.inst	0x00000000 ; undefined
    3838:	0c014d00 	.inst	0x0c014d00 ; undefined
    383c:	00000c8d 	.inst	0x00000c8d ; undefined
    3840:	0015e102 	.inst	0x0015e102 ; undefined
    3844:	0005ee00 	.inst	0x0005ee00 ; undefined
    3848:	0005ec00 	.inst	0x0005ec00 ; undefined
    384c:	15ec2a00 	b	7b0e04c <__sel4_ipc_buffer_obj+0x790704c>
    3850:	405c0000 	.inst	0x405c0000 ; undefined
    3854:	00000020 	.inst	0x00000020 ; undefined
    3858:	5c0c0000 	ldr	d0, 1b858 <_start-0x1e47a8>
    385c:	00002040 	.inst	0x00002040 ; undefined
    3860:	04000000 	add	z0.b, p0/m, z0.b, z0.b
	...
    386c:	0015d11b 	.inst	0x0015d11b ; undefined
    3870:	20406000 	.inst	0x20406000 ; undefined
    3874:	00000000 	.inst	0x00000000 ; undefined
    3878:	40600200 	.inst	0x40600200 ; undefined
    387c:	00000020 	.inst	0x00000020 ; undefined
	...
    3888:	014e0000 	.inst	0x014e0000 ; undefined
    388c:	000cc00c 	.inst	0x000cc00c ; undefined
    3890:	15e10200 	b	7844090 <__sel4_ipc_buffer_obj+0x763d090>
    3894:	05fe0000 	.inst	0x05fe0000 ; undefined
    3898:	05fc0000 	.inst	0x05fc0000 ; undefined
    389c:	1b000000 	madd	w0, w0, w0, w0
    38a0:	000015d1 	.inst	0x000015d1 ; undefined
    38a4:	00204060 	.inst	0x00204060 ; NYI
    38a8:	00000000 	.inst	0x00000000 ; undefined
    38ac:	20406006 	.inst	0x20406006 ; undefined
	...
    38bc:	0c014f00 	.inst	0x0c014f00 ; undefined
    38c0:	00000cf3 	.inst	0x00000cf3 ; undefined
    38c4:	0015e102 	.inst	0x0015e102 ; undefined
    38c8:	00060e00 	.inst	0x00060e00 ; undefined
    38cc:	00060c00 	.inst	0x00060c00 ; undefined
    38d0:	d11b0000 	sub	x0, x0, #0x6c0
    38d4:	60000015 	.inst	0x60000015 ; undefined
    38d8:	00002040 	.inst	0x00002040 ; undefined
    38dc:	0a000000 	and	w0, w0, w0
    38e0:	00204060 	.inst	0x00204060 ; NYI
	...
    38f0:	260c0150 	.inst	0x260c0150 ; undefined
    38f4:	0200000d 	.inst	0x0200000d ; undefined
    38f8:	000015e1 	.inst	0x000015e1 ; undefined
    38fc:	0000061e 	.inst	0x0000061e ; undefined
    3900:	0000061c 	.inst	0x0000061c ; undefined
    3904:	12f02b00 	.inst	0x12f02b00 ; undefined
    3908:	40600000 	.inst	0x40600000 ; undefined
    390c:	00000020 	.inst	0x00000020 ; undefined
    3910:	990e0000 	.inst	0x990e0000 ; undefined
    3914:	52000000 	eor	w0, w0, #0x1
    3918:	000e1301 	.inst	0x000e1301 ; undefined
    391c:	13750200 	.inst	0x13750200 ; undefined
    3920:	062e0000 	.inst	0x062e0000 ; undefined
    3924:	062c0000 	.inst	0x062c0000 ; undefined
    3928:	69020000 	.inst	0x69020000 ; undefined
    392c:	3e000013 	.inst	0x3e000013 ; undefined
    3930:	3c000006 	stur	b6, [x0]
    3934:	02000006 	.inst	0x02000006 ; undefined
    3938:	0000135d 	.inst	0x0000135d ; undefined
    393c:	00000652 	.inst	0x00000652 ; undefined
    3940:	00000650 	.inst	0x00000650 ; undefined
    3944:	00135102 	.inst	0x00135102 ; undefined
    3948:	00066600 	.inst	0x00066600 ; undefined
    394c:	00066400 	.inst	0x00066400 ; undefined
    3950:	13450200 	.inst	0x13450200 ; undefined
    3954:	067a0000 	.inst	0x067a0000 ; undefined
    3958:	06780000 	.inst	0x06780000 ; undefined
    395c:	39020000 	strb	w0, [x0, #128]
    3960:	8e000013 	.inst	0x8e000013 ; undefined
    3964:	8c000006 	.inst	0x8c000006 ; undefined
    3968:	02000006 	.inst	0x02000006 ; undefined
    396c:	0000132d 	.inst	0x0000132d ; undefined
    3970:	000006a2 	.inst	0x000006a2 ; undefined
    3974:	000006a0 	.inst	0x000006a0 ; undefined
    3978:	00132102 	.inst	0x00132102 ; undefined
    397c:	0006b300 	.inst	0x0006b300 ; undefined
    3980:	0006b100 	.inst	0x0006b100 ; undefined
    3984:	13150200 	sbfiz	w0, w16, #11, #1
    3988:	06c70000 	.inst	0x06c70000 ; undefined
    398c:	06c50000 	.inst	0x06c50000 ; undefined
    3990:	09020000 	.inst	0x09020000 ; undefined
    3994:	d7000013 	.inst	0xd7000013 ; undefined
    3998:	d5000006 	msr	s0_0_c0_c0_0, x6
    399c:	02000006 	.inst	0x02000006 ; undefined
    39a0:	000012fd 	.inst	0x000012fd ; undefined
    39a4:	000006ee 	.inst	0x000006ee ; undefined
    39a8:	000006ec 	.inst	0x000006ec ; undefined
    39ac:	0000991d 	.inst	0x0000991d ; undefined
    39b0:	13810500 	extr	w0, w8, w1, #1
    39b4:	50010000 	adr	x0, 59b6 <_start-0x1fa64a>
    39b8:	00138d05 	.inst	0x00138d05 ; undefined
    39bc:	05510100 	mov	z0.h, p1/z, #8
    39c0:	00001399 	.inst	0x00001399 ; undefined
    39c4:	a5055201 	ld1sh	{z1.d}, p4/z, [x16, x5, lsl #1]
    39c8:	01000013 	.inst	0x01000013 ; undefined
    39cc:	13b10553 	.inst	0x13b10553 ; undefined
    39d0:	54010000 	b.eq	59d0 <_start-0x1fa630>  // b.none
    39d4:	0013bd05 	.inst	0x0013bd05 ; undefined
    39d8:	05550100 	mov	z0.h, p5/z, #8
    39dc:	000013c9 	.inst	0x000013c9 ; undefined
    39e0:	d5055601 	msr	s0_5_c5_c6_0, x1
    39e4:	01000013 	.inst	0x01000013 ; undefined
    39e8:	13e10558 	.inst	0x13e10558 ; undefined
    39ec:	57010000 	.inst	0x57010000 ; undefined
    39f0:	ae2b0000 	.inst	0xae2b0000 ; undefined
    39f4:	84000015 	ld1sb	{z21.s}, p0/z, [x0, z0.s, uxtw]
    39f8:	00002040 	.inst	0x00002040 ; undefined
    39fc:	07000000 	.inst	0x07000000 ; undefined
    3a00:	000000a9 	.inst	0x000000a9 ; undefined
    3a04:	0e510156 	.inst	0x0e510156 ; undefined
    3a08:	c5020000 	ld1sw	{z0.d}, p0/z, [x0, z2.d, uxtw]
    3a0c:	ff000015 	.inst	0xff000015 ; undefined
    3a10:	fd000006 	str	d6, [x0]
    3a14:	1f000006 	fmadd	s6, s0, s0, s0
    3a18:	000015bb 	.inst	0x000015bb ; undefined
    3a1c:	15ec2900 	b	7b0de1c <__sel4_ipc_buffer_obj+0x7906e1c>
    3a20:	40840000 	.inst	0x40840000 ; undefined
    3a24:	00000020 	.inst	0x00000020 ; undefined
    3a28:	b9090000 	str	w0, [x0, #2304]
    3a2c:	00000000 	.inst	0x00000000 ; undefined
    3a30:	0015ae43 	.inst	0x0015ae43 ; undefined
    3a34:	20408800 	.inst	0x20408800 ; undefined
    3a38:	00000000 	.inst	0x00000000 ; undefined
    3a3c:	00000400 	.inst	0x00000400 ; undefined
    3a40:	00000000 	.inst	0x00000000 ; undefined
    3a44:	01570300 	.inst	0x01570300 ; undefined
    3a48:	000e7905 	.inst	0x000e7905 ; undefined
    3a4c:	15c50d00 	b	7146e4c <__sel4_ipc_buffer_obj+0x6f3fe4c>
    3a50:	bb0d0000 	.inst	0xbb0d0000 ; undefined
    3a54:	00000015 	.inst	0x00000015 ; undefined
    3a58:	0015ae1b 	.inst	0x0015ae1b ; undefined
    3a5c:	20408c00 	.inst	0x20408c00 ; undefined
    3a60:	00000000 	.inst	0x00000000 ; undefined
    3a64:	408c0100 	.inst	0x408c0100 ; undefined
    3a68:	00000020 	.inst	0x00000020 ; undefined
	...
    3a74:	01580000 	.inst	0x01580000 ; undefined
    3a78:	000eb205 	.inst	0x000eb205 ; undefined
    3a7c:	15c50200 	b	714427c <__sel4_ipc_buffer_obj+0x6f3d27c>
    3a80:	070e0000 	.inst	0x070e0000 ; undefined
    3a84:	070c0000 	.inst	0x070c0000 ; undefined
    3a88:	bb1f0000 	.inst	0xbb1f0000 ; undefined
    3a8c:	02000015 	.inst	0x02000015 ; undefined
    3a90:	15ae4400 	b	6b94a90 <__sel4_ipc_buffer_obj+0x698da90>
    3a94:	408c0000 	.inst	0x408c0000 ; undefined
    3a98:	00000020 	.inst	0x00000020 ; undefined
    3a9c:	00040000 	.inst	0x00040000 ; undefined
    3aa0:	00000000 	.inst	0x00000000 ; undefined
    3aa4:	59030000 	.inst	0x59030000 ; undefined
    3aa8:	c50d0501 	ld1sw	{z1.d}, p1/z, [x8, z13.d, uxtw]
    3aac:	0d000015 	st1	{v21.b}[0], [x0]
    3ab0:	000015bb 	.inst	0x000015bb ; undefined
    3ab4:	1a000000 	adc	w0, w0, w0
    3ab8:	00203ff8 	.inst	0x00203ff8 ; NYI
    3abc:	00000000 	.inst	0x00000000 ; undefined
    3ac0:	00001068 	.inst	0x00001068 ; undefined
    3ac4:	0550010e 	mov	z14.h, p0/z, #8
    3ac8:	3f080083 	.inst	0x3f080083 ; undefined
    3acc:	0000001a 	.inst	0x0000001a ; undefined
    3ad0:	203f9045 	.inst	0x203f9045 ; undefined
    3ad4:	00000000 	.inst	0x00000000 ; undefined
    3ad8:	00057e00 	.inst	0x00057e00 ; undefined
    3adc:	1c100000 	ldr	s0, 23adc <_start-0x1dc524>
    3ae0:	01000014 	.inst	0x01000014 ; undefined
    3ae4:	77010d3e 	.inst	0x77010d3e ; undefined
    3ae8:	0300000f 	.inst	0x0300000f ; undefined
    3aec:	000013c6 	.inst	0x000013c6 ; undefined
    3af0:	d20a4001 	eor	x1, x0, #0xffc0007fffc0007f
    3af4:	03000004 	.inst	0x03000004 ; undefined
    3af8:	00001385 	.inst	0x00001385 ; undefined
    3afc:	79184101 	strh	w1, [x8, #3104]
    3b00:	23000002 	.inst	0x23000002 ; undefined
    3b04:	0014af03 	.inst	0x0014af03 ; undefined
    3b08:	13440100 	.inst	0x13440100 ; undefined
    3b0c:	000000ac 	.inst	0x000000ac ; undefined
    3b10:	67617420 	.inst	0x67617420 ; undefined
    3b14:	1c450100 	ldr	s0, 8db34 <_start-0x1724cc>
    3b18:	00000279 	.inst	0x00000279 ; undefined
    3b1c:	0013ee03 	.inst	0x0013ee03 ; undefined
    3b20:	12500100 	.inst	0x12500100 ; undefined
    3b24:	0000007c 	.inst	0x0000007c ; undefined
    3b28:	00132f03 	.inst	0x00132f03 ; undefined
    3b2c:	12510100 	.inst	0x12510100 ; undefined
    3b30:	0000007c 	.inst	0x0000007c ; undefined
    3b34:	000f6746 	.inst	0x000f6746 ; undefined
    3b38:	05780300 	.inst	0x05780300 ; undefined
    3b3c:	56010000 	.inst	0x56010000 ; undefined
    3b40:	0000a017 	.inst	0x0000a017 ; undefined
    3b44:	20230000 	.inst	0x20230000 ; undefined
    3b48:	00786469 	.inst	0x00786469 ; undefined
    3b4c:	441a5e01 	.inst	0x441a5e01 ; undefined
    3b50:	00000000 	.inst	0x00000000 ; undefined
    3b54:	38100000 	sturb	w0, [x0, #-256]
    3b58:	01000013 	.inst	0x01000013 ; undefined
    3b5c:	9d010d36 	.inst	0x9d010d36 ; undefined
    3b60:	0300000f 	.inst	0x0300000f ; undefined
    3b64:	0000022d 	.inst	0x0000022d ; undefined
    3b68:	310c3801 	adds	w1, w0, #0x30e
    3b6c:	23000000 	.inst	0x23000000 ; undefined
    3b70:	01006920 	.inst	0x01006920 ; undefined
    3b74:	00311139 	.inst	0x00311139 ; NYI
    3b78:	00000000 	.inst	0x00000000 ; undefined
    3b7c:	0005812c 	.inst	0x0005812c ; undefined
    3b80:	a0212e00 	.inst	0xa0212e00 ; undefined
    3b84:	10000000 	adr	x0, 3b84 <_start-0x1fc47c>
    3b88:	0000203f 	.inst	0x0000203f ; undefined
    3b8c:	2c000000 	stnp	s0, s0, [x0]
    3b90:	00000000 	.inst	0x00000000 ; undefined
    3b94:	01000000 	.inst	0x01000000 ; undefined
    3b98:	0010639c 	.inst	0x0010639c ; undefined
    3b9c:	0d622100 	.inst	0x0d622100 ; undefined
    3ba0:	362e0000 	tbz	w0, #5, fffffffffffffba0 <__sel4_ipc_buffer_obj+0xffffffffffdf8ba0>
    3ba4:	00000458 	.inst	0x00000458 ; undefined
    3ba8:	0000071f 	.inst	0x0000071f ; undefined
    3bac:	0000071b 	.inst	0x0000071b ; undefined
    3bb0:	000d3b21 	.inst	0x000d3b21 ; undefined
    3bb4:	644e2e00 	fcmla	z0.h, p3/m, z16.h, z14.h, #90
    3bb8:	38000004 	sturb	w4, [x0]
    3bbc:	36000007 	tbz	w7, #0, 3bbc <_start-0x1fc444>
    3bc0:	21000007 	.inst	0x21000007 ; undefined
    3bc4:	000012fc 	.inst	0x000012fc ; undefined
    3bc8:	1063692e 	adr	x14, ca8ec <_start-0x135714>
    3bcc:	07490000 	.inst	0x07490000 ; undefined
    3bd0:	07450000 	.inst	0x07450000 ; undefined
    3bd4:	1b0b0000 	madd	w0, w0, w11, w0
    3bd8:	30000011 	adr	x17, 3bd9 <_start-0x1fc427>
    3bdc:	0000203f 	.inst	0x0000203f ; undefined
    3be0:	01000000 	.inst	0x01000000 ; undefined
    3be4:	00203f30 	.inst	0x00203f30 ; NYI
    3be8:	00000000 	.inst	0x00000000 ; undefined
    3bec:	0000000c 	.inst	0x0000000c ; undefined
    3bf0:	00000000 	.inst	0x00000000 ; undefined
    3bf4:	28053201 	stnp	w1, w12, [x16, #40]
    3bf8:	1f000010 	fmadd	s16, s0, s0, s0
    3bfc:	00001128 	.inst	0x00001128 ; undefined
    3c00:	11342d00 	add	w0, w8, #0xd0b
    3c04:	2e000000 	ext	v0.8b, v0.8b, v0.8b, #0
    3c08:	00203f24 	.inst	0x00203f24 ; NYI
    3c0c:	00000000 	.inst	0x00000000 ; undefined
    3c10:	000005ab 	.inst	0x000005ab ; undefined
    3c14:	00001047 	.inst	0x00001047 ; undefined
    3c18:	0950010e 	.inst	0x0950010e ; undefined
    3c1c:	20608003 	.inst	0x20608003 ; undefined
    3c20:	00000000 	.inst	0x00000000 ; undefined
    3c24:	301a0000 	adr	x0, 37c25 <_start-0x1c83db>
    3c28:	0000203f 	.inst	0x0000203f ; undefined
    3c2c:	ab000000 	adds	x0, x0, x0
    3c30:	0e000005 	tbl	v5.8b, {v0.16b}, v0.8b
    3c34:	03095001 	.inst	0x03095001 ; undefined
    3c38:	00205330 	.inst	0x00205330 ; NYI
    3c3c:	00000000 	.inst	0x00000000 ; undefined
    3c40:	64130000 	.inst	0x64130000 ; undefined
    3c44:	2c000004 	stnp	s4, s0, [x0]
    3c48:	000014be 	.inst	0x000014be ; undefined
    3c4c:	04642826 	.inst	0x04642826 ; undefined
    3c50:	3ee00000 	.inst	0x3ee00000 ; undefined
    3c54:	00000020 	.inst	0x00000020 ; undefined
    3c58:	002c0000 	.inst	0x002c0000 ; NYI
    3c5c:	00000000 	.inst	0x00000000 ; undefined
    3c60:	9c010000 	ldr	q0, 5c60 <_start-0x1fa3a0>
    3c64:	0000111b 	.inst	0x0000111b ; undefined
    3c68:	00686347 	.inst	0x00686347 ; undefined
    3c6c:	4c432601 	.inst	0x4c432601 ; undefined
    3c70:	64000004 	.inst	0x64000004 ; undefined
    3c74:	60000007 	.inst	0x60000007 ; undefined
    3c78:	21000007 	.inst	0x21000007 ; undefined
    3c7c:	00000d3b 	.inst	0x00000d3b ; undefined
    3c80:	04645826 	.inst	0x04645826 ; undefined
    3c84:	077d0000 	.inst	0x077d0000 ; undefined
    3c88:	077b0000 	.inst	0x077b0000 ; undefined
    3c8c:	1b0b0000 	madd	w0, w0, w11, w0
    3c90:	00000011 	.inst	0x00000011 ; undefined
    3c94:	0000203f 	.inst	0x0000203f ; undefined
    3c98:	01000000 	.inst	0x01000000 ; undefined
    3c9c:	00203f00 	.inst	0x00203f00 ; NYI
    3ca0:	00000000 	.inst	0x00000000 ; undefined
    3ca4:	0000000c 	.inst	0x0000000c ; undefined
    3ca8:	00000000 	.inst	0x00000000 ; undefined
    3cac:	e0052a01 	.inst	0xe0052a01 ; undefined
    3cb0:	1f000010 	fmadd	s16, s0, s0, s0
    3cb4:	00001128 	.inst	0x00001128 ; undefined
    3cb8:	11342d00 	add	w0, w8, #0xd0b
    3cbc:	2e000000 	ext	v0.8b, v0.8b, v0.8b, #0
    3cc0:	00203ef4 	.inst	0x00203ef4 ; NYI
    3cc4:	00000000 	.inst	0x00000000 ; undefined
    3cc8:	000005ab 	.inst	0x000005ab ; undefined
    3ccc:	000010ff 	.inst	0x000010ff ; undefined
    3cd0:	0950010e 	.inst	0x0950010e ; undefined
    3cd4:	20608003 	.inst	0x20608003 ; undefined
    3cd8:	00000000 	.inst	0x00000000 ; undefined
    3cdc:	001a0000 	.inst	0x001a0000 ; undefined
    3ce0:	0000203f 	.inst	0x0000203f ; undefined
    3ce4:	ab000000 	adds	x0, x0, x0
    3ce8:	0e000005 	tbl	v5.8b, {v0.16b}, v0.8b
    3cec:	03095001 	.inst	0x03095001 ; undefined
    3cf0:	00205300 	.inst	0x00205300 ; NYI
    3cf4:	00000000 	.inst	0x00000000 ; undefined
    3cf8:	59100000 	.inst	0x59100000 ; undefined
    3cfc:	0200000a 	.inst	0x0200000a ; undefined
    3d00:	3f031437 	.inst	0x3f031437 ; undefined
    3d04:	0a000011 	and	w17, w0, w0
    3d08:	00727265 	.inst	0x00727265 ; undefined
    3d0c:	1d373702 	.inst	0x1d373702 ; undefined
    3d10:	20000002 	.inst	0x20000002 ; undefined
    3d14:	40020078 	.inst	0x40020078 ; undefined
    3d18:	00113f0a 	.inst	0x00113f0a ; undefined
    3d1c:	67130000 	.inst	0x67130000 ; undefined
    3d20:	2f000000 	.inst	0x2f000000 ; undefined
    3d24:	000013b6 	.inst	0x000013b6 ; undefined
    3d28:	28014203 	stnp	w3, w16, [x16, #8]
    3d2c:	00000279 	.inst	0x00000279 ; undefined
    3d30:	000011e5 	.inst	0x000011e5 ; undefined
    3d34:	000d540f 	.inst	0x000d540f ; undefined
    3d38:	01420300 	.inst	0x01420300 ; undefined
    3d3c:	0000b842 	.inst	0x0000b842 ; undefined
    3d40:	037c0f00 	.inst	0x037c0f00 ; undefined
    3d44:	42030000 	.inst	0x42030000 ; undefined
    3d48:	02795b01 	.inst	0x02795b01 ; undefined
    3d4c:	73480000 	.inst	0x73480000 ; undefined
    3d50:	03006372 	.inst	0x03006372 ; undefined
    3d54:	b86e0142 	ldaddl	w14, w2, [x10]
    3d58:	0f000000 	.inst	0x0f000000 ; undefined
    3d5c:	000013e7 	.inst	0x000013e7 ; undefined
    3d60:	43014303 	.inst	0x43014303 ; undefined
    3d64:	000011e5 	.inst	0x000011e5 ; undefined
    3d68:	0013cb0f 	.inst	0x0013cb0f ; undefined
    3d6c:	01430300 	.inst	0x01430300 ; undefined
    3d70:	0000b855 	.inst	0x0000b855 ; undefined
    3d74:	04841100 	.inst	0x04841100 ; undefined
    3d78:	45030000 	.inst	0x45030000 ; undefined
    3d7c:	02791801 	.inst	0x02791801 ; undefined
    3d80:	af110000 	.inst	0xaf110000 ; undefined
    3d84:	03000014 	.inst	0x03000014 ; undefined
    3d88:	ac0f0146 	stnp	q6, q0, [x10, #480]
    3d8c:	11000000 	add	w0, w0, #0x0
    3d90:	00000bdd 	.inst	0x00000bdd ; undefined
    3d94:	0f014703 	movi	v3.2s, #0x38, lsl #16
    3d98:	000000ac 	.inst	0x000000ac ; undefined
    3d9c:	000b6711 	.inst	0x000b6711 ; undefined
    3da0:	01480300 	.inst	0x01480300 ; undefined
    3da4:	0000ac0f 	.inst	0x0000ac0f ; undefined
    3da8:	0bff1100 	.inst	0x0bff1100 ; undefined
    3dac:	49030000 	.inst	0x49030000 ; undefined
    3db0:	00ac0f01 	.inst	0x00ac0f01 ; undefined
    3db4:	04110000 	.inst	0x04110000 ; undefined
    3db8:	0300000c 	.inst	0x0300000c ; undefined
    3dbc:	ac0f014a 	stnp	q10, q0, [x10, #480]
    3dc0:	00000000 	.inst	0x00000000 ; undefined
    3dc4:	0000ac13 	.inst	0x0000ac13 ; undefined
    3dc8:	13472400 	.inst	0x13472400 ; undefined
    3dcc:	e6030000 	.inst	0xe6030000 ; undefined
    3dd0:	00027928 	.inst	0x00027928 ; undefined
    3dd4:	00127300 	.inst	0x00127300 ; undefined
    3dd8:	72730a00 	.inst	0x72730a00 ; undefined
    3ddc:	e6030063 	.inst	0xe6030063 ; undefined
    3de0:	0000b841 	.inst	0x0000b841 ; undefined
    3de4:	037c0400 	.inst	0x037c0400 ; undefined
    3de8:	e6030000 	.inst	0xe6030000 ; undefined
    3dec:	00027959 	.inst	0x00027959 ; undefined
    3df0:	13e70400 	.inst	0x13e70400 ; undefined
    3df4:	e6030000 	.inst	0xe6030000 ; undefined
    3df8:	0011e56d 	.inst	0x0011e56d ; undefined
    3dfc:	13cb0400 	.inst	0x13cb0400 ; undefined
    3e00:	e7030000 	.inst	0xe7030000 ; undefined
    3e04:	0000b841 	.inst	0x0000b841 ; undefined
    3e08:	04840300 	.inst	0x04840300 ; undefined
    3e0c:	ec030000 	.inst	0xec030000 ; undefined
    3e10:	00027918 	.inst	0x00027918 ; undefined
    3e14:	14af0300 	b	2bc4a14 <__sel4_ipc_buffer_obj+0x29bda14>
    3e18:	ed030000 	.inst	0xed030000 ; undefined
    3e1c:	0000ac0f 	.inst	0x0000ac0f ; undefined
    3e20:	0bdd0300 	.inst	0x0bdd0300 ; undefined
    3e24:	ee030000 	.inst	0xee030000 ; undefined
    3e28:	0000ac0f 	.inst	0x0000ac0f ; undefined
    3e2c:	0b670300 	.inst	0x0b670300 ; undefined
    3e30:	ef030000 	.inst	0xef030000 ; undefined
    3e34:	0000ac0f 	.inst	0x0000ac0f ; undefined
    3e38:	0bff0300 	.inst	0x0bff0300 ; undefined
    3e3c:	f0030000 	adrp	x0, 6006000 <__sel4_ipc_buffer_obj+0x5dff000>
    3e40:	0000ac0f 	.inst	0x0000ac0f ; undefined
    3e44:	0c040300 	.inst	0x0c040300 ; undefined
    3e48:	f1030000 	subs	x0, x0, #0xc0
    3e4c:	0000ac0f 	.inst	0x0000ac0f ; undefined
    3e50:	7b240000 	.inst	0x7b240000 ; undefined
    3e54:	03000013 	.inst	0x03000013 ; undefined
    3e58:	0279284d 	.inst	0x0279284d ; undefined
    3e5c:	12f00000 	.inst	0x12f00000 ; undefined
    3e60:	730a0000 	.inst	0x730a0000 ; undefined
    3e64:	03006372 	.inst	0x03006372 ; undefined
    3e68:	00b83c4d 	.inst	0x00b83c4d ; undefined
    3e6c:	e7040000 	.inst	0xe7040000 ; undefined
    3e70:	03000013 	.inst	0x03000013 ; undefined
    3e74:	11e54c4d 	.inst	0x11e54c4d ; undefined
    3e78:	cb040000 	sub	x0, x0, x4
    3e7c:	03000013 	.inst	0x03000013 ; undefined
    3e80:	00b85e4d 	.inst	0x00b85e4d ; undefined
    3e84:	84030000 	ld1sb	{z0.s}, p0/z, [x0, z3.s, uxtw]
    3e88:	03000004 	.inst	0x03000004 ; undefined
    3e8c:	02791852 	.inst	0x02791852 ; undefined
    3e90:	af030000 	.inst	0xaf030000 ; undefined
    3e94:	03000014 	.inst	0x03000014 ; undefined
    3e98:	00ac0f53 	.inst	0x00ac0f53 ; undefined
    3e9c:	dd030000 	.inst	0xdd030000 ; undefined
    3ea0:	0300000b 	.inst	0x0300000b ; undefined
    3ea4:	00ac0f54 	.inst	0x00ac0f54 ; undefined
    3ea8:	67030000 	.inst	0x67030000 ; undefined
    3eac:	0300000b 	.inst	0x0300000b ; undefined
    3eb0:	00ac0f55 	.inst	0x00ac0f55 ; undefined
    3eb4:	ff030000 	.inst	0xff030000 ; undefined
    3eb8:	0300000b 	.inst	0x0300000b ; undefined
    3ebc:	00ac0f56 	.inst	0x00ac0f56 ; undefined
    3ec0:	04030000 	subr	z0.b, p0/m, z0.b, z0.b
    3ec4:	0300000c 	.inst	0x0300000c ; undefined
    3ec8:	00ac0f57 	.inst	0x00ac0f57 ; undefined
    3ecc:	10000000 	adr	x0, 3ecc <_start-0x1fc134>
    3ed0:	0000130a 	.inst	0x0000130a ; undefined
    3ed4:	0314b204 	.inst	0x0314b204 ; undefined
    3ed8:	000013ee 	.inst	0x000013ee ; undefined
    3edc:	7379730a 	.inst	0x7379730a ; undefined
    3ee0:	32b20400 	.inst	0x32b20400 ; undefined
    3ee4:	000000ac 	.inst	0x000000ac ; undefined
    3ee8:	000d5404 	.inst	0x000d5404 ; undefined
    3eec:	41b20400 	.inst	0x41b20400 ; undefined
    3ef0:	000000ac 	.inst	0x000000ac ; undefined
    3ef4:	6372730a 	.inst	0x6372730a ; undefined
    3ef8:	51b20400 	.inst	0x51b20400 ; undefined
    3efc:	000000ac 	.inst	0x000000ac ; undefined
    3f00:	000ca004 	.inst	0x000ca004 ; undefined
    3f04:	61b20400 	.inst	0x61b20400 ; undefined
    3f08:	000011e5 	.inst	0x000011e5 ; undefined
    3f0c:	000b6c04 	.inst	0x000b6c04 ; undefined
    3f10:	32b30400 	.inst	0x32b30400 ; undefined
    3f14:	000000ac 	.inst	0x000000ac ; undefined
    3f18:	00048004 	.inst	0x00048004 ; undefined
    3f1c:	33b40400 	.inst	0x33b40400 ; undefined
    3f20:	000011e5 	.inst	0x000011e5 ; undefined
    3f24:	000b3b04 	.inst	0x000b3b04 ; undefined
    3f28:	48b40400 	.inst	0x48b40400 ; undefined
    3f2c:	000011e5 	.inst	0x000011e5 ; undefined
    3f30:	0003c704 	.inst	0x0003c704 ; undefined
    3f34:	5fb40400 	.inst	0x5fb40400 ; undefined
    3f38:	000011e5 	.inst	0x000011e5 ; undefined
    3f3c:	0003d204 	.inst	0x0003d204 ; undefined
    3f40:	76b40400 	.inst	0x76b40400 ; undefined
    3f44:	000011e5 	.inst	0x000011e5 ; undefined
    3f48:	0003dd04 	.inst	0x0003dd04 ; undefined
    3f4c:	33b50400 	.inst	0x33b50400 ; undefined
    3f50:	000011e5 	.inst	0x000011e5 ; undefined
    3f54:	0013cb04 	.inst	0x0013cb04 ; undefined
    3f58:	49b50400 	.inst	0x49b50400 ; undefined
    3f5c:	000000ac 	.inst	0x000000ac ; undefined
    3f60:	0014a703 	.inst	0x0014a703 ; undefined
    3f64:	18b70400 	ldr	w0, fffffffffff71fe4 <__sel4_ipc_buffer_obj+0xffffffffffd6afe4>
    3f68:	000000ac 	.inst	0x000000ac ; undefined
    3f6c:	00048403 	.inst	0x00048403 ; undefined
    3f70:	18b80400 	ldr	w0, fffffffffff73ff0 <__sel4_ipc_buffer_obj+0xffffffffffd6cff0>
    3f74:	000000ac 	.inst	0x000000ac ; undefined
    3f78:	000bdd03 	.inst	0x000bdd03 ; undefined
    3f7c:	18bb0400 	ldr	w0, fffffffffff79ffc <__sel4_ipc_buffer_obj+0xffffffffffd72ffc>
    3f80:	000000ac 	.inst	0x000000ac ; undefined
    3f84:	000b6703 	.inst	0x000b6703 ; undefined
    3f88:	18bc0400 	ldr	w0, fffffffffff7c008 <__sel4_ipc_buffer_obj+0xffffffffffd75008>
    3f8c:	000000ac 	.inst	0x000000ac ; undefined
    3f90:	000bff03 	.inst	0x000bff03 ; undefined
    3f94:	18bd0400 	ldr	w0, fffffffffff7e014 <__sel4_ipc_buffer_obj+0xffffffffffd77014>
    3f98:	000000ac 	.inst	0x000000ac ; undefined
    3f9c:	000c0403 	.inst	0x000c0403 ; undefined
    3fa0:	18be0400 	ldr	w0, fffffffffff80020 <__sel4_ipc_buffer_obj+0xffffffffffd79020>
    3fa4:	000000ac 	.inst	0x000000ac ; undefined
    3fa8:	000c0903 	.inst	0x000c0903 ; undefined
    3fac:	18c00400 	ldr	w0, fffffffffff8402c <__sel4_ipc_buffer_obj+0xffffffffffd7d02c>
    3fb0:	000000ac 	.inst	0x000000ac ; undefined
    3fb4:	0014b503 	.inst	0x0014b503 ; undefined
    3fb8:	18c10400 	ldr	w0, fffffffffff86038 <__sel4_ipc_buffer_obj+0xffffffffffd7f038>
    3fbc:	000000ac 	.inst	0x000000ac ; undefined
    3fc0:	000b7e03 	.inst	0x000b7e03 ; undefined
    3fc4:	18c40400 	ldr	w0, fffffffffff8c044 <__sel4_ipc_buffer_obj+0xffffffffffd85044>
    3fc8:	000000ac 	.inst	0x000000ac ; undefined
    3fcc:	0c5d1000 	.inst	0x0c5d1000 ; undefined
    3fd0:	92040000 	and	x0, x0, #0x1000000010000000
    3fd4:	14d40314 	b	3504c24 <__sel4_ipc_buffer_obj+0x32fdc24>
    3fd8:	730a0000 	.inst	0x730a0000 ; undefined
    3fdc:	04007379 	mls	z25.b, p4/m, z27.b, z0.b
    3fe0:	00ac3092 	.inst	0x00ac3092 ; undefined
    3fe4:	54040000 	b.eq	bfe4 <_start-0x1f401c>  // b.none
    3fe8:	0400000d 	add	z13.b, p0/m, z13.b, z0.b
    3fec:	00ac3f92 	.inst	0x00ac3f92 ; undefined
    3ff0:	a0040000 	.inst	0xa0040000 ; undefined
    3ff4:	0400000c 	add	z12.b, p0/m, z12.b, z0.b
    3ff8:	11e55092 	.inst	0x11e55092 ; undefined
    3ffc:	6c040000 	stnp	d0, d0, [x0, #64]
    4000:	0400000b 	add	z11.b, p0/m, z11.b, z0.b
    4004:	00ac6592 	.inst	0x00ac6592 ; undefined
    4008:	80040000 	.inst	0x80040000 ; undefined
    400c:	04000004 	add	z4.b, p0/m, z4.b, z0.b
    4010:	11e53193 	.inst	0x11e53193 ; undefined
    4014:	3b040000 	.inst	0x3b040000 ; undefined
    4018:	0400000b 	add	z11.b, p0/m, z11.b, z0.b
    401c:	11e54693 	.inst	0x11e54693 ; undefined
    4020:	c7040000 	.inst	0xc7040000 ; undefined
    4024:	04000003 	add	z3.b, p0/m, z3.b, z0.b
    4028:	11e55d93 	.inst	0x11e55d93 ; undefined
    402c:	d2040000 	eor	x0, x0, #0x1000000010000000
    4030:	04000003 	add	z3.b, p0/m, z3.b, z0.b
    4034:	11e57493 	.inst	0x11e57493 ; undefined
    4038:	dd040000 	.inst	0xdd040000 ; undefined
    403c:	04000003 	add	z3.b, p0/m, z3.b, z0.b
    4040:	11e58b93 	.inst	0x11e58b93 ; undefined
    4044:	cb040000 	sub	x0, x0, x4
    4048:	04000013 	add	z19.b, p0/m, z19.b, z0.b
    404c:	00ac3f94 	.inst	0x00ac3f94 ; undefined
    4050:	4a030000 	eor	w0, w0, w3
    4054:	04000006 	add	z6.b, p0/m, z6.b, z0.b
    4058:	00ac1896 	.inst	0x00ac1896 ; undefined
    405c:	84030000 	ld1sb	{z0.s}, p0/z, [x0, z3.s, uxtw]
    4060:	04000004 	add	z4.b, p0/m, z4.b, z0.b
    4064:	00ac1897 	.inst	0x00ac1897 ; undefined
    4068:	dd030000 	.inst	0xdd030000 ; undefined
    406c:	0400000b 	add	z11.b, p0/m, z11.b, z0.b
    4070:	00ac189a 	.inst	0x00ac189a ; undefined
    4074:	67030000 	.inst	0x67030000 ; undefined
    4078:	0400000b 	add	z11.b, p0/m, z11.b, z0.b
    407c:	00ac189b 	.inst	0x00ac189b ; undefined
    4080:	ff030000 	.inst	0xff030000 ; undefined
    4084:	0400000b 	add	z11.b, p0/m, z11.b, z0.b
    4088:	00ac189c 	.inst	0x00ac189c ; undefined
    408c:	04030000 	subr	z0.b, p0/m, z0.b, z0.b
    4090:	0400000c 	add	z12.b, p0/m, z12.b, z0.b
    4094:	00ac189d 	.inst	0x00ac189d ; undefined
    4098:	09030000 	.inst	0x09030000 ; undefined
    409c:	0400000c 	add	z12.b, p0/m, z12.b, z0.b
    40a0:	00ac059e 	.inst	0x00ac059e ; undefined
    40a4:	7e030000 	.inst	0x7e030000 ; undefined
    40a8:	0400000b 	add	z11.b, p0/m, z11.b, z0.b
    40ac:	00ac18a1 	.inst	0x00ac18a1 ; undefined
    40b0:	10000000 	adr	x0, 40b0 <_start-0x1fbf50>
    40b4:	000013fa 	.inst	0x000013fa ; undefined
    40b8:	03147404 	.inst	0x03147404 ; undefined
    40bc:	000015ae 	.inst	0x000015ae ; undefined
    40c0:	7379730a 	.inst	0x7379730a ; undefined
    40c4:	2b740400 	.inst	0x2b740400 ; undefined
    40c8:	000000ac 	.inst	0x000000ac ; undefined
    40cc:	6372730a 	.inst	0x6372730a ; undefined
    40d0:	3a740400 	.inst	0x3a740400 ; undefined
    40d4:	000000ac 	.inst	0x000000ac ; undefined
    40d8:	000ca004 	.inst	0x000ca004 ; undefined
    40dc:	4a740400 	eon	w0, w0, w20, lsr #1
    40e0:	000011e5 	.inst	0x000011e5 ; undefined
    40e4:	00048004 	.inst	0x00048004 ; undefined
    40e8:	60740400 	.inst	0x60740400 ; undefined
    40ec:	000011e5 	.inst	0x000011e5 ; undefined
    40f0:	000b3e04 	.inst	0x000b3e04 ; undefined
    40f4:	2c750400 	ldnp	s0, s1, [x0, #-88]
    40f8:	000011e5 	.inst	0x000011e5 ; undefined
    40fc:	0003ca04 	.inst	0x0003ca04 ; undefined
    4100:	40750400 	.inst	0x40750400 ; undefined
    4104:	000011e5 	.inst	0x000011e5 ; undefined
    4108:	0003d504 	.inst	0x0003d504 ; undefined
    410c:	54750400 	b.eq	ee18c <_start-0x111e74>  // b.none
    4110:	000011e5 	.inst	0x000011e5 ; undefined
    4114:	0003e004 	.inst	0x0003e004 ; undefined
    4118:	68750400 	.inst	0x68750400 ; undefined
    411c:	000011e5 	.inst	0x000011e5 ; undefined
    4120:	0013cb04 	.inst	0x0013cb04 ; undefined
    4124:	8a750400 	bic	x0, x0, x21, lsr #1
    4128:	000000ac 	.inst	0x000000ac ; undefined
    412c:	0014a703 	.inst	0x0014a703 ; undefined
    4130:	18770400 	ldr	w0, f21b0 <_start-0x10de50>
    4134:	000000ac 	.inst	0x000000ac ; undefined
    4138:	00048403 	.inst	0x00048403 ; undefined
    413c:	18780400 	ldr	w0, f41bc <_start-0x10be44>
    4140:	000000ac 	.inst	0x000000ac ; undefined
    4144:	000bdd03 	.inst	0x000bdd03 ; undefined
    4148:	187b0400 	ldr	w0, fa1c8 <_start-0x105e38>
    414c:	000000ac 	.inst	0x000000ac ; undefined
    4150:	000b6703 	.inst	0x000b6703 ; undefined
    4154:	187c0400 	ldr	w0, fc1d4 <_start-0x103e2c>
    4158:	000000ac 	.inst	0x000000ac ; undefined
    415c:	000bff03 	.inst	0x000bff03 ; undefined
    4160:	187d0400 	ldr	w0, fe1e0 <_start-0x101e20>
    4164:	000000ac 	.inst	0x000000ac ; undefined
    4168:	000c0403 	.inst	0x000c0403 ; undefined
    416c:	187e0400 	ldr	w0, 1001ec <_start-0xffe14>
    4170:	000000ac 	.inst	0x000000ac ; undefined
    4174:	000c0903 	.inst	0x000c0903 ; undefined
    4178:	057f0400 	.inst	0x057f0400 ; undefined
    417c:	000000ac 	.inst	0x000000ac ; undefined
    4180:	000b7e03 	.inst	0x000b7e03 ; undefined
    4184:	18820400 	ldr	w0, fffffffffff08204 <__sel4_ipc_buffer_obj+0xffffffffffd01204>
    4188:	000000ac 	.inst	0x000000ac ; undefined
    418c:	04521000 	smulh	z0.h, p4/m, z0.h, z0.h
    4190:	33050000 	bfi	w0, w0, #27, #1
    4194:	15d1031a 	b	7444dfc <__sel4_ipc_buffer_obj+0x723ddfc>
    4198:	690a0000 	.inst	0x690a0000 ; undefined
    419c:	29330500 	stp	w0, w1, [x8, #-104]
    41a0:	00000067 	.inst	0x00000067 ; undefined
    41a4:	00726d0a 	.inst	0x00726d0a ; undefined
    41a8:	ac363305 	stnp	q5, q12, [x24, #-320]
    41ac:	00000000 	.inst	0x00000000 ; undefined
    41b0:	00060024 	.inst	0x00060024 ; undefined
    41b4:	1f2e0500 	fnmadd	s0, s8, s14, s1
    41b8:	000000ac 	.inst	0x000000ac ; undefined
    41bc:	000015ec 	.inst	0x000015ec ; undefined
    41c0:	0500690a 	orr	z10.s, z10.s, #0xff80000
    41c4:	00672e2e 	.inst	0x00672e2e ; undefined
    41c8:	49000000 	.inst	0x49000000 ; undefined
    41cc:	00000777 	.inst	0x00000777 ; undefined
    41d0:	23252905 	.inst	0x23252905 ; undefined
    41d4:	03000003 	.inst	0x03000003 ; undefined
    41d8:	000c352f 	.inst	0x000c352f ; undefined
    41dc:	013e0e00 	.inst	0x013e0e00 ; undefined
    41e0:	00027901 	.inst	0x00027901 ; undefined
    41e4:	00165900 	.inst	0x00165900 ; undefined
    41e8:	11930f00 	.inst	0x11930f00 ; undefined
    41ec:	3e0e0000 	.inst	0x3e0e0000 ; undefined
    41f0:	00942201 	.inst	0x00942201 ; undefined
    41f4:	000f0000 	.inst	0x000f0000 ; undefined
    41f8:	0e00000b 	tbl	v11.8b, {v0.16b}, v0.8b
    41fc:	9435013e 	bl	d446f4 <__sel4_ipc_buffer_obj+0xb3d6f4>
    4200:	0f000000 	.inst	0x0f000000 ; undefined
    4204:	00000372 	.inst	0x00000372 ; undefined
    4208:	50013e0e 	adr	x14, 69ca <_start-0x1f9636>
    420c:	00000094 	.inst	0x00000094 ; undefined
    4210:	0009430f 	.inst	0x0009430f ; undefined
    4214:	013e0e00 	.inst	0x013e0e00 ; undefined
    4218:	00009467 	.inst	0x00009467 ; undefined
    421c:	06a71100 	.inst	0x06a71100 ; undefined
    4220:	3f0e0000 	.inst	0x3f0e0000 ; undefined
    4224:	02791801 	.inst	0x02791801 ; undefined
    4228:	8a4a0000 	and	x0, x0, x10, lsr #0
    422c:	6900000c 	.inst	0x6900000c ; undefined
    4230:	35000016 	cbnz	w22, 4230 <_start-0x1fbdd0>
    4234:	0000000c 	.inst	0x0000000c ; undefined
    4238:	00048712 	.inst	0x00048712 ; undefined
    423c:	00166900 	.inst	0x00166900 ; undefined
    4240:	003d1700 	.inst	0x003d1700 ; NYI
    4244:	00140000 	.inst	0x00140000 ; undefined
    4248:	00165916 	.inst	0x00165916 ; undefined
    424c:	002a0000 	.inst	0x002a0000 ; NYI
    4250:	00020000 	.inst	0x00020000 ; undefined
    4254:	00000d6c 	.inst	0x00000d6c ; undefined
    4258:	1cb60108 	ldr	s8, fffffffffff70278 <__sel4_ipc_buffer_obj+0xffffffffffd69278>
    425c:	00000000 	.inst	0x00000000 ; undefined
    4260:	00000020 	.inst	0x00000020 ; undefined
    4264:	00040000 	.inst	0x00040000 ; undefined
    4268:	00000020 	.inst	0x00000020 ; undefined
    426c:	14c80000 	b	320426c <__sel4_ipc_buffer_obj+0x2ffd26c>
    4270:	14db0000 	b	36c4270 <__sel4_ipc_buffer_obj+0x34bd270>
    4274:	150c0000 	b	4304274 <__sel4_ipc_buffer_obj+0x40fd274>
    4278:	80010000 	.inst	0x80010000 ; undefined
    427c:	00001231 	.inst	0x00001231 ; undefined
    4280:	08010005 	stxrb	w1, w5, [x0]
    4284:	00000d80 	.inst	0x00000d80 ; undefined
    4288:	00142915 	.inst	0x00142915 ; undefined
    428c:	02f01d00 	.inst	0x02f01d00 ; undefined
    4290:	00000000 	.inst	0x00000000 ; undefined
    4294:	40a00000 	.inst	0x40a00000 ; undefined
    4298:	00000020 	.inst	0x00000020 ; undefined
    429c:	01b80000 	.inst	0x01b80000 ; undefined
    42a0:	00000000 	.inst	0x00000000 ; undefined
    42a4:	1cfc0000 	ldr	s0, ffffffffffffc2a4 <__sel4_ipc_buffer_obj+0xffffffffffdf52a4>
    42a8:	01070000 	.inst	0x01070000 ; undefined
    42ac:	00017d06 	.inst	0x00017d06 ; undefined
    42b0:	08010700 	stxrb	w1, w0, [x24]
    42b4:	0000017b 	.inst	0x0000017b ; undefined
    42b8:	8e050207 	.inst	0x8e050207 ; undefined
    42bc:	07000000 	.inst	0x07000000 ; undefined
    42c0:	01d50702 	.inst	0x01d50702 ; undefined
    42c4:	04160000 	.inst	0x04160000 ; undefined
    42c8:	746e6905 	.inst	0x746e6905 ; undefined
    42cc:	07040700 	.inst	0x07040700 ; undefined
    42d0:	000001b0 	.inst	0x000001b0 ; undefined
    42d4:	0a050807 	and	w7, w0, w5, lsl #2
    42d8:	0d000001 	st1	{v1.b}[0], [x0]
    42dc:	00000789 	.inst	0x00000789 ; undefined
    42e0:	6b255404 	.inst	0x6b255404 ; undefined
    42e4:	07000000 	.inst	0x07000000 ; undefined
    42e8:	01ab0708 	.inst	0x01ab0708 ; undefined
    42ec:	c90d0000 	.inst	0xc90d0000 ; undefined
    42f0:	04000004 	add	z4.b, p0/m, z4.b, z0.b
    42f4:	005f1574 	.inst	0x005f1574 ; undefined
    42f8:	05170000 	mov	z0.b, p7/z, #0
    42fc:	00005808 	.inst	0x00005808 ; undefined
    4300:	0e110600 	dup	v0.8b, v16.b[8]
    4304:	00000100 	.inst	0x00000100 ; undefined
    4308:	00058704 	.inst	0x00058704 ; undefined
    430c:	40047f00 	.inst	0x40047f00 ; undefined
    4310:	7e000004 	.inst	0x7e000004 ; undefined
    4314:	000c4a04 	.inst	0x000c4a04 ; undefined
    4318:	45047d00 	.inst	0x45047d00 ; undefined
    431c:	7c000007 	stur	h7, [x0]
    4320:	0004bc04 	.inst	0x0004bc04 ; undefined
    4324:	58047b00 	ldr	x0, d284 <_start-0x1f2d7c>
    4328:	7a00000b 	sbcs	w11, w0, w0
    432c:	000c9304 	.inst	0x000c9304 ; undefined
    4330:	47047900 	.inst	0x47047900 ; undefined
    4334:	78000008 	sturh	w8, [x0]
    4338:	00094a04 	.inst	0x00094a04 ; undefined
    433c:	05047700 	.inst	0x05047700 ; undefined
    4340:	76000005 	.inst	0x76000005 ; undefined
    4344:	00042004 	.inst	0x00042004 ; undefined
    4348:	1f047500 	fmadd	s0, s8, s4, s29
    434c:	7400000a 	.inst	0x7400000a ; undefined
    4350:	000d0704 	.inst	0x000d0704 ; undefined
    4354:	5d047300 	.inst	0x5d047300 ; undefined
    4358:	72000006 	ands	w6, w0, #0x1
    435c:	0009c304 	.inst	0x0009c304 ; undefined
    4360:	92047100 	and	x0, x8, #0xf1fffffff1ffffff
    4364:	70000003 	adr	x3, 4367 <_start-0x1fbc99>
    4368:	00040804 	.inst	0x00040804 ; undefined
    436c:	56186f00 	.inst	0x56186f00 ; undefined
    4370:	ff000008 	.inst	0xff000008 ; undefined
    4374:	ffffffff 	.inst	0xffffffff ; undefined
    4378:	007fffff 	.inst	0x007fffff ; undefined
    437c:	00065219 	.inst	0x00065219 ; undefined
    4380:	51040700 	sub	w0, w24, #0x101
    4384:	05000000 	orr	z0.s, z0.s, #0x1
    4388:	01430e08 	.inst	0x01430e08 ; undefined
    438c:	b5080000 	cbnz	x0, 1438c <_start-0x1ebc74>
    4390:	0000000c 	.inst	0x0000000c ; undefined
    4394:	0004ad08 	.inst	0x0004ad08 ; undefined
    4398:	f3080100 	.inst	0xf3080100 ; undefined
    439c:	02000009 	.inst	0x02000009 ; undefined
    43a0:	00095708 	.inst	0x00095708 ; undefined
    43a4:	c8080300 	stxr	w8, x0, [x24]
    43a8:	0400000c 	add	z12.b, p0/m, z12.b, z0.b
    43ac:	000a0708 	.inst	0x000a0708 ; undefined
    43b0:	4c080500 	.inst	0x4c080500 ; undefined
    43b4:	06000005 	.inst	0x06000005 ; undefined
    43b8:	000b8808 	.inst	0x000b8808 ; undefined
    43bc:	0d000700 	st1	{v0.b}[1], [x24]
    43c0:	00000d22 	.inst	0x00000d22 ; undefined
    43c4:	00031305 	.inst	0x00031305 ; undefined
    43c8:	10000001 	adr	x1, 43c8 <_start-0x1fbc38>
    43cc:	00000143 	.inst	0x00000143 ; undefined
    43d0:	0006861a 	.inst	0x0006861a ; undefined
    43d4:	59150500 	.inst	0x59150500 ; undefined
    43d8:	0000014f 	.inst	0x0000014f ; undefined
    43dc:	08010703 	stxrb	w1, w3, [x24]
    43e0:	00000184 	.inst	0x00000184 ; undefined
    43e4:	00016110 	.inst	0x00016110 ; undefined
    43e8:	0b0e1b00 	add	w0, w24, w14, lsl #6
    43ec:	20010000 	.inst	0x20010000 ; undefined
    43f0:	20411001 	.inst	0x20411001 ; undefined
    43f4:	00000000 	.inst	0x00000000 ; undefined
    43f8:	00014800 	.inst	0x00014800 ; undefined
    43fc:	00000000 	.inst	0x00000000 ; undefined
    4400:	969c0100 	bl	fffffffffa704800 <__sel4_ipc_buffer_obj+0xfffffffffa4fd800>
    4404:	1c00000d 	ldr	s13, 4404 <_start-0x1fbbfc>
    4408:	00727473 	.inst	0x00727473 ; undefined
    440c:	961c2001 	bl	fffffffff870c410 <__sel4_ipc_buffer_obj+0xfffffffff8505410>
    4410:	9c00000d 	ldr	q13, 4410 <_start-0x1fbbf0>
    4414:	96000007 	bl	fffffffff8004430 <__sel4_ipc_buffer_obj+0xfffffffff7dfd430>
    4418:	0e000007 	tbl	v7.8b, {v0.16b}, v0.8b
    441c:	0000052b 	.inst	0x0000052b ; undefined
    4420:	000d962d 	.inst	0x000d962d ; undefined
    4424:	0007ba00 	.inst	0x0007ba00 ; undefined
    4428:	0007b400 	.inst	0x0007b400 ; undefined
    442c:	0b830e00 	add	w0, w16, w3, asr #3
    4430:	4a370000 	eon	w0, w0, w23
    4434:	d6000000 	.inst	0xd6000000 ; undefined
    4438:	d2000007 	eor	x7, x0, #0x100000001
    443c:	0e000007 	tbl	v7.8b, {v0.16b}, v0.8b
    4440:	00000b75 	.inst	0x00000b75 ; undefined
    4444:	000d9649 	.inst	0x000d9649 ; undefined
    4448:	0007ed00 	.inst	0x0007ed00 ; undefined
    444c:	0007e700 	.inst	0x0007e700 ; undefined
    4450:	0d9b1d00 	st1	{v0.b}[7], [x8], x27
    4454:	41100000 	.inst	0x41100000 ; undefined
    4458:	00000020 	.inst	0x00000020 ; undefined
    445c:	00020000 	.inst	0x00020000 ; undefined
    4460:	000000f2 	.inst	0x000000f2 ; undefined
    4464:	83052201 	.inst	0x83052201 ; undefined
    4468:	01000003 	.inst	0x01000003 ; undefined
    446c:	00000da5 	.inst	0x00000da5 ; undefined
    4470:	0000080d 	.inst	0x0000080d ; undefined
    4474:	00000805 	.inst	0x00000805 ; undefined
    4478:	000db005 	.inst	0x000db005 ; undefined
    447c:	20412800 	.inst	0x20412800 ; undefined
    4480:	00000000 	.inst	0x00000000 ; undefined
    4484:	28000100 	stnp	w0, w0, [x8]
    4488:	00002041 	.inst	0x00002041 ; undefined
    448c:	20000000 	.inst	0x20000000 ; undefined
    4490:	00000000 	.inst	0x00000000 ; undefined
    4494:	19000000 	.inst	0x19000000 ; undefined
    4498:	0dba0109 	st2	{v9.b, v10.b}[0], [x8], x26
    449c:	08360000 	.inst	0x08360000 ; undefined
    44a0:	08340000 	.inst	0x08340000 ; undefined
    44a4:	c5050000 	ld1sw	{z0.d}, p0/z, [x0, z5.d, uxtw]
    44a8:	2800000d 	stnp	w13, w0, [x0]
    44ac:	00002041 	.inst	0x00002041 ; undefined
    44b0:	03000000 	.inst	0x03000000 ; undefined
    44b4:	20412800 	.inst	0x20412800 ; undefined
    44b8:	00000000 	.inst	0x00000000 ; undefined
    44bc:	00002000 	.inst	0x00002000 ; undefined
    44c0:	00000000 	.inst	0x00000000 ; undefined
    44c4:	01050f00 	.inst	0x01050f00 ; undefined
    44c8:	00000dd3 	.inst	0x00000dd3 ; undefined
    44cc:	00000845 	.inst	0x00000845 ; undefined
    44d0:	00000843 	.inst	0x00000843 ; undefined
    44d4:	000dde03 	.inst	0x000dde03 ; undefined
    44d8:	00085100 	.inst	0x00085100 ; undefined
    44dc:	00084d00 	.inst	0x00084d00 ; undefined
    44e0:	0de90300 	ld2	{v0.b, v1.b}[0], [x24], x9
    44e4:	08650000 	.inst	0x08650000 ; undefined
    44e8:	08610000 	.inst	0x08610000 ; undefined
    44ec:	f4030000 	.inst	0xf4030000 ; undefined
    44f0:	7900000d 	strh	w13, [x0]
    44f4:	75000008 	.inst	0x75000008 ; undefined
    44f8:	03000008 	.inst	0x03000008 ; undefined
    44fc:	00000dff 	.inst	0x00000dff ; undefined
    4500:	0000088d 	.inst	0x0000088d ; undefined
    4504:	00000889 	.inst	0x00000889 ; undefined
    4508:	000e0a03 	.inst	0x000e0a03 ; undefined
    450c:	0008a100 	.inst	0x0008a100 ; undefined
    4510:	00089d00 	.inst	0x00089d00 ; undefined
    4514:	0e150300 	tbl	v0.8b, {v24.16b}, v21.8b
    4518:	08b30000 	.inst	0x08b30000 ; undefined
    451c:	08b10000 	.inst	0x08b10000 ; undefined
    4520:	21090000 	.inst	0x21090000 ; undefined
    4524:	2800000e 	stnp	w14, w0, [x0]
    4528:	00002041 	.inst	0x00002041 ; undefined
    452c:	0b000000 	add	w0, w0, w0
    4530:	20412800 	.inst	0x20412800 ; undefined
    4534:	00000000 	.inst	0x00000000 ; undefined
    4538:	00002000 	.inst	0x00002000 ; undefined
    453c:	00000000 	.inst	0x00000000 ; undefined
    4540:	0e920100 	.inst	0x0e920100 ; undefined
    4544:	08be0000 	.inst	0x08be0000 ; undefined
    4548:	08bc0000 	.inst	0x08bc0000 ; undefined
    454c:	87010000 	.inst	0x87010000 ; undefined
    4550:	c900000e 	.inst	0xc900000e ; undefined
    4554:	c7000008 	.inst	0xc7000008 ; undefined
    4558:	01000008 	.inst	0x01000008 ; undefined
    455c:	00000e7c 	.inst	0x00000e7c ; undefined
    4560:	000008d8 	.inst	0x000008d8 ; undefined
    4564:	000008d6 	.inst	0x000008d6 ; undefined
    4568:	000e7101 	.inst	0x000e7101 ; undefined
    456c:	0008e700 	.inst	0x0008e700 ; undefined
    4570:	0008e500 	.inst	0x0008e500 ; undefined
    4574:	0e660100 	saddl	v0.4s, v8.4h, v6.4h
    4578:	08f60000 	.inst	0x08f60000 ; undefined
    457c:	08f40000 	.inst	0x08f40000 ; undefined
    4580:	5b010000 	.inst	0x5b010000 ; undefined
    4584:	0500000e 	orr	z14.s, z14.s, #0x1
    4588:	03000009 	.inst	0x03000009 ; undefined
    458c:	01000009 	.inst	0x01000009 ; undefined
    4590:	00000e50 	.inst	0x00000e50 ; undefined
    4594:	000008be 	.inst	0x000008be ; undefined
    4598:	000008bc 	.inst	0x000008bc ; undefined
    459c:	000e4501 	.inst	0x000e4501 ; undefined
    45a0:	00091400 	.inst	0x00091400 ; undefined
    45a4:	00091200 	.inst	0x00091200 ; undefined
    45a8:	0e3a0100 	saddl	v0.8h, v8.8b, v26.8b
    45ac:	09230000 	.inst	0x09230000 ; undefined
    45b0:	09210000 	.inst	0x09210000 ; undefined
    45b4:	2e010000 	ext	v0.8b, v0.8b, v1.8b, #0
    45b8:	3200000e 	orr	w14, w0, #0x1
    45bc:	30000009 	adr	x9, 45bd <_start-0x1fba43>
    45c0:	02000009 	.inst	0x02000009 ; undefined
    45c4:	00000e9d 	.inst	0x00000e9d ; undefined
    45c8:	a8025001 	stnp	x1, x20, [x0, #32]
    45cc:	0100000e 	.inst	0x0100000e ; undefined
    45d0:	0eb30251 	saddl	v17.2d, v18.2s, v19.2s
    45d4:	52010000 	eor	w0, w0, #0x80000000
    45d8:	000ebe02 	.inst	0x000ebe02 ; undefined
    45dc:	02530100 	.inst	0x02530100 ; undefined
    45e0:	00000ec9 	.inst	0x00000ec9 ; undefined
    45e4:	d4025401 	svc	#0x12a0
    45e8:	0100000e 	.inst	0x0100000e ; undefined
    45ec:	0edf0255 	.inst	0x0edf0255 ; undefined
    45f0:	56010000 	.inst	0x56010000 ; undefined
    45f4:	000eea02 	.inst	0x000eea02 ; undefined
    45f8:	00570100 	.inst	0x00570100 ; undefined
    45fc:	0c000000 	st4	{v0.8b-v3.8b}, [x0]
    4600:	00000d9b 	.inst	0x00000d9b ; undefined
    4604:	00204150 	.inst	0x00204150 ; NYI
    4608:	00000000 	.inst	0x00000000 ; undefined
    460c:	00000030 	.inst	0x00000030 ; undefined
    4610:	00000000 	.inst	0x00000000 ; undefined
    4614:	00053123 	.inst	0x00053123 ; undefined
    4618:	0da50100 	st2	{v0.b, v1.b}[0], [x8], x5
    461c:	09420000 	.inst	0x09420000 ; undefined
    4620:	093c0000 	.inst	0x093c0000 ; undefined
    4624:	b0050000 	adrp	x0, a005000 <__sel4_ipc_buffer_obj+0x9dfe000>
    4628:	5800000d 	ldr	x13, 4628 <_start-0x1fb9d8>
    462c:	00002041 	.inst	0x00002041 ; undefined
    4630:	01000000 	.inst	0x01000000 ; undefined
    4634:	20415800 	.inst	0x20415800 ; undefined
    4638:	00000000 	.inst	0x00000000 ; undefined
    463c:	00002000 	.inst	0x00002000 ; undefined
    4640:	00000000 	.inst	0x00000000 ; undefined
    4644:	01091900 	.inst	0x01091900 ; undefined
    4648:	00000dba 	.inst	0x00000dba ; undefined
    464c:	0000095c 	.inst	0x0000095c ; undefined
    4650:	0000095a 	.inst	0x0000095a ; undefined
    4654:	000dc505 	.inst	0x000dc505 ; undefined
    4658:	20415800 	.inst	0x20415800 ; undefined
    465c:	00000000 	.inst	0x00000000 ; undefined
    4660:	58000300 	ldr	x0, 46c0 <_start-0x1fb940>
    4664:	00002041 	.inst	0x00002041 ; undefined
    4668:	20000000 	.inst	0x20000000 ; undefined
    466c:	00000000 	.inst	0x00000000 ; undefined
    4670:	0f000000 	.inst	0x0f000000 ; undefined
    4674:	0dd30105 	ld1	{v5.b}[0], [x8], x19
    4678:	096b0000 	.inst	0x096b0000 ; undefined
    467c:	09690000 	.inst	0x09690000 ; undefined
    4680:	de030000 	.inst	0xde030000 ; undefined
    4684:	7700000d 	.inst	0x7700000d ; undefined
    4688:	73000009 	.inst	0x73000009 ; undefined
    468c:	03000009 	.inst	0x03000009 ; undefined
    4690:	00000de9 	.inst	0x00000de9 ; undefined
    4694:	0000098b 	.inst	0x0000098b ; undefined
    4698:	00000987 	.inst	0x00000987 ; undefined
    469c:	000df403 	.inst	0x000df403 ; undefined
    46a0:	00099f00 	.inst	0x00099f00 ; undefined
    46a4:	00099b00 	.inst	0x00099b00 ; undefined
    46a8:	0dff0300 	ld2	{v0.b, v1.b}[0], [x24], #2
    46ac:	09b30000 	.inst	0x09b30000 ; undefined
    46b0:	09af0000 	.inst	0x09af0000 ; undefined
    46b4:	0a030000 	and	w0, w0, w3
    46b8:	c700000e 	.inst	0xc700000e ; undefined
    46bc:	c3000009 	.inst	0xc3000009 ; undefined
    46c0:	03000009 	.inst	0x03000009 ; undefined
    46c4:	00000e15 	.inst	0x00000e15 ; undefined
    46c8:	000009d9 	.inst	0x000009d9 ; undefined
    46cc:	000009d7 	.inst	0x000009d7 ; undefined
    46d0:	000e2109 	.inst	0x000e2109 ; undefined
    46d4:	20415800 	.inst	0x20415800 ; undefined
    46d8:	00000000 	.inst	0x00000000 ; undefined
    46dc:	58000b00 	ldr	x0, 483c <_start-0x1fb7c4>
    46e0:	00002041 	.inst	0x00002041 ; undefined
    46e4:	20000000 	.inst	0x20000000 ; undefined
    46e8:	00000000 	.inst	0x00000000 ; undefined
    46ec:	01000000 	.inst	0x01000000 ; undefined
    46f0:	00000e92 	.inst	0x00000e92 ; undefined
    46f4:	000009e4 	.inst	0x000009e4 ; undefined
    46f8:	000009e2 	.inst	0x000009e2 ; undefined
    46fc:	000e8701 	.inst	0x000e8701 ; undefined
    4700:	0009ef00 	.inst	0x0009ef00 ; undefined
    4704:	0009ed00 	.inst	0x0009ed00 ; undefined
    4708:	0e7c0100 	saddl	v0.4s, v8.4h, v28.4h
    470c:	09fe0000 	.inst	0x09fe0000 ; undefined
    4710:	09fc0000 	.inst	0x09fc0000 ; undefined
    4714:	71010000 	subs	w0, w0, #0x40
    4718:	0d00000e 	st1	{v14.b}[0], [x0]
    471c:	0b00000a 	add	w10, w0, w0
    4720:	0100000a 	.inst	0x0100000a ; undefined
    4724:	00000e66 	.inst	0x00000e66 ; undefined
    4728:	00000a1c 	.inst	0x00000a1c ; undefined
    472c:	00000a1a 	.inst	0x00000a1a ; undefined
    4730:	000e5b01 	.inst	0x000e5b01 ; undefined
    4734:	000a2b00 	.inst	0x000a2b00 ; undefined
    4738:	000a2900 	.inst	0x000a2900 ; undefined
    473c:	0e500100 	.inst	0x0e500100 ; undefined
    4740:	09e40000 	.inst	0x09e40000 ; undefined
    4744:	09e20000 	.inst	0x09e20000 ; undefined
    4748:	45010000 	.inst	0x45010000 ; undefined
    474c:	3a00000e 	adcs	w14, w0, w0
    4750:	3800000a 	sturb	w10, [x0]
    4754:	0100000a 	.inst	0x0100000a ; undefined
    4758:	00000e3a 	.inst	0x00000e3a ; undefined
    475c:	00000a49 	.inst	0x00000a49 ; undefined
    4760:	00000a47 	.inst	0x00000a47 ; undefined
    4764:	000e2e01 	.inst	0x000e2e01 ; undefined
    4768:	000a5800 	.inst	0x000a5800 ; undefined
    476c:	000a5600 	.inst	0x000a5600 ; undefined
    4770:	0e9d0200 	.inst	0x0e9d0200 ; undefined
    4774:	50010000 	adr	x0, 6776 <_start-0x1f988a>
    4778:	000ea802 	.inst	0x000ea802 ; undefined
    477c:	02510100 	.inst	0x02510100 ; undefined
    4780:	00000eb3 	.inst	0x00000eb3 ; undefined
    4784:	be025201 	.inst	0xbe025201 ; undefined
    4788:	0100000e 	.inst	0x0100000e ; undefined
    478c:	0ec90253 	.inst	0x0ec90253 ; undefined
    4790:	54010000 	b.eq	6790 <_start-0x1f9870>  // b.none
    4794:	000ed402 	.inst	0x000ed402 ; undefined
    4798:	02550100 	.inst	0x02550100 ; undefined
    479c:	00000edf 	.inst	0x00000edf ; undefined
    47a0:	ea025601 	ands	x1, x16, x2, lsl #21
    47a4:	0100000e 	.inst	0x0100000e ; undefined
    47a8:	00000057 	.inst	0x00000057 ; undefined
    47ac:	0d9b0c00 	st1	{v0.b}[3], [x0], x27
    47b0:	41800000 	.inst	0x41800000 ; undefined
    47b4:	00000020 	.inst	0x00000020 ; undefined
    47b8:	00240000 	.inst	0x00240000 ; NYI
    47bc:	00000000 	.inst	0x00000000 ; undefined
    47c0:	df240000 	.inst	0xdf240000 ; undefined
    47c4:	01000006 	.inst	0x01000006 ; undefined
    47c8:	00000da5 	.inst	0x00000da5 ; undefined
    47cc:	00000a64 	.inst	0x00000a64 ; undefined
    47d0:	00000a62 	.inst	0x00000a62 ; undefined
    47d4:	000db005 	.inst	0x000db005 ; undefined
    47d8:	20418000 	.inst	0x20418000 ; undefined
    47dc:	00000000 	.inst	0x00000000 ; undefined
    47e0:	80000300 	.inst	0x80000300 ; undefined
    47e4:	00002041 	.inst	0x00002041 ; undefined
    47e8:	24000000 	cmphs	p0.b, p0/z, z0.b, z0.b
    47ec:	00000000 	.inst	0x00000000 ; undefined
    47f0:	19000000 	.inst	0x19000000 ; undefined
    47f4:	0dba0109 	st2	{v9.b, v10.b}[0], [x8], x26
    47f8:	0a730000 	bic	w0, w0, w19, lsr #0
    47fc:	0a710000 	bic	w0, w0, w17, lsr #0
    4800:	c5050000 	ld1sw	{z0.d}, p0/z, [x0, z5.d, uxtw]
    4804:	8000000d 	.inst	0x8000000d ; undefined
    4808:	00002041 	.inst	0x00002041 ; undefined
    480c:	05000000 	orr	z0.s, z0.s, #0x1
    4810:	20418000 	.inst	0x20418000 ; undefined
    4814:	00000000 	.inst	0x00000000 ; undefined
    4818:	00002400 	.inst	0x00002400 ; undefined
    481c:	00000000 	.inst	0x00000000 ; undefined
    4820:	01050f00 	.inst	0x01050f00 ; undefined
    4824:	00000dd3 	.inst	0x00000dd3 ; undefined
    4828:	00000a7f 	.inst	0x00000a7f ; undefined
    482c:	00000a7d 	.inst	0x00000a7d ; undefined
    4830:	000dde03 	.inst	0x000dde03 ; undefined
    4834:	000a8d00 	.inst	0x000a8d00 ; undefined
    4838:	000a8900 	.inst	0x000a8900 ; undefined
    483c:	0de90300 	ld2	{v0.b, v1.b}[0], [x24], x9
    4840:	0aa10000 	bic	w0, w0, w1, asr #0
    4844:	0a9d0000 	and	w0, w0, w29, asr #0
    4848:	f4030000 	.inst	0xf4030000 ; undefined
    484c:	b500000d 	cbnz	x13, 484c <_start-0x1fb7b4>
    4850:	b100000a 	adds	x10, x0, #0x0
    4854:	0300000a 	.inst	0x0300000a ; undefined
    4858:	00000dff 	.inst	0x00000dff ; undefined
    485c:	00000ac9 	.inst	0x00000ac9 ; undefined
    4860:	00000ac5 	.inst	0x00000ac5 ; undefined
    4864:	000e0a03 	.inst	0x000e0a03 ; undefined
    4868:	000add00 	.inst	0x000add00 ; undefined
    486c:	000ad900 	.inst	0x000ad900 ; undefined
    4870:	0e150300 	tbl	v0.8b, {v24.16b}, v21.8b
    4874:	0aef0000 	bic	w0, w0, w15, ror #0
    4878:	0aed0000 	bic	w0, w0, w13, ror #0
    487c:	21090000 	.inst	0x21090000 ; undefined
    4880:	8000000e 	.inst	0x8000000e ; undefined
    4884:	00002041 	.inst	0x00002041 ; undefined
    4888:	0d000000 	st1	{v0.b}[0], [x0]
    488c:	20418000 	.inst	0x20418000 ; undefined
    4890:	00000000 	.inst	0x00000000 ; undefined
    4894:	00002400 	.inst	0x00002400 ; undefined
    4898:	00000000 	.inst	0x00000000 ; undefined
    489c:	0e920100 	.inst	0x0e920100 ; undefined
    48a0:	0afa0000 	bic	w0, w0, w26, ror #0
    48a4:	0af80000 	bic	w0, w0, w24, ror #0
    48a8:	87010000 	.inst	0x87010000 ; undefined
    48ac:	0500000e 	orr	z14.s, z14.s, #0x1
    48b0:	0300000b 	.inst	0x0300000b ; undefined
    48b4:	0100000b 	.inst	0x0100000b ; undefined
    48b8:	00000e7c 	.inst	0x00000e7c ; undefined
    48bc:	00000b14 	.inst	0x00000b14 ; undefined
    48c0:	00000b12 	.inst	0x00000b12 ; undefined
    48c4:	000e7101 	.inst	0x000e7101 ; undefined
    48c8:	000b2300 	.inst	0x000b2300 ; undefined
    48cc:	000b2100 	.inst	0x000b2100 ; undefined
    48d0:	0e660100 	saddl	v0.4s, v8.4h, v6.4h
    48d4:	0b320000 	add	w0, w0, w18, uxtb
    48d8:	0b300000 	add	w0, w0, w16, uxtb
    48dc:	5b010000 	.inst	0x5b010000 ; undefined
    48e0:	4100000e 	.inst	0x4100000e ; undefined
    48e4:	3f00000b 	.inst	0x3f00000b ; undefined
    48e8:	0100000b 	.inst	0x0100000b ; undefined
    48ec:	00000e50 	.inst	0x00000e50 ; undefined
    48f0:	00000afa 	.inst	0x00000afa ; undefined
    48f4:	00000af8 	.inst	0x00000af8 ; undefined
    48f8:	000e4501 	.inst	0x000e4501 ; undefined
    48fc:	000b5000 	.inst	0x000b5000 ; undefined
    4900:	000b4e00 	.inst	0x000b4e00 ; undefined
    4904:	0e3a0100 	saddl	v0.8h, v8.8b, v26.8b
    4908:	0b5f0000 	add	w0, w0, wzr, lsr #0
    490c:	0b5d0000 	add	w0, w0, w29, lsr #0
    4910:	2e010000 	ext	v0.8b, v0.8b, v1.8b, #0
    4914:	6b00000e 	subs	w14, w0, w0
    4918:	6900000b 	.inst	0x6900000b ; undefined
    491c:	0200000b 	.inst	0x0200000b ; undefined
    4920:	00000e9d 	.inst	0x00000e9d ; undefined
    4924:	a8025001 	stnp	x1, x20, [x0, #32]
    4928:	0100000e 	.inst	0x0100000e ; undefined
    492c:	0eb30251 	saddl	v17.2d, v18.2s, v19.2s
    4930:	52010000 	eor	w0, w0, #0x80000000
    4934:	000ebe02 	.inst	0x000ebe02 ; undefined
    4938:	02530100 	.inst	0x02530100 ; undefined
    493c:	00000ec9 	.inst	0x00000ec9 ; undefined
    4940:	d4025401 	svc	#0x12a0
    4944:	0100000e 	.inst	0x0100000e ; undefined
    4948:	0edf0255 	.inst	0x0edf0255 ; undefined
    494c:	56010000 	.inst	0x56010000 ; undefined
    4950:	000eea02 	.inst	0x000eea02 ; undefined
    4954:	00570100 	.inst	0x00570100 ; undefined
    4958:	0c000000 	st4	{v0.8b-v3.8b}, [x0]
    495c:	00000d9b 	.inst	0x00000d9b ; undefined
    4960:	002041a4 	.inst	0x002041a4 ; NYI
    4964:	00000000 	.inst	0x00000000 ; undefined
    4968:	00000034 	.inst	0x00000034 ; undefined
    496c:	00000000 	.inst	0x00000000 ; undefined
    4970:	00088d25 	.inst	0x00088d25 ; undefined
    4974:	0da50100 	st2	{v0.b, v1.b}[0], [x8], x5
    4978:	0b7b0000 	.inst	0x0b7b0000 ; undefined
    497c:	0b750000 	.inst	0x0b750000 ; undefined
    4980:	b0050000 	adrp	x0, a005000 <__sel4_ipc_buffer_obj+0x9dfe000>
    4984:	b000000d 	adrp	x13, 5000 <_start-0x1fb000>
    4988:	00002041 	.inst	0x00002041 ; undefined
    498c:	01000000 	.inst	0x01000000 ; undefined
    4990:	2041b000 	.inst	0x2041b000 ; undefined
    4994:	00000000 	.inst	0x00000000 ; undefined
    4998:	00002000 	.inst	0x00002000 ; undefined
    499c:	00000000 	.inst	0x00000000 ; undefined
    49a0:	01091900 	.inst	0x01091900 ; undefined
    49a4:	00000dba 	.inst	0x00000dba ; undefined
    49a8:	00000b95 	.inst	0x00000b95 ; undefined
    49ac:	00000b93 	.inst	0x00000b93 ; undefined
    49b0:	000dc505 	.inst	0x000dc505 ; undefined
    49b4:	2041b000 	.inst	0x2041b000 ; undefined
    49b8:	00000000 	.inst	0x00000000 ; undefined
    49bc:	b0000300 	adrp	x0, 65000 <_start-0x19b000>
    49c0:	00002041 	.inst	0x00002041 ; undefined
    49c4:	20000000 	.inst	0x20000000 ; undefined
    49c8:	00000000 	.inst	0x00000000 ; undefined
    49cc:	0f000000 	.inst	0x0f000000 ; undefined
    49d0:	0dd30105 	ld1	{v5.b}[0], [x8], x19
    49d4:	0ba40000 	.inst	0x0ba40000 ; undefined
    49d8:	0ba20000 	.inst	0x0ba20000 ; undefined
    49dc:	de030000 	.inst	0xde030000 ; undefined
    49e0:	b000000d 	adrp	x13, 5000 <_start-0x1fb000>
    49e4:	ac00000b 	stnp	q11, q0, [x0]
    49e8:	0300000b 	.inst	0x0300000b ; undefined
    49ec:	00000de9 	.inst	0x00000de9 ; undefined
    49f0:	00000bc4 	.inst	0x00000bc4 ; undefined
    49f4:	00000bc0 	.inst	0x00000bc0 ; undefined
    49f8:	000df403 	.inst	0x000df403 ; undefined
    49fc:	000bd800 	.inst	0x000bd800 ; undefined
    4a00:	000bd400 	.inst	0x000bd400 ; undefined
    4a04:	0dff0300 	ld2	{v0.b, v1.b}[0], [x24], #2
    4a08:	0bec0000 	.inst	0x0bec0000 ; undefined
    4a0c:	0be80000 	.inst	0x0be80000 ; undefined
    4a10:	0a030000 	and	w0, w0, w3
    4a14:	0000000e 	.inst	0x0000000e ; undefined
    4a18:	fc00000c 	stur	d12, [x0]
    4a1c:	0300000b 	.inst	0x0300000b ; undefined
    4a20:	00000e15 	.inst	0x00000e15 ; undefined
    4a24:	00000c12 	.inst	0x00000c12 ; undefined
    4a28:	00000c10 	.inst	0x00000c10 ; undefined
    4a2c:	000e2109 	.inst	0x000e2109 ; undefined
    4a30:	2041b000 	.inst	0x2041b000 ; undefined
    4a34:	00000000 	.inst	0x00000000 ; undefined
    4a38:	b0000b00 	adrp	x0, 165000 <_start-0x9b000>
    4a3c:	00002041 	.inst	0x00002041 ; undefined
    4a40:	20000000 	.inst	0x20000000 ; undefined
    4a44:	00000000 	.inst	0x00000000 ; undefined
    4a48:	01000000 	.inst	0x01000000 ; undefined
    4a4c:	00000e92 	.inst	0x00000e92 ; undefined
    4a50:	00000c1d 	.inst	0x00000c1d ; undefined
    4a54:	00000c1b 	.inst	0x00000c1b ; undefined
    4a58:	000e8701 	.inst	0x000e8701 ; undefined
    4a5c:	000c2800 	.inst	0x000c2800 ; undefined
    4a60:	000c2600 	.inst	0x000c2600 ; undefined
    4a64:	0e7c0100 	saddl	v0.4s, v8.4h, v28.4h
    4a68:	0c370000 	.inst	0x0c370000 ; undefined
    4a6c:	0c350000 	.inst	0x0c350000 ; undefined
    4a70:	71010000 	subs	w0, w0, #0x40
    4a74:	4600000e 	.inst	0x4600000e ; undefined
    4a78:	4400000c 	.inst	0x4400000c ; undefined
    4a7c:	0100000c 	.inst	0x0100000c ; undefined
    4a80:	00000e66 	.inst	0x00000e66 ; undefined
    4a84:	00000c55 	.inst	0x00000c55 ; undefined
    4a88:	00000c53 	.inst	0x00000c53 ; undefined
    4a8c:	000e5b01 	.inst	0x000e5b01 ; undefined
    4a90:	000c6400 	.inst	0x000c6400 ; undefined
    4a94:	000c6200 	.inst	0x000c6200 ; undefined
    4a98:	0e500100 	.inst	0x0e500100 ; undefined
    4a9c:	0c1d0000 	.inst	0x0c1d0000 ; undefined
    4aa0:	0c1b0000 	.inst	0x0c1b0000 ; undefined
    4aa4:	45010000 	.inst	0x45010000 ; undefined
    4aa8:	7300000e 	.inst	0x7300000e ; undefined
    4aac:	7100000c 	subs	w12, w0, #0x0
    4ab0:	0100000c 	.inst	0x0100000c ; undefined
    4ab4:	00000e3a 	.inst	0x00000e3a ; undefined
    4ab8:	00000c82 	.inst	0x00000c82 ; undefined
    4abc:	00000c80 	.inst	0x00000c80 ; undefined
    4ac0:	000e2e01 	.inst	0x000e2e01 ; undefined
    4ac4:	000c9100 	.inst	0x000c9100 ; undefined
    4ac8:	000c8f00 	.inst	0x000c8f00 ; undefined
    4acc:	0e9d0200 	.inst	0x0e9d0200 ; undefined
    4ad0:	50010000 	adr	x0, 6ad2 <_start-0x1f952e>
    4ad4:	000ea802 	.inst	0x000ea802 ; undefined
    4ad8:	02510100 	.inst	0x02510100 ; undefined
    4adc:	00000eb3 	.inst	0x00000eb3 ; undefined
    4ae0:	be025201 	.inst	0xbe025201 ; undefined
    4ae4:	0100000e 	.inst	0x0100000e ; undefined
    4ae8:	0ec90253 	.inst	0x0ec90253 ; undefined
    4aec:	54010000 	b.eq	6aec <_start-0x1f9514>  // b.none
    4af0:	000ed402 	.inst	0x000ed402 ; undefined
    4af4:	02550100 	.inst	0x02550100 ; undefined
    4af8:	00000edf 	.inst	0x00000edf ; undefined
    4afc:	ea025601 	ands	x1, x16, x2, lsl #21
    4b00:	0100000e 	.inst	0x0100000e ; undefined
    4b04:	00000057 	.inst	0x00000057 ; undefined
    4b08:	0d9b0c00 	st1	{v0.b}[3], [x0], x27
    4b0c:	41d80000 	.inst	0x41d80000 ; undefined
    4b10:	00000020 	.inst	0x00000020 ; undefined
    4b14:	00240000 	.inst	0x00240000 ; NYI
    4b18:	00000000 	.inst	0x00000000 ; undefined
    4b1c:	3b260000 	.inst	0x3b260000 ; undefined
    4b20:	0100000a 	.inst	0x0100000a ; undefined
    4b24:	00000da5 	.inst	0x00000da5 ; undefined
    4b28:	00000c9d 	.inst	0x00000c9d ; undefined
    4b2c:	00000c9b 	.inst	0x00000c9b ; undefined
    4b30:	000db005 	.inst	0x000db005 ; undefined
    4b34:	2041d800 	.inst	0x2041d800 ; undefined
    4b38:	00000000 	.inst	0x00000000 ; undefined
    4b3c:	d8000300 	prfm	pldl1keep, 4b9c <_start-0x1fb464>
    4b40:	00002041 	.inst	0x00002041 ; undefined
    4b44:	24000000 	cmphs	p0.b, p0/z, z0.b, z0.b
    4b48:	00000000 	.inst	0x00000000 ; undefined
    4b4c:	19000000 	.inst	0x19000000 ; undefined
    4b50:	0dba0109 	st2	{v9.b, v10.b}[0], [x8], x26
    4b54:	0cac0000 	.inst	0x0cac0000 ; undefined
    4b58:	0caa0000 	.inst	0x0caa0000 ; undefined
    4b5c:	c5050000 	ld1sw	{z0.d}, p0/z, [x0, z5.d, uxtw]
    4b60:	d800000d 	prfm	plil3strm, 4b60 <_start-0x1fb4a0>
    4b64:	00002041 	.inst	0x00002041 ; undefined
    4b68:	05000000 	orr	z0.s, z0.s, #0x1
    4b6c:	2041d800 	.inst	0x2041d800 ; undefined
    4b70:	00000000 	.inst	0x00000000 ; undefined
    4b74:	00002400 	.inst	0x00002400 ; undefined
    4b78:	00000000 	.inst	0x00000000 ; undefined
    4b7c:	01050f00 	.inst	0x01050f00 ; undefined
    4b80:	00000dd3 	.inst	0x00000dd3 ; undefined
    4b84:	00000cb8 	.inst	0x00000cb8 ; undefined
    4b88:	00000cb6 	.inst	0x00000cb6 ; undefined
    4b8c:	000dde03 	.inst	0x000dde03 ; undefined
    4b90:	000cc600 	.inst	0x000cc600 ; undefined
    4b94:	000cc200 	.inst	0x000cc200 ; undefined
    4b98:	0de90300 	ld2	{v0.b, v1.b}[0], [x24], x9
    4b9c:	0cda0000 	ld4	{v0.8b-v3.8b}, [x0], x26
    4ba0:	0cd60000 	ld4	{v0.8b-v3.8b}, [x0], x22
    4ba4:	f4030000 	.inst	0xf4030000 ; undefined
    4ba8:	ee00000d 	.inst	0xee00000d ; undefined
    4bac:	ea00000c 	ands	x12, x0, x0
    4bb0:	0300000c 	.inst	0x0300000c ; undefined
    4bb4:	00000dff 	.inst	0x00000dff ; undefined
    4bb8:	00000d02 	.inst	0x00000d02 ; undefined
    4bbc:	00000cfe 	.inst	0x00000cfe ; undefined
    4bc0:	000e0a03 	.inst	0x000e0a03 ; undefined
    4bc4:	000d1600 	.inst	0x000d1600 ; undefined
    4bc8:	000d1200 	.inst	0x000d1200 ; undefined
    4bcc:	0e150300 	tbl	v0.8b, {v24.16b}, v21.8b
    4bd0:	0d280000 	.inst	0x0d280000 ; undefined
    4bd4:	0d260000 	.inst	0x0d260000 ; undefined
    4bd8:	21090000 	.inst	0x21090000 ; undefined
    4bdc:	d800000e 	prfm	#0x0e, 4bdc <_start-0x1fb424>
    4be0:	00002041 	.inst	0x00002041 ; undefined
    4be4:	0d000000 	st1	{v0.b}[0], [x0]
    4be8:	2041d800 	.inst	0x2041d800 ; undefined
    4bec:	00000000 	.inst	0x00000000 ; undefined
    4bf0:	00002400 	.inst	0x00002400 ; undefined
    4bf4:	00000000 	.inst	0x00000000 ; undefined
    4bf8:	0e920100 	.inst	0x0e920100 ; undefined
    4bfc:	0d330000 	.inst	0x0d330000 ; undefined
    4c00:	0d310000 	.inst	0x0d310000 ; undefined
    4c04:	87010000 	.inst	0x87010000 ; undefined
    4c08:	3e00000e 	.inst	0x3e00000e ; undefined
    4c0c:	3c00000d 	stur	b13, [x0]
    4c10:	0100000d 	.inst	0x0100000d ; undefined
    4c14:	00000e7c 	.inst	0x00000e7c ; undefined
    4c18:	00000d4d 	.inst	0x00000d4d ; undefined
    4c1c:	00000d4b 	.inst	0x00000d4b ; undefined
    4c20:	000e7101 	.inst	0x000e7101 ; undefined
    4c24:	000d5c00 	.inst	0x000d5c00 ; undefined
    4c28:	000d5a00 	.inst	0x000d5a00 ; undefined
    4c2c:	0e660100 	saddl	v0.4s, v8.4h, v6.4h
    4c30:	0d6b0000 	.inst	0x0d6b0000 ; undefined
    4c34:	0d690000 	.inst	0x0d690000 ; undefined
    4c38:	5b010000 	.inst	0x5b010000 ; undefined
    4c3c:	7a00000e 	sbcs	w14, w0, w0
    4c40:	7800000d 	sturh	w13, [x0]
    4c44:	0100000d 	.inst	0x0100000d ; undefined
    4c48:	00000e50 	.inst	0x00000e50 ; undefined
    4c4c:	00000d33 	.inst	0x00000d33 ; undefined
    4c50:	00000d31 	.inst	0x00000d31 ; undefined
    4c54:	000e4501 	.inst	0x000e4501 ; undefined
    4c58:	000d8900 	.inst	0x000d8900 ; undefined
    4c5c:	000d8700 	.inst	0x000d8700 ; undefined
    4c60:	0e3a0100 	saddl	v0.8h, v8.8b, v26.8b
    4c64:	0d980000 	st1	{v0.b}[0], [x0], x24
    4c68:	0d960000 	st1	{v0.b}[0], [x0], x22
    4c6c:	2e010000 	ext	v0.8b, v0.8b, v1.8b, #0
    4c70:	a400000e 	ld1rqb	{z14.b}, p0/z, [x0, x0]
    4c74:	a200000d 	.inst	0xa200000d ; undefined
    4c78:	0200000d 	.inst	0x0200000d ; undefined
    4c7c:	00000e9d 	.inst	0x00000e9d ; undefined
    4c80:	a8025001 	stnp	x1, x20, [x0, #32]
    4c84:	0100000e 	.inst	0x0100000e ; undefined
    4c88:	0eb30251 	saddl	v17.2d, v18.2s, v19.2s
    4c8c:	52010000 	eor	w0, w0, #0x80000000
    4c90:	000ebe02 	.inst	0x000ebe02 ; undefined
    4c94:	02530100 	.inst	0x02530100 ; undefined
    4c98:	00000ec9 	.inst	0x00000ec9 ; undefined
    4c9c:	d4025401 	svc	#0x12a0
    4ca0:	0100000e 	.inst	0x0100000e ; undefined
    4ca4:	0edf0255 	.inst	0x0edf0255 ; undefined
    4ca8:	56010000 	.inst	0x56010000 ; undefined
    4cac:	000eea02 	.inst	0x000eea02 ; undefined
    4cb0:	00570100 	.inst	0x00570100 ; undefined
    4cb4:	0c000000 	st4	{v0.8b-v3.8b}, [x0]
    4cb8:	00000d9b 	.inst	0x00000d9b ; undefined
    4cbc:	002041fc 	.inst	0x002041fc ; NYI
    4cc0:	00000000 	.inst	0x00000000 ; undefined
    4cc4:	00000034 	.inst	0x00000034 ; undefined
    4cc8:	00000000 	.inst	0x00000000 ; undefined
    4ccc:	000be927 	.inst	0x000be927 ; undefined
    4cd0:	0da50100 	st2	{v0.b, v1.b}[0], [x8], x5
    4cd4:	0db40000 	st2	{v0.b, v1.b}[0], [x0], x20
    4cd8:	0dae0000 	st2	{v0.b, v1.b}[0], [x0], x14
    4cdc:	b0050000 	adrp	x0, a005000 <__sel4_ipc_buffer_obj+0x9dfe000>
    4ce0:	0800000d 	stxrb	w0, w13, [x0]
    4ce4:	00002042 	.inst	0x00002042 ; undefined
    4ce8:	01000000 	.inst	0x01000000 ; undefined
    4cec:	20420800 	.inst	0x20420800 ; undefined
    4cf0:	00000000 	.inst	0x00000000 ; undefined
    4cf4:	00002000 	.inst	0x00002000 ; undefined
    4cf8:	00000000 	.inst	0x00000000 ; undefined
    4cfc:	01091900 	.inst	0x01091900 ; undefined
    4d00:	00000dba 	.inst	0x00000dba ; undefined
    4d04:	00000dce 	.inst	0x00000dce ; undefined
    4d08:	00000dcc 	.inst	0x00000dcc ; undefined
    4d0c:	000dc505 	.inst	0x000dc505 ; undefined
    4d10:	20420800 	.inst	0x20420800 ; undefined
    4d14:	00000000 	.inst	0x00000000 ; undefined
    4d18:	08000300 	stxrb	w0, w0, [x24]
    4d1c:	00002042 	.inst	0x00002042 ; undefined
    4d20:	20000000 	.inst	0x20000000 ; undefined
    4d24:	00000000 	.inst	0x00000000 ; undefined
    4d28:	0f000000 	.inst	0x0f000000 ; undefined
    4d2c:	0dd30105 	ld1	{v5.b}[0], [x8], x19
    4d30:	0ddd0000 	ld1	{v0.b}[0], [x0], x29
    4d34:	0ddb0000 	ld1	{v0.b}[0], [x0], x27
    4d38:	de030000 	.inst	0xde030000 ; undefined
    4d3c:	e900000d 	.inst	0xe900000d ; undefined
    4d40:	e500000d 	.inst	0xe500000d ; undefined
    4d44:	0300000d 	.inst	0x0300000d ; undefined
    4d48:	00000de9 	.inst	0x00000de9 ; undefined
    4d4c:	00000dfd 	.inst	0x00000dfd ; undefined
    4d50:	00000df9 	.inst	0x00000df9 ; undefined
    4d54:	000df403 	.inst	0x000df403 ; undefined
    4d58:	000e1100 	.inst	0x000e1100 ; undefined
    4d5c:	000e0d00 	.inst	0x000e0d00 ; undefined
    4d60:	0dff0300 	ld2	{v0.b, v1.b}[0], [x24], #2
    4d64:	0e250000 	saddl	v0.8h, v0.8b, v5.8b
    4d68:	0e210000 	saddl	v0.8h, v0.8b, v1.8b
    4d6c:	0a030000 	and	w0, w0, w3
    4d70:	3900000e 	strb	w14, [x0]
    4d74:	3500000e 	cbnz	w14, 4d74 <_start-0x1fb28c>
    4d78:	0300000e 	.inst	0x0300000e ; undefined
    4d7c:	00000e15 	.inst	0x00000e15 ; undefined
    4d80:	00000e4b 	.inst	0x00000e4b ; undefined
    4d84:	00000e49 	.inst	0x00000e49 ; undefined
    4d88:	000e2109 	.inst	0x000e2109 ; undefined
    4d8c:	20420800 	.inst	0x20420800 ; undefined
    4d90:	00000000 	.inst	0x00000000 ; undefined
    4d94:	08000b00 	stxrb	w0, w0, [x24]
    4d98:	00002042 	.inst	0x00002042 ; undefined
    4d9c:	20000000 	.inst	0x20000000 ; undefined
    4da0:	00000000 	.inst	0x00000000 ; undefined
    4da4:	01000000 	.inst	0x01000000 ; undefined
    4da8:	00000e92 	.inst	0x00000e92 ; undefined
    4dac:	00000e56 	.inst	0x00000e56 ; undefined
    4db0:	00000e54 	.inst	0x00000e54 ; undefined
    4db4:	000e8701 	.inst	0x000e8701 ; undefined
    4db8:	000e6100 	.inst	0x000e6100 ; undefined
    4dbc:	000e5f00 	.inst	0x000e5f00 ; undefined
    4dc0:	0e7c0100 	saddl	v0.4s, v8.4h, v28.4h
    4dc4:	0e700000 	saddl	v0.4s, v0.4h, v16.4h
    4dc8:	0e6e0000 	saddl	v0.4s, v0.4h, v14.4h
    4dcc:	71010000 	subs	w0, w0, #0x40
    4dd0:	7f00000e 	.inst	0x7f00000e ; undefined
    4dd4:	7d00000e 	str	h14, [x0]
    4dd8:	0100000e 	.inst	0x0100000e ; undefined
    4ddc:	00000e66 	.inst	0x00000e66 ; undefined
    4de0:	00000e8e 	.inst	0x00000e8e ; undefined
    4de4:	00000e8c 	.inst	0x00000e8c ; undefined
    4de8:	000e5b01 	.inst	0x000e5b01 ; undefined
    4dec:	000e9d00 	.inst	0x000e9d00 ; undefined
    4df0:	000e9b00 	.inst	0x000e9b00 ; undefined
    4df4:	0e500100 	.inst	0x0e500100 ; undefined
    4df8:	0e560000 	.inst	0x0e560000 ; undefined
    4dfc:	0e540000 	.inst	0x0e540000 ; undefined
    4e00:	45010000 	.inst	0x45010000 ; undefined
    4e04:	ac00000e 	stnp	q14, q0, [x0]
    4e08:	aa00000e 	orr	x14, x0, x0
    4e0c:	0100000e 	.inst	0x0100000e ; undefined
    4e10:	00000e3a 	.inst	0x00000e3a ; undefined
    4e14:	00000ebb 	.inst	0x00000ebb ; undefined
    4e18:	00000eb9 	.inst	0x00000eb9 ; undefined
    4e1c:	000e2e01 	.inst	0x000e2e01 ; undefined
    4e20:	000eca00 	.inst	0x000eca00 ; undefined
    4e24:	000ec800 	.inst	0x000ec800 ; undefined
    4e28:	0e9d0200 	.inst	0x0e9d0200 ; undefined
    4e2c:	50010000 	adr	x0, 6e2e <_start-0x1f91d2>
    4e30:	000ea802 	.inst	0x000ea802 ; undefined
    4e34:	02510100 	.inst	0x02510100 ; undefined
    4e38:	00000eb3 	.inst	0x00000eb3 ; undefined
    4e3c:	be025201 	.inst	0xbe025201 ; undefined
    4e40:	0100000e 	.inst	0x0100000e ; undefined
    4e44:	0ec90253 	.inst	0x0ec90253 ; undefined
    4e48:	54010000 	b.eq	6e48 <_start-0x1f91b8>  // b.none
    4e4c:	000ed402 	.inst	0x000ed402 ; undefined
    4e50:	02550100 	.inst	0x02550100 ; undefined
    4e54:	00000edf 	.inst	0x00000edf ; undefined
    4e58:	ea025601 	ands	x1, x16, x2, lsl #21
    4e5c:	0100000e 	.inst	0x0100000e ; undefined
    4e60:	00000057 	.inst	0x00000057 ; undefined
    4e64:	0d9b1e00 	st1	{v0.b}[7], [x16], x27
    4e68:	42300000 	.inst	0x42300000 ; undefined
    4e6c:	00000020 	.inst	0x00000020 ; undefined
    4e70:	00240000 	.inst	0x00240000 ; NYI
    4e74:	00000000 	.inst	0x00000000 ; undefined
    4e78:	28010000 	stnp	w0, w0, [x0, #8]
    4e7c:	0da50105 	st2	{v5.b, v6.b}[0], [x8], x5
    4e80:	0ed60000 	.inst	0x0ed60000 ; undefined
    4e84:	0ed40000 	.inst	0x0ed40000 ; undefined
    4e88:	b0050000 	adrp	x0, a005000 <__sel4_ipc_buffer_obj+0x9dfe000>
    4e8c:	3000000d 	adr	x13, 4e8d <_start-0x1fb173>
    4e90:	00002042 	.inst	0x00002042 ; undefined
    4e94:	03000000 	.inst	0x03000000 ; undefined
    4e98:	20423000 	.inst	0x20423000 ; undefined
    4e9c:	00000000 	.inst	0x00000000 ; undefined
    4ea0:	00002400 	.inst	0x00002400 ; undefined
    4ea4:	00000000 	.inst	0x00000000 ; undefined
    4ea8:	01091900 	.inst	0x01091900 ; undefined
    4eac:	00000dba 	.inst	0x00000dba ; undefined
    4eb0:	00000ee5 	.inst	0x00000ee5 ; undefined
    4eb4:	00000ee3 	.inst	0x00000ee3 ; undefined
    4eb8:	000dc505 	.inst	0x000dc505 ; undefined
    4ebc:	20423000 	.inst	0x20423000 ; undefined
    4ec0:	00000000 	.inst	0x00000000 ; undefined
    4ec4:	30000500 	adr	x0, 4f65 <_start-0x1fb09b>
    4ec8:	00002042 	.inst	0x00002042 ; undefined
    4ecc:	24000000 	cmphs	p0.b, p0/z, z0.b, z0.b
    4ed0:	00000000 	.inst	0x00000000 ; undefined
    4ed4:	0f000000 	.inst	0x0f000000 ; undefined
    4ed8:	0dd30105 	ld1	{v5.b}[0], [x8], x19
    4edc:	0ef00000 	.inst	0x0ef00000 ; undefined
    4ee0:	0eee0000 	.inst	0x0eee0000 ; undefined
    4ee4:	de030000 	.inst	0xde030000 ; undefined
    4ee8:	fd00000d 	str	d13, [x0]
    4eec:	f900000e 	str	x14, [x0]
    4ef0:	0300000e 	.inst	0x0300000e ; undefined
    4ef4:	00000de9 	.inst	0x00000de9 ; undefined
    4ef8:	00000f11 	.inst	0x00000f11 ; undefined
    4efc:	00000f0d 	.inst	0x00000f0d ; undefined
    4f00:	000df403 	.inst	0x000df403 ; undefined
    4f04:	000f2500 	.inst	0x000f2500 ; undefined
    4f08:	000f2100 	.inst	0x000f2100 ; undefined
    4f0c:	0dff0300 	ld2	{v0.b, v1.b}[0], [x24], #2
    4f10:	0f390000 	.inst	0x0f390000 ; undefined
    4f14:	0f350000 	.inst	0x0f350000 ; undefined
    4f18:	0a030000 	and	w0, w0, w3
    4f1c:	4d00000e 	st1	{v14.b}[8], [x0]
    4f20:	4900000f 	.inst	0x4900000f ; undefined
    4f24:	0300000f 	.inst	0x0300000f ; undefined
    4f28:	00000e15 	.inst	0x00000e15 ; undefined
    4f2c:	00000f5f 	.inst	0x00000f5f ; undefined
    4f30:	00000f5d 	.inst	0x00000f5d ; undefined
    4f34:	000e2109 	.inst	0x000e2109 ; undefined
    4f38:	20423000 	.inst	0x20423000 ; undefined
    4f3c:	00000000 	.inst	0x00000000 ; undefined
    4f40:	30000d00 	adr	x0, 50e1 <_start-0x1faf1f>
    4f44:	00002042 	.inst	0x00002042 ; undefined
    4f48:	24000000 	cmphs	p0.b, p0/z, z0.b, z0.b
    4f4c:	00000000 	.inst	0x00000000 ; undefined
    4f50:	01000000 	.inst	0x01000000 ; undefined
    4f54:	00000e92 	.inst	0x00000e92 ; undefined
    4f58:	00000f6a 	.inst	0x00000f6a ; undefined
    4f5c:	00000f68 	.inst	0x00000f68 ; undefined
    4f60:	000e8701 	.inst	0x000e8701 ; undefined
    4f64:	000f7500 	.inst	0x000f7500 ; undefined
    4f68:	000f7300 	.inst	0x000f7300 ; undefined
    4f6c:	0e7c0100 	saddl	v0.4s, v8.4h, v28.4h
    4f70:	0f840000 	.inst	0x0f840000 ; undefined
    4f74:	0f820000 	.inst	0x0f820000 ; undefined
    4f78:	71010000 	subs	w0, w0, #0x40
    4f7c:	9300000e 	.inst	0x9300000e ; undefined
    4f80:	9100000f 	add	x15, x0, #0x0
    4f84:	0100000f 	.inst	0x0100000f ; undefined
    4f88:	00000e66 	.inst	0x00000e66 ; undefined
    4f8c:	00000fa2 	.inst	0x00000fa2 ; undefined
    4f90:	00000fa0 	.inst	0x00000fa0 ; undefined
    4f94:	000e5b01 	.inst	0x000e5b01 ; undefined
    4f98:	000fb100 	.inst	0x000fb100 ; undefined
    4f9c:	000faf00 	.inst	0x000faf00 ; undefined
    4fa0:	0e500100 	.inst	0x0e500100 ; undefined
    4fa4:	0f6a0000 	.inst	0x0f6a0000 ; undefined
    4fa8:	0f680000 	.inst	0x0f680000 ; undefined
    4fac:	45010000 	.inst	0x45010000 ; undefined
    4fb0:	c000000e 	.inst	0xc000000e ; undefined
    4fb4:	be00000f 	.inst	0xbe00000f ; undefined
    4fb8:	0100000f 	.inst	0x0100000f ; undefined
    4fbc:	00000e3a 	.inst	0x00000e3a ; undefined
    4fc0:	00000fcf 	.inst	0x00000fcf ; undefined
    4fc4:	00000fcd 	.inst	0x00000fcd ; undefined
    4fc8:	000e2e01 	.inst	0x000e2e01 ; undefined
    4fcc:	000fda00 	.inst	0x000fda00 ; undefined
    4fd0:	000fd800 	.inst	0x000fd800 ; undefined
    4fd4:	0e9d0200 	.inst	0x0e9d0200 ; undefined
    4fd8:	50010000 	adr	x0, 6fda <_start-0x1f9026>
    4fdc:	000ea802 	.inst	0x000ea802 ; undefined
    4fe0:	02510100 	.inst	0x02510100 ; undefined
    4fe4:	00000eb3 	.inst	0x00000eb3 ; undefined
    4fe8:	be025201 	.inst	0xbe025201 ; undefined
    4fec:	0100000e 	.inst	0x0100000e ; undefined
    4ff0:	0ec90253 	.inst	0x0ec90253 ; undefined
    4ff4:	54010000 	b.eq	6ff4 <_start-0x1f900c>  // b.none
    4ff8:	000ed402 	.inst	0x000ed402 ; undefined
    4ffc:	02550100 	.inst	0x02550100 ; undefined
    5000:	00000edf 	.inst	0x00000edf ; undefined
    5004:	ea025601 	ands	x1, x16, x2, lsl #21
    5008:	0100000e 	.inst	0x0100000e ; undefined
    500c:	00000057 	.inst	0x00000057 ; undefined
    5010:	68110000 	.inst	0x68110000 ; undefined
    5014:	12000001 	and	w1, w0, #0x1
    5018:	00000ba4 	.inst	0x00000ba4 ; undefined
    501c:	000db016 	.inst	0x000db016 ; undefined
    5020:	00730f00 	.inst	0x00730f00 ; undefined
    5024:	961f1601 	bl	fffffffff87ca828 <__sel4_ipc_buffer_obj+0xfffffffff85c3828>
    5028:	0000000d 	.inst	0x0000000d ; undefined
    502c:	000b4612 	.inst	0x000b4612 ; undefined
    5030:	0dc50c00 	ld1	{v0.b}[3], [x0], x5
    5034:	630f0000 	.inst	0x630f0000 ; undefined
    5038:	170c0100 	b	fffffffffc305438 <__sel4_ipc_buffer_obj+0xfffffffffc0fe438>
    503c:	0000004a 	.inst	0x0000004a ; undefined
    5040:	151a1f00 	b	468cc40 <__sel4_ipc_buffer_obj+0x4485c40>
    5044:	3f020000 	.inst	0x3f020000 ; undefined
    5048:	21031a02 	.inst	0x21031a02 ; undefined
    504c:	2000000e 	.inst	0x2000000e ; undefined
    5050:	3f020063 	.inst	0x3f020063 ; undefined
    5054:	01613102 	.inst	0x01613102 ; undefined
    5058:	2c0b0000 	stnp	s0, s0, [x0, #88]
    505c:	41000015 	.inst	0x41000015 ; undefined
    5060:	00007202 	.inst	0x00007202 ; undefined
    5064:	15340b00 	b	4d07c64 <__sel4_ipc_buffer_obj+0x4b00c64>
    5068:	02420000 	.inst	0x02420000 ; undefined
    506c:	00000072 	.inst	0x00000072 ; undefined
    5070:	00153c0b 	.inst	0x00153c0b ; undefined
    5074:	72024300 	ands	w0, w24, #0xc0007fff
    5078:	0b000000 	add	w0, w0, w0
    507c:	00001544 	.inst	0x00001544 ; undefined
    5080:	00720244 	.inst	0x00720244 ; undefined
    5084:	4c0b0000 	.inst	0x4c0b0000 ; undefined
    5088:	45000015 	.inst	0x45000015 ; undefined
    508c:	00007202 	.inst	0x00007202 ; undefined
    5090:	15540b00 	b	5507c90 <__sel4_ipc_buffer_obj+0x5300c90>
    5094:	02460000 	.inst	0x02460000 ; undefined
    5098:	00000072 	.inst	0x00000072 ; undefined
    509c:	0c5d2100 	.inst	0x0c5d2100 ; undefined
    50a0:	92030000 	and	x0, x0, #0x2000000020000000
    50a4:	0ef60314 	.inst	0x0ef60314 ; undefined
    50a8:	730f0000 	.inst	0x730f0000 ; undefined
    50ac:	03007379 	.inst	0x03007379 ; undefined
    50b0:	00723092 	.inst	0x00723092 ; undefined
    50b4:	54060000 	b.eq	110b4 <_start-0x1eef4c>  // b.none
    50b8:	9200000d 	and	x13, x0, #0x100000001
    50bc:	0000723f 	.inst	0x0000723f ; undefined
    50c0:	0ca00600 	.inst	0x0ca00600 ; undefined
    50c4:	50920000 	adr	x0, fffffffffff290c6 <__sel4_ipc_buffer_obj+0xffffffffffd220c6>
    50c8:	00000ef6 	.inst	0x00000ef6 ; undefined
    50cc:	000b6c06 	.inst	0x000b6c06 ; undefined
    50d0:	72659200 	.inst	0x72659200 ; undefined
    50d4:	06000000 	.inst	0x06000000 ; undefined
    50d8:	00000480 	.inst	0x00000480 ; undefined
    50dc:	0ef63193 	.inst	0x0ef63193 ; undefined
    50e0:	3b060000 	.inst	0x3b060000 ; undefined
    50e4:	9300000b 	.inst	0x9300000b ; undefined
    50e8:	000ef646 	.inst	0x000ef646 ; undefined
    50ec:	03c70600 	.inst	0x03c70600 ; undefined
    50f0:	5d930000 	.inst	0x5d930000 ; undefined
    50f4:	00000ef6 	.inst	0x00000ef6 ; undefined
    50f8:	0003d206 	.inst	0x0003d206 ; undefined
    50fc:	f6749300 	.inst	0xf6749300 ; undefined
    5100:	0600000e 	.inst	0x0600000e ; undefined
    5104:	000003dd 	.inst	0x000003dd ; undefined
    5108:	0ef68b93 	.inst	0x0ef68b93 ; undefined
    510c:	cb060000 	sub	x0, x0, x6
    5110:	94000013 	bl	515c <_start-0x1faea4>
    5114:	0000723f 	.inst	0x0000723f ; undefined
    5118:	064a0a00 	.inst	0x064a0a00 ; undefined
    511c:	18960000 	ldr	w0, fffffffffff3111c <__sel4_ipc_buffer_obj+0xffffffffffd2a11c>
    5120:	00000072 	.inst	0x00000072 ; undefined
    5124:	0004840a 	.inst	0x0004840a ; undefined
    5128:	72189700 	ands	w0, w24, #0x3f003f00
    512c:	0a000000 	and	w0, w0, w0
    5130:	00000bdd 	.inst	0x00000bdd ; undefined
    5134:	0072189a 	.inst	0x0072189a ; undefined
    5138:	670a0000 	.inst	0x670a0000 ; undefined
    513c:	9b00000b 	madd	x11, x0, x0, x0
    5140:	00007218 	.inst	0x00007218 ; undefined
    5144:	0bff0a00 	.inst	0x0bff0a00 ; undefined
    5148:	189c0000 	ldr	w0, fffffffffff3d148 <__sel4_ipc_buffer_obj+0xffffffffffd36148>
    514c:	00000072 	.inst	0x00000072 ; undefined
    5150:	000c040a 	.inst	0x000c040a ; undefined
    5154:	72189d00 	ands	w0, w8, #0xff00ff00
    5158:	0a000000 	and	w0, w0, w0
    515c:	00000c09 	.inst	0x00000c09 ; undefined
    5160:	0072059e 	.inst	0x0072059e ; undefined
    5164:	7e0a0000 	.inst	0x7e0a0000 ; undefined
    5168:	a100000b 	.inst	0xa100000b ; undefined
    516c:	00007218 	.inst	0x00007218 ; undefined
    5170:	72110000 	ands	w0, w0, #0x8000
    5174:	13000000 	sbfx	w0, w0, #0, #1
    5178:	00000db0 	.inst	0x00000db0 ; undefined
    517c:	002040a0 	.inst	0x002040a0 ; NYI
    5180:	00000000 	.inst	0x00000000 ; undefined
    5184:	00000028 	.inst	0x00000028 ; undefined
    5188:	00000000 	.inst	0x00000000 ; undefined
    518c:	10799c01 	adr	x1, f850c <_start-0x107af4>
    5190:	ba010000 	adcs	x0, x0, x1
    5194:	e800000d 	.inst	0xe800000d ; undefined
    5198:	e400000f 	.inst	0xe400000f ; undefined
    519c:	0500000f 	orr	z15.s, z15.s, #0x1
    51a0:	00000dc5 	.inst	0x00000dc5 ; undefined
    51a4:	002040a0 	.inst	0x002040a0 ; NYI
    51a8:	00000000 	.inst	0x00000000 ; undefined
    51ac:	40a00002 	.inst	0x40a00002 ; undefined
    51b0:	00000020 	.inst	0x00000020 ; undefined
    51b4:	00240000 	.inst	0x00240000 ; NYI
    51b8:	00000000 	.inst	0x00000000 ; undefined
    51bc:	050f0000 	.inst	0x050f0000 ; undefined
    51c0:	000dd301 	.inst	0x000dd301 ; undefined
    51c4:	000ffa00 	.inst	0x000ffa00 ; undefined
    51c8:	000ff600 	.inst	0x000ff600 ; undefined
    51cc:	0dde0300 	ld1	{v0.b}[0], [x24], x30
    51d0:	100c0000 	adr	x0, 1d1d0 <_start-0x1e2e30>
    51d4:	10080000 	adr	x0, 151d4 <_start-0x1eae2c>
    51d8:	e9030000 	.inst	0xe9030000 ; undefined
    51dc:	1c00000d 	ldr	s13, 51dc <_start-0x1fae24>
    51e0:	18000010 	ldr	w16, 51e0 <_start-0x1fae20>
    51e4:	03000010 	.inst	0x03000010 ; undefined
    51e8:	00000df4 	.inst	0x00000df4 ; undefined
    51ec:	0000102c 	.inst	0x0000102c ; undefined
    51f0:	00001028 	.inst	0x00001028 ; undefined
    51f4:	000dff03 	.inst	0x000dff03 ; undefined
    51f8:	00103c00 	.inst	0x00103c00 ; undefined
    51fc:	00103800 	.inst	0x00103800 ; undefined
    5200:	0e0a0300 	tbl	v0.8b, {v24.16b}, v10.8b
    5204:	104c0000 	adr	x0, 9d204 <_start-0x162dfc>
    5208:	10480000 	adr	x0, 95208 <_start-0x16adf8>
    520c:	15030000 	b	40c520c <__sel4_ipc_buffer_obj+0x3ebe20c>
    5210:	5a00000e 	sbc	w14, w0, w0
    5214:	58000010 	ldr	x16, 5214 <_start-0x1fadec>
    5218:	22000010 	.inst	0x22000010 ; undefined
    521c:	00000e21 	.inst	0x00000e21 ; undefined
    5220:	002040a0 	.inst	0x002040a0 ; NYI
    5224:	00000000 	.inst	0x00000000 ; undefined
    5228:	00eb000a 	.inst	0x00eb000a ; undefined
    522c:	48020000 	stxrh	w2, w0, [x0]
    5230:	92010502 	and	x2, x8, #0x8000000180000001
    5234:	6300000e 	.inst	0x6300000e ; undefined
    5238:	61000010 	.inst	0x61000010 ; undefined
    523c:	01000010 	.inst	0x01000010 ; undefined
    5240:	00000e87 	.inst	0x00000e87 ; undefined
    5244:	0000106c 	.inst	0x0000106c ; undefined
    5248:	0000106a 	.inst	0x0000106a ; undefined
    524c:	000e7c01 	.inst	0x000e7c01 ; undefined
    5250:	00107900 	.inst	0x00107900 ; undefined
    5254:	00107700 	.inst	0x00107700 ; undefined
    5258:	0e710100 	saddl	v0.4s, v8.4h, v17.4h
    525c:	10860000 	adr	x0, fffffffffff1125c <__sel4_ipc_buffer_obj+0xffffffffffd0a25c>
    5260:	10840000 	adr	x0, fffffffffff0d260 <__sel4_ipc_buffer_obj+0xffffffffffd06260>
    5264:	66010000 	.inst	0x66010000 ; undefined
    5268:	9300000e 	.inst	0x9300000e ; undefined
    526c:	91000010 	add	x16, x0, #0x0
    5270:	01000010 	.inst	0x01000010 ; undefined
    5274:	00000e5b 	.inst	0x00000e5b ; undefined
    5278:	000010a0 	.inst	0x000010a0 ; undefined
    527c:	0000109e 	.inst	0x0000109e ; undefined
    5280:	000e5001 	.inst	0x000e5001 ; undefined
    5284:	00106300 	.inst	0x00106300 ; undefined
    5288:	00106100 	.inst	0x00106100 ; undefined
    528c:	0e450100 	.inst	0x0e450100 ; undefined
    5290:	10ad0000 	adr	x0, fffffffffff5f290 <__sel4_ipc_buffer_obj+0xffffffffffd58290>
    5294:	10ab0000 	adr	x0, fffffffffff5b294 <__sel4_ipc_buffer_obj+0xffffffffffd54294>
    5298:	3a010000 	adcs	w0, w0, w1
    529c:	be00000e 	.inst	0xbe00000e ; undefined
    52a0:	b8000010 	stur	w16, [x0]
    52a4:	01000010 	.inst	0x01000010 ; undefined
    52a8:	00000e2e 	.inst	0x00000e2e ; undefined
    52ac:	000010db 	.inst	0x000010db ; undefined
    52b0:	000010d9 	.inst	0x000010d9 ; undefined
    52b4:	0000eb23 	.inst	0x0000eb23 ; undefined
    52b8:	0e9d0200 	.inst	0x0e9d0200 ; undefined
    52bc:	50010000 	adr	x0, 72be <_start-0x1f8d42>
    52c0:	000ea802 	.inst	0x000ea802 ; undefined
    52c4:	02510100 	.inst	0x02510100 ; undefined
    52c8:	00000eb3 	.inst	0x00000eb3 ; undefined
    52cc:	be025201 	.inst	0xbe025201 ; undefined
    52d0:	0100000e 	.inst	0x0100000e ; undefined
    52d4:	0ec90253 	.inst	0x0ec90253 ; undefined
    52d8:	54010000 	b.eq	72d8 <_start-0x1f8d28>  // b.none
    52dc:	000ed402 	.inst	0x000ed402 ; undefined
    52e0:	02550100 	.inst	0x02550100 ; undefined
    52e4:	00000edf 	.inst	0x00000edf ; undefined
    52e8:	ea025601 	ands	x1, x16, x2, lsl #21
    52ec:	0100000e 	.inst	0x0100000e ; undefined
    52f0:	00000057 	.inst	0x00000057 ; undefined
    52f4:	0d9b1300 	st1	{v0.b}[4], [x24], x27
    52f8:	40d00000 	.inst	0x40d00000 ; undefined
    52fc:	00000020 	.inst	0x00000020 ; undefined
    5300:	003c0000 	.inst	0x003c0000 ; NYI
    5304:	00000000 	.inst	0x00000000 ; undefined
    5308:	9c010000 	ldr	q0, 7308 <_start-0x1f8cf8>
    530c:	00001228 	.inst	0x00001228 ; undefined
    5310:	000da501 	.inst	0x000da501 ; undefined
    5314:	0010eb00 	.inst	0x0010eb00 ; undefined
    5318:	0010e300 	.inst	0x0010e300 ; undefined
    531c:	0db00500 	st2	{v0.b, v1.b}[1], [x8], x16
    5320:	40e00000 	.inst	0x40e00000 ; undefined
    5324:	00000020 	.inst	0x00000020 ; undefined
    5328:	00010000 	.inst	0x00010000 ; undefined
    532c:	002040e0 	.inst	0x002040e0 ; NYI
    5330:	00000000 	.inst	0x00000000 ; undefined
    5334:	00000020 	.inst	0x00000020 ; undefined
    5338:	00000000 	.inst	0x00000000 ; undefined
    533c:	ba010919 	.inst	0xba010919 ; undefined
    5340:	0400000d 	add	z13.b, p0/m, z13.b, z0.b
    5344:	02000011 	.inst	0x02000011 ; undefined
    5348:	05000011 	orr	z17.s, z17.s, #0x1
    534c:	00000dc5 	.inst	0x00000dc5 ; undefined
    5350:	002040e0 	.inst	0x002040e0 ; NYI
    5354:	00000000 	.inst	0x00000000 ; undefined
    5358:	40e00003 	.inst	0x40e00003 ; undefined
    535c:	00000020 	.inst	0x00000020 ; undefined
    5360:	00200000 	.inst	0x00200000 ; NYI
    5364:	00000000 	.inst	0x00000000 ; undefined
    5368:	050f0000 	.inst	0x050f0000 ; undefined
    536c:	000dd301 	.inst	0x000dd301 ; undefined
    5370:	00111100 	.inst	0x00111100 ; undefined
    5374:	00110f00 	.inst	0x00110f00 ; undefined
    5378:	0dde0300 	ld1	{v0.b}[0], [x24], x30
    537c:	111b0000 	add	w0, w0, #0x6c0
    5380:	11170000 	add	w0, w0, #0x5c0
    5384:	e9030000 	.inst	0xe9030000 ; undefined
    5388:	2b00000d 	adds	w13, w0, w0
    538c:	27000011 	.inst	0x27000011 ; undefined
    5390:	03000011 	.inst	0x03000011 ; undefined
    5394:	00000df4 	.inst	0x00000df4 ; undefined
    5398:	0000113b 	.inst	0x0000113b ; undefined
    539c:	00001137 	.inst	0x00001137 ; undefined
    53a0:	000dff03 	.inst	0x000dff03 ; undefined
    53a4:	00114b00 	.inst	0x00114b00 ; undefined
    53a8:	00114700 	.inst	0x00114700 ; undefined
    53ac:	0e0a0300 	tbl	v0.8b, {v24.16b}, v10.8b
    53b0:	115b0000 	add	w0, w0, #0x6c0, lsl #12
    53b4:	11570000 	add	w0, w0, #0x5c0, lsl #12
    53b8:	15030000 	b	40c53b8 <__sel4_ipc_buffer_obj+0x3ebe3b8>
    53bc:	6900000e 	.inst	0x6900000e ; undefined
    53c0:	67000011 	.inst	0x67000011 ; undefined
    53c4:	09000011 	.inst	0x09000011 ; undefined
    53c8:	00000e21 	.inst	0x00000e21 ; undefined
    53cc:	002040e0 	.inst	0x002040e0 ; NYI
    53d0:	00000000 	.inst	0x00000000 ; undefined
    53d4:	40e0000b 	.inst	0x40e0000b ; undefined
    53d8:	00000020 	.inst	0x00000020 ; undefined
    53dc:	00200000 	.inst	0x00200000 ; NYI
    53e0:	00000000 	.inst	0x00000000 ; undefined
    53e4:	92010000 	and	x0, x0, #0x8000000080000000
    53e8:	7200000e 	ands	w14, w0, #0x1
    53ec:	70000011 	adr	x17, 53ef <_start-0x1fac11>
    53f0:	01000011 	.inst	0x01000011 ; undefined
    53f4:	00000e87 	.inst	0x00000e87 ; undefined
    53f8:	0000117b 	.inst	0x0000117b ; undefined
    53fc:	00001179 	.inst	0x00001179 ; undefined
    5400:	000e7c01 	.inst	0x000e7c01 ; undefined
    5404:	00118800 	.inst	0x00118800 ; undefined
    5408:	00118600 	.inst	0x00118600 ; undefined
    540c:	0e710100 	saddl	v0.4s, v8.4h, v17.4h
    5410:	11950000 	.inst	0x11950000 ; undefined
    5414:	11930000 	.inst	0x11930000 ; undefined
    5418:	66010000 	.inst	0x66010000 ; undefined
    541c:	a200000e 	.inst	0xa200000e ; undefined
    5420:	a0000011 	.inst	0xa0000011 ; undefined
    5424:	01000011 	.inst	0x01000011 ; undefined
    5428:	00000e5b 	.inst	0x00000e5b ; undefined
    542c:	000011af 	.inst	0x000011af ; undefined
    5430:	000011ad 	.inst	0x000011ad ; undefined
    5434:	000e5001 	.inst	0x000e5001 ; undefined
    5438:	00117200 	.inst	0x00117200 ; undefined
    543c:	00117000 	.inst	0x00117000 ; undefined
    5440:	0e450100 	.inst	0x0e450100 ; undefined
    5444:	11bc0000 	.inst	0x11bc0000 ; undefined
    5448:	11ba0000 	.inst	0x11ba0000 ; undefined
    544c:	3a010000 	adcs	w0, w0, w1
    5450:	c900000e 	.inst	0xc900000e ; undefined
    5454:	c7000011 	.inst	0xc7000011 ; undefined
    5458:	01000011 	.inst	0x01000011 ; undefined
    545c:	00000e2e 	.inst	0x00000e2e ; undefined
    5460:	000011d6 	.inst	0x000011d6 ; undefined
    5464:	000011d4 	.inst	0x000011d4 ; undefined
    5468:	000e9d02 	.inst	0x000e9d02 ; undefined
    546c:	02500100 	.inst	0x02500100 ; undefined
    5470:	00000ea8 	.inst	0x00000ea8 ; undefined
    5474:	b3025101 	.inst	0xb3025101 ; undefined
    5478:	0100000e 	.inst	0x0100000e ; undefined
    547c:	0ebe0252 	saddl	v18.2d, v18.2s, v30.2s
    5480:	53010000 	lsl	w0, w0, #31
    5484:	000ec902 	.inst	0x000ec902 ; undefined
    5488:	02540100 	.inst	0x02540100 ; undefined
    548c:	00000ed4 	.inst	0x00000ed4 ; undefined
    5490:	df025501 	.inst	0xdf025501 ; undefined
    5494:	0100000e 	.inst	0x0100000e ; undefined
    5498:	0eea0256 	.inst	0x0eea0256 ; undefined
    549c:	57010000 	.inst	0x57010000 ; undefined
    54a0:	00000000 	.inst	0x00000000 ; undefined
    54a4:	029e0414 	.inst	0x029e0414 ; undefined
    54a8:	04140020 	.inst	0x04140020 ; undefined
    54ac:	000a029e 	.inst	0x000a029e ; undefined
	...

Disassembly of section .debug_abbrev:

0000000000000000 <.debug_abbrev>:
   0:	03000501 	.inst	0x03000501 ; undefined
   4:	01213a0e 	.inst	0x01213a0e ; undefined
   8:	0b39053b 	add	w27, w9, w25, uxtb #1
   c:	18021349 	ldr	w9, 4274 <_start-0x1fbd8c>
  10:	34020000 	cbz	w0, 4010 <_start-0x1fbff0>
  14:	3a0e0300 	adcs	w0, w24, w14
  18:	053b0121 	ext	z1.b, z1.b, z9.b, #216
  1c:	13490b39 	.inst	0x13490b39 ; undefined
  20:	00001802 	.inst	0x00001802 ; undefined
  24:	03000503 	.inst	0x03000503 ; undefined
  28:	01213a0e 	.inst	0x01213a0e ; undefined
  2c:	0b390b3b 	add	w27, w25, w25, uxtb #2
  30:	18021349 	ldr	w9, 4298 <_start-0x1fbd68>
  34:	34040000 	cbz	w0, 8034 <_start-0x1f7fcc>
  38:	3a080300 	adcs	w0, w24, w8
  3c:	053b0121 	ext	z1.b, z1.b, z9.b, #216
  40:	13490b39 	.inst	0x13490b39 ; undefined
  44:	00001802 	.inst	0x00001802 ; undefined
  48:	03000505 	.inst	0x03000505 ; undefined
  4c:	01213a08 	.inst	0x01213a08 ; undefined
  50:	0b390b3b 	add	w27, w25, w25, uxtb #2
  54:	18021349 	ldr	w9, 42bc <_start-0x1fbd44>
  58:	05060000 	.inst	0x05060000 ; undefined
  5c:	3a080300 	adcs	w0, w24, w8
  60:	053b0121 	ext	z1.b, z1.b, z9.b, #216
  64:	13490b39 	.inst	0x13490b39 ; undefined
  68:	00001802 	.inst	0x00001802 ; undefined
  6c:	0b002407 	add	w7, w0, w0, lsl #9
  70:	030b3e0b 	.inst	0x030b3e0b ; undefined
  74:	0800000e 	stxrb	w0, w14, [x0]
  78:	13490026 	.inst	0x13490026 ; undefined
  7c:	0b090000 	add	w0, w0, w9
  80:	12011101 	and	w1, w8, #0x8000000f
  84:	00130107 	.inst	0x00130107 ; undefined
  88:	00160a00 	.inst	0x00160a00 ; undefined
  8c:	0b3a0e03 	add	w3, w16, w26, uxtb #3
  90:	0b390b3b 	add	w27, w25, w25, uxtb #2
  94:	00001349 	.inst	0x00001349 ; undefined
  98:	4900050b 	.inst	0x4900050b ; undefined
  9c:	0c000013 	st4	{v19.8b-v22.8b}, [x0]
  a0:	193f012e 	.inst	0x193f012e ; undefined
  a4:	213a0e03 	.inst	0x213a0e03 ; undefined
  a8:	39053b01 	strb	w1, [x24, #334]
  ac:	19270521 	.inst	0x19270521 ; undefined
  b0:	01111349 	.inst	0x01111349 ; undefined
  b4:	18400712 	ldr	w18, 80194 <_start-0x17fe6c>
  b8:	1301197c 	sbfx	w28, w11, #1, #6
  bc:	0b0d0000 	add	w0, w0, w13
  c0:	12011101 	and	w1, w8, #0x8000000f
  c4:	0e000007 	tbl	v7.8b, {v0.16b}, v0.8b
  c8:	0e03000d 	tbl	v13.8b, {v0.16b}, v3.8b
  cc:	0b381349 	add	w9, w26, w24, uxtb #4
  d0:	00001934 	.inst	0x00001934 ; undefined
  d4:	0b000f0f 	add	w15, w24, w0, lsl #3
  d8:	13490821 	.inst	0x13490821 ; undefined
  dc:	2e100000 	ext	v0.8b, v0.8b, v16.8b, #0
  e0:	3a0e0301 	adcs	w1, w24, w14
  e4:	053b0121 	ext	z1.b, z1.b, z9.b, #216
  e8:	19270b39 	.inst	0x19270b39 ; undefined
  ec:	01111349 	.inst	0x01111349 ; undefined
  f0:	18400712 	ldr	w18, 801d0 <_start-0x17fe30>
  f4:	1301197c 	sbfx	w28, w11, #1, #6
  f8:	18110000 	ldr	w0, 220f8 <_start-0x1ddf08>
  fc:	12000000 	and	w0, w0, #0x1
 100:	13490101 	.inst	0x13490101 ; undefined
 104:	00001301 	.inst	0x00001301 ; undefined
 108:	49002113 	.inst	0x49002113 ; undefined
 10c:	000b2f13 	.inst	0x000b2f13 ; undefined
 110:	012e1400 	.inst	0x012e1400 ; undefined
 114:	213a0e03 	.inst	0x213a0e03 ; undefined
 118:	390b3b01 	strb	w1, [x24, #718]
 11c:	4919270b 	.inst	0x4919270b ; undefined
 120:	12011113 	and	w19, w8, #0x8000000f
 124:	7c184007 	stur	h7, [x0, #-124]
 128:	00130119 	.inst	0x00130119 ; undefined
 12c:	00341500 	.inst	0x00341500 ; NYI
 130:	213a0803 	.inst	0x213a0803 ; undefined
 134:	390b3b01 	strb	w1, [x24, #718]
 138:	0213490b 	.inst	0x0213490b ; undefined
 13c:	16000018 	b	fffffffff800019c <__sel4_ipc_buffer_obj+0xfffffffff7df919c>
 140:	19270115 	.inst	0x19270115 ; undefined
 144:	00001301 	.inst	0x00001301 ; undefined
 148:	03000d17 	.inst	0x03000d17 ; undefined
 14c:	01213a08 	.inst	0x01213a08 ; undefined
 150:	0b390b3b 	add	w27, w25, w25, uxtb #2
 154:	0b381349 	add	w9, w26, w24, uxtb #4
 158:	0d180000 	.inst	0x0d180000 ; undefined
 15c:	3a080300 	adcs	w0, w24, w8
 160:	053b0121 	ext	z1.b, z1.b, z9.b, #216
 164:	490e2139 	.inst	0x490e2139 ; undefined
 168:	19000013 	.inst	0x19000013 ; undefined
 16c:	0e03012e 	tbl	v14.8b, {v9.16b}, v3.8b
 170:	3b01213a 	.inst	0x3b01213a ; undefined
 174:	270b390b 	.inst	0x270b390b ; undefined
 178:	11134919 	add	w25, w8, #0x4d2
 17c:	40071201 	.inst	0x40071201 ; undefined
 180:	01197a18 	.inst	0x01197a18 ; undefined
 184:	1a000013 	adc	w19, w0, w0
 188:	0e03012e 	tbl	v14.8b, {v9.16b}, v3.8b
 18c:	3b01213a 	.inst	0x3b01213a ; undefined
 190:	1421390b 	b	84e5bc <__sel4_ipc_buffer_obj+0x6475bc>
 194:	01111927 	.inst	0x01111927 ; undefined
 198:	18400712 	ldr	w18, 80278 <_start-0x17fd88>
 19c:	1301197c 	sbfx	w28, w11, #1, #6
 1a0:	111b0000 	add	w0, w0, #0x6c0
 1a4:	130e2501 	sbfiz	w1, w8, #18, #10
 1a8:	1b0e030b 	madd	w11, w24, w14, w0
 1ac:	1201110e 	and	w14, w8, #0x8000000f
 1b0:	00171007 	.inst	0x00171007 ; undefined
 1b4:	00241c00 	.inst	0x00241c00 ; NYI
 1b8:	0b3e0b0b 	add	w11, w24, w30, uxtb #2
 1bc:	00000803 	.inst	0x00000803 ; undefined
 1c0:	0301131d 	.inst	0x0301131d ; undefined
 1c4:	3a0b0b0e 	.inst	0x3a0b0b0e ; undefined
 1c8:	010b3b0b 	.inst	0x010b3b0b ; undefined
 1cc:	1e000013 	.inst	0x1e000013 ; undefined
 1d0:	0b0b000f 	add	w15, w0, w11
 1d4:	131f0000 	sbfiz	w0, w0, #1, #1
 1d8:	3a0b0b01 	.inst	0x3a0b0b01 ; undefined
 1dc:	390b3b0b 	strb	w11, [x24, #718]
 1e0:	0013010b 	.inst	0x0013010b ; undefined
 1e4:	012e2000 	.inst	0x012e2000 ; undefined
 1e8:	0e03193f 	uzp1	v31.8b, v9.8b, v3.8b
 1ec:	0b3b0b3a 	add	w26, w25, w27, uxtb #2
 1f0:	19270b39 	.inst	0x19270b39 ; undefined
 1f4:	1301193c 	sbfx	w28, w9, #1, #6
 1f8:	17210000 	b	fffffffffc8401f8 <__sel4_ipc_buffer_obj+0xfffffffffc6391f8>
 1fc:	3a0b0b01 	.inst	0x3a0b0b01 ; undefined
 200:	39053b0b 	strb	w11, [x24, #334]
 204:	0013010b 	.inst	0x0013010b ; undefined
 208:	00342200 	.inst	0x00342200 ; NYI
 20c:	0b3a0e03 	add	w3, w16, w26, uxtb #3
 210:	0b390b3b 	add	w27, w25, w25, uxtb #2
 214:	18021349 	ldr	w9, 447c <_start-0x1fbb84>
 218:	2e230000 	uaddl	v0.8h, v0.8b, v3.8b
 21c:	3a0e0301 	adcs	w1, w24, w14
 220:	390b3b0b 	strb	w11, [x24, #718]
 224:	1119270b 	add	w11, w24, #0x649
 228:	40071201 	.inst	0x40071201 ; undefined
 22c:	01197a18 	.inst	0x01197a18 ; undefined
 230:	24000013 	cmphi	p3.b, p0/z, z0.b, z0.b
 234:	0e03012e 	tbl	v14.8b, {v9.16b}, v3.8b
 238:	0b3b0b3a 	add	w26, w25, w27, uxtb #2
 23c:	19270b39 	.inst	0x19270b39 ; undefined
 240:	07120111 	.inst	0x07120111 ; undefined
 244:	197a1840 	.inst	0x197a1840 ; undefined
 248:	01000000 	.inst	0x01000000 ; undefined
 24c:	0e030028 	tbl	v8.8b, {v1.16b}, v3.8b
 250:	00000b1c 	.inst	0x00000b1c ; undefined
 254:	03000d02 	.inst	0x03000d02 ; undefined
 258:	3b0b3a08 	.inst	0x3b0b3a08 ; undefined
 25c:	490b390b 	.inst	0x490b390b ; undefined
 260:	000b3813 	.inst	0x000b3813 ; undefined
 264:	00050300 	.inst	0x00050300 ; undefined
 268:	0b3a0e03 	add	w3, w16, w26, uxtb #3
 26c:	0b390b3b 	add	w27, w25, w25, uxtb #2
 270:	18021349 	ldr	w9, 44d8 <_start-0x1fbb28>
 274:	05040000 	.inst	0x05040000 ; undefined
 278:	3a080300 	adcs	w0, w24, w8
 27c:	390b3b0b 	strb	w11, [x24, #718]
 280:	0213490b 	.inst	0x0213490b ; undefined
 284:	05000018 	orr	z24.s, z24.s, #0x1
 288:	0e030034 	tbl	v20.8b, {v1.16b}, v3.8b
 28c:	0b3b0b3a 	add	w26, w25, w27, uxtb #2
 290:	13490b39 	.inst	0x13490b39 ; undefined
 294:	00001802 	.inst	0x00001802 ; undefined
 298:	03002806 	.inst	0x03002806 ; undefined
 29c:	000d1c0e 	.inst	0x000d1c0e ; undefined
 2a0:	00160700 	.inst	0x00160700 ; undefined
 2a4:	0b3a0e03 	add	w3, w16, w26, uxtb #3
 2a8:	0b390b3b 	add	w27, w25, w25, uxtb #2
 2ac:	00001349 	.inst	0x00001349 ; undefined
 2b0:	0b002408 	add	w8, w0, w0, lsl #9
 2b4:	030b3e0b 	.inst	0x030b3e0b ; undefined
 2b8:	0900000e 	.inst	0x0900000e ; undefined
 2bc:	210b000f 	.inst	0x210b000f ; undefined
 2c0:	00134908 	.inst	0x00134908 ; undefined
 2c4:	00340a00 	.inst	0x00340a00 ; NYI
 2c8:	0b3a0803 	add	w3, w0, w26, uxtb #2
 2cc:	0b390b3b 	add	w27, w25, w25, uxtb #2
 2d0:	18021349 	ldr	w9, 4538 <_start-0x1fbac8>
 2d4:	050b0000 	.inst	0x050b0000 ; undefined
 2d8:	3a0e0300 	adcs	w0, w24, w14
 2dc:	39053b0b 	strb	w11, [x24, #334]
 2e0:	0213490b 	.inst	0x0213490b ; undefined
 2e4:	0c000018 	st4	{v24.8b-v27.8b}, [x0]
 2e8:	0e03000d 	tbl	v13.8b, {v0.16b}, v3.8b
 2ec:	0b3b0b3a 	add	w26, w25, w27, uxtb #2
 2f0:	13490b39 	.inst	0x13490b39 ; undefined
 2f4:	00000538 	.inst	0x00000538 ; undefined
 2f8:	4900050d 	.inst	0x4900050d ; undefined
 2fc:	0e000013 	tbl	v19.8b, {v0.16b}, v0.8b
 300:	08030034 	stxrb	w3, w20, [x1]
 304:	053b0b3a 	ext	z26.b, z26.b, z25.b, #218
 308:	13490b39 	.inst	0x13490b39 ; undefined
 30c:	00001802 	.inst	0x00001802 ; undefined
 310:	03012e0f 	.inst	0x03012e0f ; undefined
 314:	3b0b3a0e 	.inst	0x3b0b3a0e ; undefined
 318:	270b390b 	.inst	0x270b390b ; undefined
 31c:	12011119 	and	w25, w8, #0x8000000f
 320:	7c184007 	stur	h7, [x0, #-124]
 324:	00130119 	.inst	0x00130119 ; undefined
 328:	01011000 	.inst	0x01011000 ; undefined
 32c:	13011349 	sbfx	w9, w26, #1, #4
 330:	21110000 	.inst	0x21110000 ; undefined
 334:	2f134900 	.inst	0x2f134900 ; undefined
 338:	1200000b 	and	w11, w0, #0x1
 33c:	0e03012e 	tbl	v14.8b, {v9.16b}, v3.8b
 340:	0b3b0b3a 	add	w26, w25, w27, uxtb #2
 344:	19270b39 	.inst	0x19270b39 ; undefined
 348:	01111349 	.inst	0x01111349 ; undefined
 34c:	18400712 	ldr	w18, 8042c <_start-0x17fbd4>
 350:	1301197c 	sbfx	w28, w11, #1, #6
 354:	26130000 	.inst	0x26130000 ; undefined
 358:	00134900 	.inst	0x00134900 ; undefined
 35c:	012e1400 	.inst	0x012e1400 ; undefined
 360:	213a0e03 	.inst	0x213a0e03 ; undefined
 364:	390b3b08 	strb	w8, [x24, #718]
 368:	4919270b 	.inst	0x4919270b ; undefined
 36c:	12011113 	and	w19, w8, #0x8000000f
 370:	7a184007 	.inst	0x7a184007 ; undefined
 374:	00130119 	.inst	0x00130119 ; undefined
 378:	012e1500 	.inst	0x012e1500 ; undefined
 37c:	0b3a0e03 	add	w3, w16, w26, uxtb #3
 380:	0b390b3b 	add	w27, w25, w25, uxtb #2
 384:	01111927 	.inst	0x01111927 ; undefined
 388:	18400712 	ldr	w18, 80468 <_start-0x17fb98>
 38c:	1301197a 	sbfx	w26, w11, #1, #6
 390:	04160000 	.inst	0x04160000 ; undefined
 394:	0b0b3e01 	add	w1, w16, w11, lsl #15
 398:	3a13490b 	.inst	0x3a13490b ; undefined
 39c:	390b3b0b 	strb	w11, [x24, #718]
 3a0:	13010e21 	sbfx	w1, w17, #1, #3
 3a4:	0d170000 	.inst	0x0d170000 ; undefined
 3a8:	3a0e0300 	adcs	w0, w24, w14
 3ac:	390b3b0b 	strb	w11, [x24, #718]
 3b0:	3813490b 	sttrb	w11, [x8, #-204]
 3b4:	1800000b 	ldr	w11, 3b4 <_start-0x1ffc4c>
 3b8:	193f012e 	.inst	0x193f012e ; undefined
 3bc:	0b3a0e03 	add	w3, w16, w26, uxtb #3
 3c0:	21390b3b 	.inst	0x21390b3b ; undefined
 3c4:	3c192706 	str	b6, [x24], #-110
 3c8:	00130119 	.inst	0x00130119 ; undefined
 3cc:	00341900 	.inst	0x00341900 ; NYI
 3d0:	0b3a0e03 	add	w3, w16, w26, uxtb #3
 3d4:	0b39053b 	add	w27, w9, w25, uxtb #1
 3d8:	18021349 	ldr	w9, 4640 <_start-0x1fb9c0>
 3dc:	281a0000 	stnp	w0, w0, [x0, #208]
 3e0:	1c0e0300 	ldr	s0, 1c440 <_start-0x1e3bc0>
 3e4:	ffffff21 	.inst	0xffffff21 ; undefined
 3e8:	ffffffff 	.inst	0xffffffff ; undefined
 3ec:	0000ffff 	.inst	0x0000ffff ; undefined
 3f0:	01131b00 	.inst	0x01131b00 ; undefined
 3f4:	050b0e03 	.inst	0x050b0e03 ; undefined
 3f8:	0b3b0b3a 	add	w26, w25, w27, uxtb #2
 3fc:	01102139 	.inst	0x01102139 ; undefined
 400:	1c000013 	ldr	s19, 400 <_start-0x1ffc00>
 404:	0803000d 	stxrb	w3, w13, [x0]
 408:	3b0c213a 	.inst	0x3b0c213a ; undefined
 40c:	0b391521 	.inst	0x0b391521 ; undefined
 410:	05381349 	ext	z9.b, z9.b, z26.b, #196
 414:	041d0000 	.inst	0x041d0000 ; undefined
 418:	3e0e0301 	.inst	0x3e0e0301 ; undefined
 41c:	210b0721 	.inst	0x210b0721 ; undefined
 420:	3a134904 	.inst	0x3a134904 ; undefined
 424:	390b3b0b 	strb	w11, [x24, #718]
 428:	0013010b 	.inst	0x0013010b ; undefined
 42c:	00371e00 	.inst	0x00371e00 ; NYI
 430:	00001349 	.inst	0x00001349 ; undefined
 434:	03012e1f 	.inst	0x03012e1f ; undefined
 438:	3b0b3a0e 	.inst	0x3b0b3a0e ; undefined
 43c:	01213905 	.inst	0x01213905 ; undefined
 440:	13491927 	.inst	0x13491927 ; undefined
 444:	07120111 	.inst	0x07120111 ; undefined
 448:	197c1840 	.inst	0x197c1840 ; undefined
 44c:	00001301 	.inst	0x00001301 ; undefined
 450:	03012e20 	.inst	0x03012e20 ; undefined
 454:	02213a0e 	.inst	0x02213a0e ; undefined
 458:	2139053b 	.inst	0x2139053b ; undefined
 45c:	49192701 	.inst	0x49192701 ; undefined
 460:	12011113 	and	w19, w8, #0x8000000f
 464:	7a184007 	.inst	0x7a184007 ; undefined
 468:	00130119 	.inst	0x00130119 ; undefined
 46c:	01112100 	.inst	0x01112100 ; undefined
 470:	0b130e25 	add	w5, w17, w19, lsl #3
 474:	0e1b0e03 	dup	v3.8b, w16
 478:	07120111 	.inst	0x07120111 ; undefined
 47c:	00001710 	.inst	0x00001710 ; undefined
 480:	0b002422 	add	w2, w1, w0, lsl #9
 484:	030b3e0b 	.inst	0x030b3e0b ; undefined
 488:	23000008 	.inst	0x23000008 ; undefined
 48c:	0e030113 	tbl	v19.8b, {v8.16b}, v3.8b
 490:	0b3a0b0b 	add	w11, w24, w26, uxtb #2
 494:	0b39053b 	add	w27, w9, w25, uxtb #1
 498:	00001301 	.inst	0x00001301 ; undefined
 49c:	03000d24 	.inst	0x03000d24 ; undefined
 4a0:	3b0b3a0e 	.inst	0x3b0b3a0e ; undefined
 4a4:	490b3905 	.inst	0x490b3905 ; undefined
 4a8:	000b3813 	.inst	0x000b3813 ; undefined
 4ac:	00162500 	.inst	0x00162500 ; undefined
 4b0:	0b3a0e03 	add	w3, w16, w26, uxtb #3
 4b4:	0b39053b 	add	w27, w9, w25, uxtb #1
 4b8:	00001349 	.inst	0x00001349 ; undefined
 4bc:	03001626 	.inst	0x03001626 ; undefined
 4c0:	3b0b3a0e 	.inst	0x3b0b3a0e ; undefined
 4c4:	490b390b 	.inst	0x490b390b ; undefined
 4c8:	05018813 	orr	z19.s, z19.s, #0x8000
 4cc:	34270000 	cbz	w0, 4e4cc <_start-0x1b1b34>
 4d0:	3a0e0300 	adcs	w0, w24, w14
 4d4:	390b3b0b 	strb	w11, [x24, #718]
 4d8:	3f13490b 	.inst	0x3f13490b ; undefined
 4dc:	00193c19 	.inst	0x00193c19 ; undefined
 4e0:	01132800 	.inst	0x01132800 ; undefined
 4e4:	0b0b0e03 	add	w3, w16, w11, lsl #3
 4e8:	0b3b0b3a 	add	w26, w25, w27, uxtb #2
 4ec:	13010b39 	sbfx	w25, w25, #1, #2
 4f0:	0f290000 	.inst	0x0f290000 ; undefined
 4f4:	000b0b00 	.inst	0x000b0b00 ; undefined
 4f8:	012e2a00 	.inst	0x012e2a00 ; undefined
 4fc:	0e03193f 	uzp1	v31.8b, v9.8b, v3.8b
 500:	0b3b0b3a 	add	w26, w25, w27, uxtb #2
 504:	19270b39 	.inst	0x19270b39 ; undefined
 508:	193c1349 	.inst	0x193c1349 ; undefined
 50c:	00001301 	.inst	0x00001301 ; undefined
 510:	0000182b 	.inst	0x0000182b ; undefined
 514:	012e2c00 	.inst	0x012e2c00 ; undefined
 518:	0e03193f 	uzp1	v31.8b, v9.8b, v3.8b
 51c:	0b3b0b3a 	add	w26, w25, w27, uxtb #2
 520:	19270b39 	.inst	0x19270b39 ; undefined
 524:	11190187 	add	w7, w12, #0x640
 528:	40071201 	.inst	0x40071201 ; undefined
 52c:	01197c18 	.inst	0x01197c18 ; undefined
 530:	2d000013 	stp	s19, s0, [x0]
 534:	193f012e 	.inst	0x193f012e ; undefined
 538:	0b3a0e03 	add	w3, w16, w26, uxtb #3
 53c:	0b390b3b 	add	w27, w25, w25, uxtb #2
 540:	01111927 	.inst	0x01111927 ; undefined
 544:	18400712 	ldr	w18, 80624 <_start-0x17f9dc>
 548:	1301197c 	sbfx	w28, w11, #1, #6
 54c:	262e0000 	.inst	0x262e0000 ; undefined
 550:	2f000000 	.inst	0x2f000000 ; undefined
 554:	0e03012e 	tbl	v14.8b, {v9.16b}, v3.8b
 558:	0b3b0b3a 	add	w26, w25, w27, uxtb #2
 55c:	01110b39 	.inst	0x01110b39 ; undefined
 560:	18400712 	ldr	w18, 80640 <_start-0x17f9c0>
 564:	1301197c 	sbfx	w28, w11, #1, #6
 568:	0b300000 	add	w0, w0, w16, uxtb
 56c:	12011101 	and	w1, w8, #0x8000000f
 570:	31000007 	adds	w7, w0, #0x0
 574:	0e03002e 	tbl	v14.8b, {v1.16b}, v3.8b
 578:	0b3b0b3a 	add	w26, w25, w27, uxtb #2
 57c:	19270b39 	.inst	0x19270b39 ; undefined
 580:	01111349 	.inst	0x01111349 ; undefined
 584:	18400712 	ldr	w18, 80664 <_start-0x17f99c>
 588:	0000197a 	.inst	0x0000197a ; undefined
 58c:	03003432 	.inst	0x03003432 ; undefined
 590:	3413490e 	cbz	w14, 26eb0 <_start-0x1d9150>
 594:	00180219 	.inst	0x00180219 ; undefined
 598:	24010000 	cmphs	p0.b, p0/z, z0.b, z1.b
 59c:	3e0b0b00 	.inst	0x3e0b0b00 ; undefined
 5a0:	000e030b 	.inst	0x000e030b ; undefined
 5a4:	00280200 	.inst	0x00280200 ; NYI
 5a8:	0b1c0e03 	add	w3, w16, w28, lsl #3
 5ac:	16030000 	b	fffffffff80c05ac <__sel4_ipc_buffer_obj+0xfffffffff7eb95ac>
 5b0:	3a0e0300 	adcs	w0, w24, w14
 5b4:	0b3b0221 	add	w1, w17, w27, uxtb
 5b8:	49032139 	.inst	0x49032139 ; undefined
 5bc:	04000013 	add	z19.b, p0/m, z19.b, z0.b
 5c0:	0e030005 	tbl	v5.8b, {v0.16b}, v3.8b
 5c4:	3b01213a 	.inst	0x3b01213a ; undefined
 5c8:	0b390321 	add	w1, w25, w25, uxtb
 5cc:	18021349 	ldr	w9, 4834 <_start-0x1fb7cc>
 5d0:	11050000 	add	w0, w0, #0x140
 5d4:	130e2501 	sbfiz	w1, w8, #18, #10
 5d8:	1b0e030b 	madd	w11, w24, w14, w0
 5dc:	1201110e 	and	w14, w8, #0x8000000f
 5e0:	00171007 	.inst	0x00171007 ; undefined
 5e4:	00240600 	.inst	0x00240600 ; NYI
 5e8:	0b3e0b0b 	add	w11, w24, w30, uxtb #2
 5ec:	00000803 	.inst	0x00000803 ; undefined
 5f0:	3e010407 	.inst	0x3e010407 ; undefined
 5f4:	490b0b0b 	.inst	0x490b0b0b ; undefined
 5f8:	3b0b3a13 	.inst	0x3b0b3a13 ; undefined
 5fc:	010b390b 	.inst	0x010b390b ; undefined
 600:	08000013 	stxrb	w0, w19, [x0]
 604:	0b0b0113 	add	w19, w8, w11
 608:	0b3b0b3a 	add	w26, w25, w27, uxtb #2
 60c:	13010b39 	sbfx	w25, w25, #1, #2
 610:	0d090000 	.inst	0x0d090000 ; undefined
 614:	3a0e0300 	adcs	w0, w24, w14
 618:	390b3b0b 	strb	w11, [x24, #718]
 61c:	3813490b 	sttrb	w11, [x8, #-204]
 620:	0a00000b 	and	w11, w0, w0
 624:	13490035 	.inst	0x13490035 ; undefined
 628:	2e0b0000 	ext	v0.8b, v0.8b, v11.8b, #0
 62c:	03193f01 	.inst	0x03193f01 ; undefined
 630:	3b0b3a0e 	.inst	0x3b0b3a0e ; undefined
 634:	270b390b 	.inst	0x270b390b ; undefined
 638:	12011119 	and	w25, w8, #0x8000000f
 63c:	7a184007 	.inst	0x7a184007 ; undefined
 640:	00130119 	.inst	0x00130119 ; undefined
 644:	000f0c00 	.inst	0x000f0c00 ; undefined
 648:	13490b0b 	.inst	0x13490b0b ; undefined
 64c:	01000000 	.inst	0x01000000 ; undefined
 650:	0e030028 	tbl	v8.8b, {v1.16b}, v3.8b
 654:	00000b1c 	.inst	0x00000b1c ; undefined
 658:	03000502 	.inst	0x03000502 ; undefined
 65c:	3b0b3a0e 	.inst	0x3b0b3a0e ; undefined
 660:	490b390b 	.inst	0x490b390b ; undefined
 664:	00180213 	.inst	0x00180213 ; undefined
 668:	00340300 	.inst	0x00340300 ; NYI
 66c:	0b3a0e03 	add	w3, w16, w26, uxtb #3
 670:	0b390b3b 	add	w27, w25, w25, uxtb #2
 674:	18021349 	ldr	w9, 48dc <_start-0x1fb724>
 678:	28040000 	stnp	w0, w0, [x0, #32]
 67c:	1c0e0300 	ldr	s0, 1c6dc <_start-0x1e3924>
 680:	0500000d 	orr	z13.s, z13.s, #0x1
 684:	0e030016 	tbl	v22.8b, {v0.16b}, v3.8b
 688:	0b3b0b3a 	add	w26, w25, w27, uxtb #2
 68c:	13490b39 	.inst	0x13490b39 ; undefined
 690:	34060000 	cbz	w0, c690 <_start-0x1f3970>
 694:	3a0e0300 	adcs	w0, w24, w14
 698:	0b3b0121 	add	w1, w9, w27, uxtb
 69c:	13490b39 	.inst	0x13490b39 ; undefined
 6a0:	1802193f 	ldr	wzr, 49c4 <_start-0x1fb63c>
 6a4:	05070000 	.inst	0x05070000 ; undefined
 6a8:	3a080300 	adcs	w0, w24, w8
 6ac:	390b3b0b 	strb	w11, [x24, #718]
 6b0:	0213490b 	.inst	0x0213490b ; undefined
 6b4:	08000018 	stxrb	w0, w24, [x0]
 6b8:	0b0b0024 	add	w4, w1, w11
 6bc:	0e030b3e 	.inst	0x0e030b3e ; undefined
 6c0:	05090000 	.inst	0x05090000 ; undefined
 6c4:	00134900 	.inst	0x00134900 ; undefined
 6c8:	01010a00 	.inst	0x01010a00 ; undefined
 6cc:	13011349 	sbfx	w9, w26, #1, #4
 6d0:	210b0000 	.inst	0x210b0000 ; undefined
 6d4:	2f134900 	.inst	0x2f134900 ; undefined
 6d8:	0c00000b 	st4	{v11.8b-v14.8b}, [x0]
 6dc:	0e030104 	tbl	v4.8b, {v8.16b}, v3.8b
 6e0:	0b07213e 	add	w30, w9, w7, lsl #8
 6e4:	13490421 	.inst	0x13490421 ; undefined
 6e8:	0b3b0b3a 	add	w26, w25, w27, uxtb #2
 6ec:	13010b39 	sbfx	w25, w25, #1, #2
 6f0:	0d0d0000 	.inst	0x0d0d0000 ; undefined
 6f4:	3a0e0300 	adcs	w0, w24, w14
 6f8:	0b3b0f21 	add	w1, w25, w27, uxtb #3
 6fc:	490f2139 	.inst	0x490f2139 ; undefined
 700:	00053813 	.inst	0x00053813 ; undefined
 704:	000f0e00 	.inst	0x000f0e00 ; undefined
 708:	4908210b 	.inst	0x4908210b ; undefined
 70c:	0f000013 	.inst	0x0f000013 ; undefined
 710:	0e03012e 	tbl	v14.8b, {v9.16b}, v3.8b
 714:	0b3b0b3a 	add	w26, w25, w27, uxtb #2
 718:	19270b39 	.inst	0x19270b39 ; undefined
 71c:	07120111 	.inst	0x07120111 ; undefined
 720:	197c1840 	.inst	0x197c1840 ; undefined
 724:	00001301 	.inst	0x00001301 ; undefined
 728:	03012e10 	.inst	0x03012e10 ; undefined
 72c:	3b0b3a0e 	.inst	0x3b0b3a0e ; undefined
 730:	270b390b 	.inst	0x270b390b ; undefined
 734:	11134919 	add	w25, w8, #0x4d2
 738:	40071201 	.inst	0x40071201 ; undefined
 73c:	01197c18 	.inst	0x01197c18 ; undefined
 740:	11000013 	add	w19, w0, #0x0
 744:	0e030005 	tbl	v5.8b, {v0.16b}, v3.8b
 748:	3b02213a 	.inst	0x3b02213a ; undefined
 74c:	3902be21 	strb	w1, [x17, #175]
 750:	0213490b 	.inst	0x0213490b ; undefined
 754:	12000018 	and	w24, w0, #0x1
 758:	0e03000d 	tbl	v13.8b, {v0.16b}, v3.8b
 75c:	3b09213a 	.inst	0x3b09213a ; undefined
 760:	490b390b 	.inst	0x490b390b ; undefined
 764:	000b3813 	.inst	0x000b3813 ; undefined
 768:	00261300 	.inst	0x00261300 ; NYI
 76c:	00001349 	.inst	0x00001349 ; undefined
 770:	3f012e14 	.inst	0x3f012e14 ; undefined
 774:	3a0e0319 	adcs	w25, w24, w14
 778:	390b3b0b 	strb	w11, [x24, #718]
 77c:	19270621 	.inst	0x19270621 ; undefined
 780:	1301193c 	sbfx	w28, w9, #1, #6
 784:	04150000 	.inst	0x04150000 ; undefined
 788:	0b0b3e01 	add	w1, w16, w11, lsl #15
 78c:	3a13490b 	.inst	0x3a13490b ; undefined
 790:	390b3b0b 	strb	w11, [x24, #718]
 794:	13010e21 	sbfx	w1, w17, #1, #3
 798:	13160000 	sbfiz	w0, w0, #10, #1
 79c:	3a0b0b01 	.inst	0x3a0b0b01 ; undefined
 7a0:	0b3b0921 	add	w1, w9, w27, uxtb #2
 7a4:	01092139 	.inst	0x01092139 ; undefined
 7a8:	17000013 	b	fffffffffc0007f4 <__sel4_ipc_buffer_obj+0xfffffffffbdf97f4>
 7ac:	0803000d 	stxrb	w3, w13, [x0]
 7b0:	3b0f213a 	.inst	0x3b0f213a ; undefined
 7b4:	490b390b 	.inst	0x490b390b ; undefined
 7b8:	000b3813 	.inst	0x000b3813 ; undefined
 7bc:	012e1800 	.inst	0x012e1800 ; undefined
 7c0:	0e03193f 	uzp1	v31.8b, v9.8b, v3.8b
 7c4:	3b01213a 	.inst	0x3b01213a ; undefined
 7c8:	0621390b 	.inst	0x0621390b ; undefined
 7cc:	01111927 	.inst	0x01111927 ; undefined
 7d0:	18400712 	ldr	w18, 808b0 <_start-0x17f750>
 7d4:	1301197c 	sbfx	w28, w11, #1, #6
 7d8:	0b190000 	add	w0, w0, w25
 7dc:	12011101 	and	w1, w8, #0x8000000f
 7e0:	1a000007 	adc	w7, w0, w0
 7e4:	0e03012e 	tbl	v14.8b, {v9.16b}, v3.8b
 7e8:	3b04213a 	.inst	0x3b04213a ; undefined
 7ec:	1421390b 	b	84ec18 <__sel4_ipc_buffer_obj+0x647c18>
 7f0:	01111927 	.inst	0x01111927 ; undefined
 7f4:	18400712 	ldr	w18, 808d4 <_start-0x17f72c>
 7f8:	1301197a 	sbfx	w26, w11, #1, #6
 7fc:	111b0000 	add	w0, w0, #0x6c0
 800:	130e2501 	sbfiz	w1, w8, #18, #10
 804:	1b0e030b 	madd	w11, w24, w14, w0
 808:	1201110e 	and	w14, w8, #0x8000000f
 80c:	00171007 	.inst	0x00171007 ; undefined
 810:	00241c00 	.inst	0x00241c00 ; NYI
 814:	0b3e0b0b 	add	w11, w24, w30, uxtb #2
 818:	00000803 	.inst	0x00000803 ; undefined
 81c:	4900351d 	.inst	0x4900351d ; undefined
 820:	1e000013 	.inst	0x1e000013 ; undefined
 824:	0e030028 	tbl	v8.8b, {v1.16b}, v3.8b
 828:	0000071c 	.inst	0x0000071c ; undefined
 82c:	0301131f 	.inst	0x0301131f ; undefined
 830:	3a0b0b0e 	.inst	0x3a0b0b0e ; undefined
 834:	39053b0b 	strb	w11, [x24, #334]
 838:	0013010b 	.inst	0x0013010b ; undefined
 83c:	000d2000 	.inst	0x000d2000 ; undefined
 840:	0b3a0e03 	add	w3, w16, w26, uxtb #3
 844:	0b39053b 	add	w27, w9, w25, uxtb #1
 848:	0b381349 	add	w9, w26, w24, uxtb #4
 84c:	16210000 	b	fffffffff884084c <__sel4_ipc_buffer_obj+0xfffffffff863984c>
 850:	3a0e0300 	adcs	w0, w24, w14
 854:	39053b0b 	strb	w11, [x24, #334]
 858:	0013490b 	.inst	0x0013490b ; undefined
 85c:	01132200 	.inst	0x01132200 ; undefined
 860:	050b0e03 	.inst	0x050b0e03 ; undefined
 864:	0b3b0b3a 	add	w26, w25, w27, uxtb #2
 868:	13010b39 	sbfx	w25, w25, #1, #2
 86c:	16230000 	b	fffffffff88c086c <__sel4_ipc_buffer_obj+0xfffffffff86b986c>
 870:	3a0e0300 	adcs	w0, w24, w14
 874:	390b3b0b 	strb	w11, [x24, #718]
 878:	8813490b 	stxr	w19, w11, [x8]
 87c:	00000501 	.inst	0x00000501 ; undefined
 880:	03003424 	.inst	0x03003424 ; undefined
 884:	3b0b3a0e 	.inst	0x3b0b3a0e ; undefined
 888:	490b390b 	.inst	0x490b390b ; undefined
 88c:	3c193f13 	str	b19, [x24, #-109]!
 890:	25000019 	cmpgt	p9.b, p0/z, z0.b, #0
 894:	08030034 	stxrb	w3, w20, [x1]
 898:	0b3b0b3a 	add	w26, w25, w27, uxtb #2
 89c:	13490b39 	.inst	0x13490b39 ; undefined
 8a0:	00001802 	.inst	0x00001802 ; undefined
 8a4:	3f002e26 	.inst	0x3f002e26 ; undefined
 8a8:	3a0e0319 	adcs	w25, w24, w14
 8ac:	390b3b0b 	strb	w11, [x24, #718]
 8b0:	1113490b 	add	w11, w8, #0x4d2
 8b4:	40071201 	.inst	0x40071201 ; undefined
 8b8:	00197a18 	.inst	0x00197a18 ; undefined
 8bc:	002e2700 	.inst	0x002e2700 ; NYI
 8c0:	0b3a0e03 	add	w3, w16, w26, uxtb #3
 8c4:	0b390b3b 	add	w27, w25, w25, uxtb #2
 8c8:	13491927 	.inst	0x13491927 ; undefined
 8cc:	07120111 	.inst	0x07120111 ; undefined
 8d0:	197a1840 	.inst	0x197a1840 ; undefined
 8d4:	2e280000 	uaddl	v0.8h, v0.8b, v8.8b
 8d8:	3a0e0301 	adcs	w1, w24, w14
 8dc:	39053b0b 	strb	w11, [x24, #334]
 8e0:	4919270b 	.inst	0x4919270b ; undefined
 8e4:	12011113 	and	w19, w8, #0x8000000f
 8e8:	7c184007 	stur	h7, [x0, #-124]
 8ec:	00130119 	.inst	0x00130119 ; undefined
 8f0:	00342900 	.inst	0x00342900 ; NYI
 8f4:	0b3a0e03 	add	w3, w16, w26, uxtb #3
 8f8:	0b39053b 	add	w27, w9, w25, uxtb #1
 8fc:	18021349 	ldr	w9, 4b64 <_start-0x1fb49c>
 900:	342a0000 	cbz	w0, 54900 <_start-0x1ab700>
 904:	490e0300 	.inst	0x490e0300 ; undefined
 908:	02193413 	.inst	0x02193413 ; undefined
 90c:	00000018 	.inst	0x00000018 ; undefined
 910:	03002801 	.inst	0x03002801 ; undefined
 914:	000b1c0e 	.inst	0x000b1c0e ; undefined
 918:	00050200 	.inst	0x00050200 ; undefined
 91c:	17021331 	b	fffffffffc0855e0 <__sel4_ipc_buffer_obj+0xfffffffffbe7e5e0>
 920:	001742b7 	.inst	0x001742b7 ; undefined
 924:	00340300 	.inst	0x00340300 ; NYI
 928:	0b3a0e03 	add	w3, w16, w26, uxtb #3
 92c:	0b390b3b 	add	w27, w25, w25, uxtb #2
 930:	00001349 	.inst	0x00001349 ; undefined
 934:	03000504 	.inst	0x03000504 ; undefined
 938:	3b0b3a0e 	.inst	0x3b0b3a0e ; undefined
 93c:	490b390b 	.inst	0x490b390b ; undefined
 940:	05000013 	orr	z19.s, z19.s, #0x1
 944:	13310034 	.inst	0x13310034 ; undefined
 948:	00001802 	.inst	0x00001802 ; undefined
 94c:	31003406 	adds	w6, w0, #0xd
 950:	b7170213 	tbnz	x19, #34, ffffffffffffe990 <__sel4_ipc_buffer_obj+0xffffffffffdf7990>
 954:	00001742 	.inst	0x00001742 ; undefined
 958:	03002807 	.inst	0x03002807 ; undefined
 95c:	000d1c0e 	.inst	0x000d1c0e ; undefined
 960:	00160800 	.inst	0x00160800 ; undefined
 964:	0b3a0e03 	add	w3, w16, w26, uxtb #3
 968:	0b390b3b 	add	w27, w25, w25, uxtb #2
 96c:	00001349 	.inst	0x00001349 ; undefined
 970:	0b002409 	add	w9, w0, w0, lsl #9
 974:	030b3e0b 	.inst	0x030b3e0b ; undefined
 978:	0a00000e 	and	w14, w0, w0
 97c:	08030005 	stxrb	w3, w5, [x0]
 980:	0b3b0b3a 	add	w26, w25, w27, uxtb #2
 984:	13490b39 	.inst	0x13490b39 ; undefined
 988:	1d0b0000 	.inst	0x1d0b0000 ; undefined
 98c:	52133101 	eor	w1, w8, #0x3ffe000
 990:	0b42b801 	.inst	0x0b42b801 ; undefined
 994:	07120111 	.inst	0x07120111 ; undefined
 998:	0b590b58 	add	w24, w26, w25, lsr #2
 99c:	13010b57 	sbfx	w23, w26, #1, #2
 9a0:	340c0000 	cbz	w0, 189a0 <_start-0x1e7660>
 9a4:	3a0e0300 	adcs	w0, w24, w14
 9a8:	390b3b0b 	strb	w11, [x24, #718]
 9ac:	3f13490b 	.inst	0x3f13490b ; undefined
 9b0:	00193c19 	.inst	0x00193c19 ; undefined
 9b4:	00050d00 	.inst	0x00050d00 ; undefined
 9b8:	00001331 	.inst	0x00001331 ; undefined
 9bc:	0200490e 	.inst	0x0200490e ; undefined
 9c0:	00187e18 	.inst	0x00187e18 ; undefined
 9c4:	00050f00 	.inst	0x00050f00 ; undefined
 9c8:	0b3a0e03 	add	w3, w16, w26, uxtb #3
 9cc:	0b39053b 	add	w27, w9, w25, uxtb #1
 9d0:	00001349 	.inst	0x00001349 ; undefined
 9d4:	03012e10 	.inst	0x03012e10 ; undefined
 9d8:	3b0b3a0e 	.inst	0x3b0b3a0e ; undefined
 9dc:	270b390b 	.inst	0x270b390b ; undefined
 9e0:	010b2019 	.inst	0x010b2019 ; undefined
 9e4:	11000013 	add	w19, w0, #0x0
 9e8:	0e030034 	tbl	v20.8b, {v1.16b}, v3.8b
 9ec:	053b0b3a 	ext	z26.b, z26.b, z25.b, #218
 9f0:	13490b39 	.inst	0x13490b39 ; undefined
 9f4:	01120000 	.inst	0x01120000 ; undefined
 9f8:	01134901 	.inst	0x01134901 ; undefined
 9fc:	13000013 	sbfx	w19, w0, #0, #1
 a00:	210b000f 	.inst	0x210b000f ; undefined
 a04:	00134908 	.inst	0x00134908 ; undefined
 a08:	00051400 	.inst	0x00051400 ; undefined
 a0c:	00001349 	.inst	0x00001349 ; undefined
 a10:	03010415 	.inst	0x03010415 ; undefined
 a14:	07213e0e 	.inst	0x07213e0e ; undefined
 a18:	4904210b 	.inst	0x4904210b ; undefined
 a1c:	3b0b3a13 	.inst	0x3b0b3a13 ; undefined
 a20:	010b390b 	.inst	0x010b390b ; undefined
 a24:	16000013 	b	fffffffff8000a70 <__sel4_ipc_buffer_obj+0xfffffffff7df9a70>
 a28:	13490026 	.inst	0x13490026 ; undefined
 a2c:	21170000 	.inst	0x21170000 ; undefined
 a30:	2f134900 	.inst	0x2f134900 ; undefined
 a34:	1800000b 	ldr	w11, a34 <_start-0x1ff5cc>
 a38:	0e03000d 	tbl	v13.8b, {v0.16b}, v3.8b
 a3c:	3b0f213a 	.inst	0x3b0f213a ; undefined
 a40:	0f21390b 	.inst	0x0f21390b ; undefined
 a44:	05381349 	ext	z9.b, z9.b, z26.b, #196
 a48:	34190000 	cbz	w0, 32a48 <_start-0x1cd5b8>
 a4c:	3a134700 	.inst	0x3a134700 ; undefined
 a50:	0b3b0121 	add	w1, w9, w27, uxtb
 a54:	18020b39 	ldr	w25, 4bb8 <_start-0x1fb448>
 a58:	481a0000 	stxrh	w26, w0, [x0]
 a5c:	7f017d01 	.inst	0x7f017d01 ; undefined
 a60:	1b000013 	madd	w19, w0, w0, w0
 a64:	1331011d 	.inst	0x1331011d ; undefined
 a68:	42b80152 	.inst	0x42b80152 ; undefined
 a6c:	1201110b 	and	w11, w8, #0x8000000f
 a70:	03215807 	.inst	0x03215807 ; undefined
 a74:	0b570559 	add	w25, w10, w23, lsr #1
 a78:	00001301 	.inst	0x00001301 ; undefined
 a7c:	31011d1c 	adds	w28, w8, #0x47
 a80:	b8015213 	stur	w19, [x16, #21]
 a84:	17550b42 	b	fffffffffd54378c <__sel4_ipc_buffer_obj+0xfffffffffd33c78c>
 a88:	0b590b58 	add	w24, w26, w25, lsr #2
 a8c:	13010b57 	sbfx	w23, w26, #1, #2
 a90:	0b1d0000 	add	w0, w0, w29
 a94:	00175501 	.inst	0x00175501 ; undefined
 a98:	00341e00 	.inst	0x00341e00 ; NYI
 a9c:	00001331 	.inst	0x00001331 ; undefined
 aa0:	3100051f 	cmn	w8, #0x1
 aa4:	000b1c13 	.inst	0x000b1c13 ; undefined
 aa8:	00342000 	.inst	0x00342000 ; NYI
 aac:	0b3a0803 	add	w3, w0, w26, uxtb #2
 ab0:	0b390b3b 	add	w27, w25, w25, uxtb #2
 ab4:	00001349 	.inst	0x00001349 ; undefined
 ab8:	03000521 	.inst	0x03000521 ; undefined
 abc:	01213a0e 	.inst	0x01213a0e ; undefined
 ac0:	0b390b3b 	add	w27, w25, w25, uxtb #2
 ac4:	17021349 	b	fffffffffc0857e8 <__sel4_ipc_buffer_obj+0xfffffffffbe7e7e8>
 ac8:	001742b7 	.inst	0x001742b7 ; undefined
 acc:	012e2200 	.inst	0x012e2200 ; undefined
 ad0:	0e03193f 	uzp1	v31.8b, v9.8b, v3.8b
 ad4:	0b3b0b3a 	add	w26, w25, w27, uxtb #2
 ad8:	27062139 	.inst	0x27062139 ; undefined
 adc:	01193c19 	.inst	0x01193c19 ; undefined
 ae0:	23000013 	.inst	0x23000013 ; undefined
 ae4:	0000010b 	.inst	0x0000010b ; undefined
 ae8:	03012e24 	.inst	0x03012e24 ; undefined
 aec:	3b0b3a0e 	.inst	0x3b0b3a0e ; undefined
 af0:	270b390b 	.inst	0x270b390b ; undefined
 af4:	20134919 	.inst	0x20134919 ; undefined
 af8:	13010321 	sbfiz	w1, w25, #31, #1
 afc:	04250000 	add	z0.b, z0.b, z5.b
 b00:	0b0b3e01 	add	w1, w16, w11, lsl #15
 b04:	3a13490b 	.inst	0x3a13490b ; undefined
 b08:	390b3b0b 	strb	w11, [x24, #718]
 b0c:	13010e21 	sbfx	w1, w17, #1, #3
 b10:	0d260000 	.inst	0x0d260000 ; undefined
 b14:	3a080300 	adcs	w0, w24, w8
 b18:	0b3b0f21 	add	w1, w25, w27, uxtb #3
 b1c:	13490b39 	.inst	0x13490b39 ; undefined
 b20:	00000b38 	.inst	0x00000b38 ; undefined
 b24:	31010b27 	adds	w7, w25, #0x42
 b28:	00175513 	.inst	0x00175513 ; undefined
 b2c:	011d2800 	.inst	0x011d2800 ; undefined
 b30:	01111331 	.inst	0x01111331 ; undefined
 b34:	0b580712 	add	w18, w24, w24, lsr #1
 b38:	21570b59 	.inst	0x21570b59 ; undefined
 b3c:	00130105 	.inst	0x00130105 ; undefined
 b40:	001d2900 	.inst	0x001d2900 ; undefined
 b44:	01521331 	.inst	0x01521331 ; undefined
 b48:	550b42b8 	.inst	0x550b42b8 ; undefined
 b4c:	05215817 	.inst	0x05215817 ; undefined
 b50:	57352159 	.inst	0x57352159 ; undefined
 b54:	00000521 	.inst	0x00000521 ; undefined
 b58:	31001d2a 	adds	w10, w9, #0x7
 b5c:	b8015213 	stur	w19, [x16, #21]
 b60:	01110b42 	.inst	0x01110b42 ; undefined
 b64:	21580712 	.inst	0x21580712 ; undefined
 b68:	30215905 	adr	x5, 43689 <_start-0x1bc977>
 b6c:	000c2157 	.inst	0x000c2157 ; undefined
 b70:	011d2b00 	.inst	0x011d2b00 ; undefined
 b74:	01521331 	.inst	0x01521331 ; undefined
 b78:	550b42b8 	.inst	0x550b42b8 ; undefined
 b7c:	03215817 	.inst	0x03215817 ; undefined
 b80:	21570559 	.inst	0x21570559 ; undefined
 b84:	00130105 	.inst	0x00130105 ; undefined
 b88:	012e2c00 	.inst	0x012e2c00 ; undefined
 b8c:	0e03193f 	uzp1	v31.8b, v9.8b, v3.8b
 b90:	3b01213a 	.inst	0x3b01213a ; undefined
 b94:	270b390b 	.inst	0x270b390b ; undefined
 b98:	11134919 	add	w25, w8, #0x4d2
 b9c:	40071201 	.inst	0x40071201 ; undefined
 ba0:	01197a18 	.inst	0x01197a18 ; undefined
 ba4:	2d000013 	stp	s19, s0, [x0]
 ba8:	13310034 	.inst	0x13310034 ; undefined
 bac:	0000211c 	.inst	0x0000211c ; undefined
 bb0:	01482e00 	.inst	0x01482e00 ; undefined
 bb4:	137f017d 	.inst	0x137f017d ; undefined
 bb8:	00001301 	.inst	0x00001301 ; undefined
 bbc:	03012e2f 	.inst	0x03012e2f ; undefined
 bc0:	3b0b3a0e 	.inst	0x3b0b3a0e ; undefined
 bc4:	270b3905 	.inst	0x270b3905 ; undefined
 bc8:	20134919 	.inst	0x20134919 ; undefined
 bcc:	13010321 	sbfiz	w1, w25, #31, #1
 bd0:	11300000 	add	w0, w0, #0xc00
 bd4:	130e2501 	sbfiz	w1, w8, #18, #10
 bd8:	1b1f030b 	madd	w11, w24, wzr, w0
 bdc:	1117551f 	add	wsp, w8, #0x5d5
 be0:	00171001 	.inst	0x00171001 ; undefined
 be4:	00243100 	.inst	0x00243100 ; NYI
 be8:	0b3e0b0b 	add	w11, w24, w30, uxtb #2
 bec:	00000803 	.inst	0x00000803 ; undefined
 bf0:	03002832 	.inst	0x03002832 ; undefined
 bf4:	00071c0e 	.inst	0x00071c0e ; undefined
 bf8:	00343300 	.inst	0x00343300 ; NYI
 bfc:	0b3a0e03 	add	w3, w16, w26, uxtb #3
 c00:	0b390b3b 	add	w27, w25, w25, uxtb #2
 c04:	0b1c1349 	add	w9, w26, w28, lsl #4
 c08:	13340000 	.inst	0x13340000 ; undefined
 c0c:	0b0e0301 	add	w1, w24, w14
 c10:	3b0b3a0b 	.inst	0x3b0b3a0b ; undefined
 c14:	010b3905 	.inst	0x010b3905 ; undefined
 c18:	35000013 	cbnz	w19, c18 <_start-0x1ff3e8>
 c1c:	0e03000d 	tbl	v13.8b, {v0.16b}, v3.8b
 c20:	053b0b3a 	ext	z26.b, z26.b, z25.b, #218
 c24:	13490b39 	.inst	0x13490b39 ; undefined
 c28:	00000b38 	.inst	0x00000b38 ; undefined
 c2c:	03001636 	.inst	0x03001636 ; undefined
 c30:	3b0b3a0e 	.inst	0x3b0b3a0e ; undefined
 c34:	490b3905 	.inst	0x490b3905 ; undefined
 c38:	37000013 	tbnz	w19, #0, c38 <_start-0x1ff3c8>
 c3c:	0e030113 	tbl	v19.8b, {v8.16b}, v3.8b
 c40:	0b3a050b 	add	w11, w8, w26, uxtb #1
 c44:	0b390b3b 	add	w27, w25, w25, uxtb #2
 c48:	00001301 	.inst	0x00001301 ; undefined
 c4c:	03001638 	.inst	0x03001638 ; undefined
 c50:	3b0b3a0e 	.inst	0x3b0b3a0e ; undefined
 c54:	490b390b 	.inst	0x490b390b ; undefined
 c58:	05018813 	orr	z19.s, z19.s, #0x8000
 c5c:	34390000 	cbz	w0, 72c5c <_start-0x18d3a4>
 c60:	3a0e0300 	adcs	w0, w24, w14
 c64:	390b3b0b 	strb	w11, [x24, #718]
 c68:	3f13490b 	.inst	0x3f13490b ; undefined
 c6c:	00180219 	.inst	0x00180219 ; undefined
 c70:	00213a00 	.inst	0x00213a00 ; NYI
 c74:	153b0000 	b	4ec0c74 <__sel4_ipc_buffer_obj+0x4cb9c74>
 c78:	00192700 	.inst	0x00192700 ; undefined
 c7c:	002e3c00 	.inst	0x002e3c00 ; NYI
 c80:	0e03193f 	uzp1	v31.8b, v9.8b, v3.8b
 c84:	0b3b0b3a 	add	w26, w25, w27, uxtb #2
 c88:	19270b39 	.inst	0x19270b39 ; undefined
 c8c:	0000193c 	.inst	0x0000193c ; undefined
 c90:	3f012e3d 	.inst	0x3f012e3d ; undefined
 c94:	3a0e0319 	adcs	w25, w24, w14
 c98:	390b3b0b 	strb	w11, [x24, #718]
 c9c:	1119270b 	add	w11, w24, #0x649
 ca0:	40071201 	.inst	0x40071201 ; undefined
 ca4:	01197a18 	.inst	0x01197a18 ; undefined
 ca8:	3e000013 	.inst	0x3e000013 ; undefined
 cac:	017d0048 	.inst	0x017d0048 ; undefined
 cb0:	00180183 	.inst	0x00180183 ; undefined
 cb4:	011d3f00 	.inst	0x011d3f00 ; undefined
 cb8:	01111331 	.inst	0x01111331 ; undefined
 cbc:	0b580712 	add	w18, w24, w24, lsr #1
 cc0:	0b570b59 	add	w25, w26, w23, lsr #2
 cc4:	0b400000 	add	w0, w0, w0, lsr #0
 cc8:	55133101 	.inst	0x55133101 ; undefined
 ccc:	00130117 	.inst	0x00130117 ; undefined
 cd0:	011d4100 	.inst	0x011d4100 ; undefined
 cd4:	01521331 	.inst	0x01521331 ; undefined
 cd8:	110b42b8 	add	w24, w21, #0x2d0
 cdc:	58071201 	ldr	x1, ef1c <_start-0x1f10e4>
 ce0:	570b590b 	.inst	0x570b590b ; undefined
 ce4:	4200000b 	.inst	0x4200000b ; undefined
 ce8:	1331010b 	.inst	0x1331010b ; undefined
 cec:	07120111 	.inst	0x07120111 ; undefined
 cf0:	00001301 	.inst	0x00001301 ; undefined
 cf4:	31011d43 	adds	w3, w10, #0x47
 cf8:	12011113 	and	w19, w8, #0x8000000f
 cfc:	590b5807 	.inst	0x590b5807 ; undefined
 d00:	010b5705 	.inst	0x010b5705 ; undefined
 d04:	44000013 	.inst	0x44000013 ; undefined
 d08:	1331011d 	.inst	0x1331011d ; undefined
 d0c:	07120111 	.inst	0x07120111 ; undefined
 d10:	05590b58 	mov	z24.h, p9/z, #90
 d14:	00000b57 	.inst	0x00000b57 ; undefined
 d18:	7d004845 	str	h5, [x2, #36]
 d1c:	00137f01 	.inst	0x00137f01 ; undefined
 d20:	010b4600 	.inst	0x010b4600 ; undefined
 d24:	00001301 	.inst	0x00001301 ; undefined
 d28:	03000547 	.inst	0x03000547 ; undefined
 d2c:	3b0b3a08 	.inst	0x3b0b3a08 ; undefined
 d30:	490b390b 	.inst	0x490b390b ; undefined
 d34:	b7170213 	tbnz	x19, #34, ffffffffffffed74 <__sel4_ipc_buffer_obj+0xffffffffffdf7d74>
 d38:	00001742 	.inst	0x00001742 ; undefined
 d3c:	03000548 	.inst	0x03000548 ; undefined
 d40:	3b0b3a08 	.inst	0x3b0b3a08 ; undefined
 d44:	490b3905 	.inst	0x490b3905 ; undefined
 d48:	49000013 	.inst	0x49000013 ; undefined
 d4c:	0e03002e 	tbl	v14.8b, {v1.16b}, v3.8b
 d50:	0b3b0b3a 	add	w26, w25, w27, uxtb #2
 d54:	19270b39 	.inst	0x19270b39 ; undefined
 d58:	0b201349 	add	w9, w26, w0, uxtb #4
 d5c:	344a0000 	cbz	w0, 94d5c <_start-0x16b2a4>
 d60:	490e0300 	.inst	0x490e0300 ; undefined
 d64:	1c193413 	ldr	s19, 333e4 <_start-0x1ccc1c>
 d68:	0000000e 	.inst	0x0000000e ; undefined
 d6c:	10001101 	adr	x1, f8c <_start-0x1ff074>
 d70:	12011106 	and	w6, w8, #0x8000000f
 d74:	1b0e0301 	madd	w1, w24, w14, w0
 d78:	130e250e 	sbfiz	w14, w8, #18, #10
 d7c:	00000005 	.inst	0x00000005 ; undefined
 d80:	31000501 	adds	w1, w8, #0x1
 d84:	b7170213 	tbnz	x19, #34, ffffffffffffedc4 <__sel4_ipc_buffer_obj+0xffffffffffdf7dc4>
 d88:	00001742 	.inst	0x00001742 ; undefined
 d8c:	31003402 	adds	w2, w0, #0xd
 d90:	00180213 	.inst	0x00180213 ; undefined
 d94:	00340300 	.inst	0x00340300 ; NYI
 d98:	17021331 	b	fffffffffc085a5c <__sel4_ipc_buffer_obj+0xfffffffffbe7ea5c>
 d9c:	001742b7 	.inst	0x001742b7 ; undefined
 da0:	00280400 	.inst	0x00280400 ; NYI
 da4:	0d1c0e03 	.inst	0x0d1c0e03 ; undefined
 da8:	1d050000 	.inst	0x1d050000 ; undefined
 dac:	52133101 	eor	w1, w8, #0x3ffe000
 db0:	0542b801 	eor	z1.d, z1.d, #0x20000000000
 db4:	07120111 	.inst	0x07120111 ; undefined
 db8:	59012158 	.inst	0x59012158 ; undefined
 dbc:	000b570b 	.inst	0x000b570b ; undefined
 dc0:	00050600 	.inst	0x00050600 ; undefined
 dc4:	213a0e03 	.inst	0x213a0e03 ; undefined
 dc8:	390b3b03 	strb	w3, [x24, #718]
 dcc:	0013490b 	.inst	0x0013490b ; undefined
 dd0:	00240700 	.inst	0x00240700 ; NYI
 dd4:	0b3e0b0b 	add	w11, w24, w30, uxtb #2
 dd8:	00000e03 	.inst	0x00000e03 ; undefined
 ddc:	03002808 	.inst	0x03002808 ; undefined
 de0:	000b1c0e 	.inst	0x000b1c0e ; undefined
 de4:	011d0900 	.inst	0x011d0900 ; undefined
 de8:	01521331 	.inst	0x01521331 ; undefined
 dec:	110542b8 	add	w24, w21, #0x150
 df0:	58071201 	ldr	x1, f030 <_start-0x1f0fd0>
 df4:	21590221 	.inst	0x21590221 ; undefined
 df8:	215704c8 	.inst	0x215704c8 ; undefined
 dfc:	0a000005 	and	w5, w0, w0
 e00:	0e030034 	tbl	v20.8b, {v1.16b}, v3.8b
 e04:	3b03213a 	.inst	0x3b03213a ; undefined
 e08:	490b390b 	.inst	0x490b390b ; undefined
 e0c:	0b000013 	add	w19, w0, w0
 e10:	0e030034 	tbl	v20.8b, {v1.16b}, v3.8b
 e14:	3b02213a 	.inst	0x3b02213a ; undefined
 e18:	0f213905 	.inst	0x0f213905 ; undefined
 e1c:	00001349 	.inst	0x00001349 ; undefined
 e20:	31011d0c 	adds	w12, w8, #0x47
 e24:	12011113 	and	w19, w8, #0x8000000f
 e28:	01215807 	.inst	0x01215807 ; undefined
 e2c:	21570b59 	.inst	0x21570b59 ; undefined
 e30:	00130105 	.inst	0x00130105 ; undefined
 e34:	00160d00 	.inst	0x00160d00 ; undefined
 e38:	0b3a0e03 	add	w3, w16, w26, uxtb #3
 e3c:	0b390b3b 	add	w27, w25, w25, uxtb #2
 e40:	00001349 	.inst	0x00001349 ; undefined
 e44:	0300050e 	.inst	0x0300050e ; undefined
 e48:	01213a0e 	.inst	0x01213a0e ; undefined
 e4c:	3920213b 	strb	w27, [x9, #2056]
 e50:	0213490b 	.inst	0x0213490b ; undefined
 e54:	1742b717 	b	fffffffffd0aeab0 <__sel4_ipc_buffer_obj+0xfffffffffcea7ab0>
 e58:	050f0000 	.inst	0x050f0000 ; undefined
 e5c:	3a080300 	adcs	w0, w24, w8
 e60:	390b3b0b 	strb	w11, [x24, #718]
 e64:	0013490b 	.inst	0x0013490b ; undefined
 e68:	00261000 	.inst	0x00261000 ; NYI
 e6c:	00001349 	.inst	0x00001349 ; undefined
 e70:	0b000f11 	add	w17, w24, w0, lsl #3
 e74:	13490821 	.inst	0x13490821 ; undefined
 e78:	2e120000 	ext	v0.8b, v0.8b, v18.8b, #0
 e7c:	03193f01 	.inst	0x03193f01 ; undefined
 e80:	01213a0e 	.inst	0x01213a0e ; undefined
 e84:	21390b3b 	.inst	0x21390b3b ; undefined
 e88:	20192701 	.inst	0x20192701 ; undefined
 e8c:	13010121 	sbfiz	w1, w9, #31, #1
 e90:	2e130000 	ext	v0.8b, v0.8b, v19.8b, #0
 e94:	11133101 	add	w1, w8, #0x4cc
 e98:	40071201 	.inst	0x40071201 ; undefined
 e9c:	01197a18 	.inst	0x01197a18 ; undefined
 ea0:	14000013 	b	eec <_start-0x1ff114>
 ea4:	18020036 	ldr	w22, 4ea8 <_start-0x1fb158>
 ea8:	11150000 	add	w0, w0, #0x540
 eac:	130e2501 	sbfiz	w1, w8, #18, #10
 eb0:	1b1f030b 	madd	w11, w24, wzr, w0
 eb4:	1201111f 	and	wsp, w8, #0x8000000f
 eb8:	00171007 	.inst	0x00171007 ; undefined
 ebc:	00241600 	.inst	0x00241600 ; NYI
 ec0:	0b3e0b0b 	add	w11, w24, w30, uxtb #2
 ec4:	00000803 	.inst	0x00000803 ; undefined
 ec8:	3e010417 	.inst	0x3e010417 ; undefined
 ecc:	490b0b0b 	.inst	0x490b0b0b ; undefined
 ed0:	3b0b3a13 	.inst	0x3b0b3a13 ; undefined
 ed4:	010b390b 	.inst	0x010b390b ; undefined
 ed8:	18000013 	ldr	w19, ed8 <_start-0x1ff128>
 edc:	0e030028 	tbl	v8.8b, {v1.16b}, v3.8b
 ee0:	0000071c 	.inst	0x0000071c ; undefined
 ee4:	03010419 	.inst	0x03010419 ; undefined
 ee8:	0b0b3e0e 	add	w14, w16, w11, lsl #15
 eec:	3a13490b 	.inst	0x3a13490b ; undefined
 ef0:	390b3b0b 	strb	w11, [x24, #718]
 ef4:	0013010b 	.inst	0x0013010b ; undefined
 ef8:	00341a00 	.inst	0x00341a00 ; NYI
 efc:	0b3a0e03 	add	w3, w16, w26, uxtb #3
 f00:	0b390b3b 	add	w27, w25, w25, uxtb #2
 f04:	0b1c1349 	add	w9, w26, w28, lsl #4
 f08:	2e1b0000 	ext	v0.8b, v0.8b, v27.8b, #0
 f0c:	03193f01 	.inst	0x03193f01 ; undefined
 f10:	3b0b3a0e 	.inst	0x3b0b3a0e ; undefined
 f14:	270b390b 	.inst	0x270b390b ; undefined
 f18:	12011119 	and	w25, w8, #0x8000000f
 f1c:	7a184007 	.inst	0x7a184007 ; undefined
 f20:	00130119 	.inst	0x00130119 ; undefined
 f24:	00051c00 	.inst	0x00051c00 ; undefined
 f28:	0b3a0803 	add	w3, w0, w26, uxtb #2
 f2c:	0b390b3b 	add	w27, w25, w25, uxtb #2
 f30:	17021349 	b	fffffffffc085c54 <__sel4_ipc_buffer_obj+0xfffffffffbe7ec54>
 f34:	001742b7 	.inst	0x001742b7 ; undefined
 f38:	011d1d00 	.inst	0x011d1d00 ; undefined
 f3c:	01521331 	.inst	0x01521331 ; undefined
 f40:	550542b8 	.inst	0x550542b8 ; undefined
 f44:	590b5817 	.inst	0x590b5817 ; undefined
 f48:	010b570b 	.inst	0x010b570b ; undefined
 f4c:	1e000013 	.inst	0x1e000013 ; undefined
 f50:	1331011d 	.inst	0x1331011d ; undefined
 f54:	07120111 	.inst	0x07120111 ; undefined
 f58:	0b590b58 	add	w24, w26, w25, lsr #2
 f5c:	00000b57 	.inst	0x00000b57 ; undefined
 f60:	03012e1f 	.inst	0x03012e1f ; undefined
 f64:	3b0b3a0e 	.inst	0x3b0b3a0e ; undefined
 f68:	270b3905 	.inst	0x270b3905 ; undefined
 f6c:	010b2019 	.inst	0x010b2019 ; undefined
 f70:	20000013 	.inst	0x20000013 ; undefined
 f74:	08030005 	stxrb	w3, w5, [x0]
 f78:	053b0b3a 	ext	z26.b, z26.b, z25.b, #218
 f7c:	13490b39 	.inst	0x13490b39 ; undefined
 f80:	2e210000 	uaddl	v0.8h, v0.8b, v1.8b
 f84:	3a0e0301 	adcs	w1, w24, w14
 f88:	390b3b0b 	strb	w11, [x24, #718]
 f8c:	2019270b 	.inst	0x2019270b ; undefined
 f90:	0013010b 	.inst	0x0013010b ; undefined
 f94:	011d2200 	.inst	0x011d2200 ; undefined
 f98:	01521331 	.inst	0x01521331 ; undefined
 f9c:	550542b8 	.inst	0x550542b8 ; undefined
 fa0:	590b5817 	.inst	0x590b5817 ; undefined
 fa4:	000b5705 	.inst	0x000b5705 ; undefined
 fa8:	010b2300 	.inst	0x010b2300 ; undefined
 fac:	00001755 	.inst	0x00001755 ; undefined
	...

Disassembly of section .debug_aranges:

0000000000000000 <.debug_aranges>:
   0:	0000002c 	.inst	0x0000002c ; undefined
   4:	00000002 	.inst	0x00000002 ; undefined
   8:	00080000 	.inst	0x00080000 ; undefined
   c:	00000000 	.inst	0x00000000 ; undefined
  10:	00200004 	.inst	0x00200004 ; NYI
  14:	00000000 	.inst	0x00000000 ; undefined
  18:	00002b18 	.inst	0x00002b18 ; undefined
	...
  30:	0000002c 	.inst	0x0000002c ; undefined
  34:	0e990002 	.inst	0x0e990002 ; undefined
  38:	00080000 	.inst	0x00080000 ; undefined
  3c:	00000000 	.inst	0x00000000 ; undefined
  40:	00202b1c 	.inst	0x00202b1c ; NYI
  44:	00000000 	.inst	0x00000000 ; undefined
  48:	00000c04 	.inst	0x00000c04 ; undefined
	...
  60:	0000002c 	.inst	0x0000002c ; undefined
  64:	1f560002 	fmadd	d2, d0, d22, d0
  68:	00080000 	.inst	0x00080000 ; undefined
  6c:	00000000 	.inst	0x00000000 ; undefined
  70:	00203720 	.inst	0x00203720 ; NYI
  74:	00000000 	.inst	0x00000000 ; undefined
  78:	00000024 	.inst	0x00000024 ; undefined
	...
  90:	0000002c 	.inst	0x0000002c ; undefined
  94:	205f0002 	.inst	0x205f0002 ; undefined
  98:	00080000 	.inst	0x00080000 ; undefined
  9c:	00000000 	.inst	0x00000000 ; undefined
  a0:	00203744 	.inst	0x00203744 ; NYI
  a4:	00000000 	.inst	0x00000000 ; undefined
  a8:	0000079c 	.inst	0x0000079c ; undefined
	...
  c0:	0000003c 	.inst	0x0000003c ; undefined
  c4:	2bdf0002 	.inst	0x2bdf0002 ; undefined
  c8:	00080000 	.inst	0x00080000 ; undefined
  cc:	00000000 	.inst	0x00000000 ; undefined
  d0:	00203ee0 	.inst	0x00203ee0 ; NYI
  d4:	00000000 	.inst	0x00000000 ; undefined
  d8:	0000005c 	.inst	0x0000005c ; undefined
  dc:	00000000 	.inst	0x00000000 ; undefined
  e0:	00203f40 	.inst	0x00203f40 ; NYI
  e4:	00000000 	.inst	0x00000000 ; undefined
  e8:	00000154 	.inst	0x00000154 ; undefined
	...
 100:	0000002c 	.inst	0x0000002c ; undefined
 104:	424e0002 	.inst	0x424e0002 ; undefined
 108:	00080000 	.inst	0x00080000 ; undefined
 10c:	00000000 	.inst	0x00000000 ; undefined
 110:	00200000 	.inst	0x00200000 ; NYI
 114:	00000000 	.inst	0x00000000 ; undefined
 118:	00000004 	.inst	0x00000004 ; undefined
	...
 130:	0000002c 	.inst	0x0000002c ; undefined
 134:	427c0002 	.inst	0x427c0002 ; undefined
 138:	00080000 	.inst	0x00080000 ; undefined
 13c:	00000000 	.inst	0x00000000 ; undefined
 140:	002040a0 	.inst	0x002040a0 ; NYI
 144:	00000000 	.inst	0x00000000 ; undefined
 148:	000001b8 	.inst	0x000001b8 ; undefined
	...

Disassembly of section .debug_line:

0000000000000000 <.debug_line>:
       0:	00000b5f 	.inst	0x00000b5f ; undefined
       4:	00d50002 	.inst	0x00d50002 ; undefined
       8:	01040000 	.inst	0x01040000 ; undefined
       c:	000d0efb 	.inst	0x000d0efb ; undefined
      10:	01010101 	.inst	0x01010101 ; undefined
      14:	01000000 	.inst	0x01000000 ; undefined
      18:	2e010000 	ext	v0.8b, v0.8b, v1.8b, #0
      1c:	6f2f002e 	.inst	0x6f2f002e ; undefined
      20:	682f7470 	.inst	0x682f7470 ; undefined
      24:	62656d6f 	.inst	0x62656d6f ; undefined
      28:	2f776572 	.inst	0x2f776572 ; undefined
      2c:	6c6c6543 	ldnp	d3, d25, [x10, #-320]
      30:	612f7261 	.inst	0x612f7261 ; undefined
      34:	68637261 	.inst	0x68637261 ; undefined
      38:	752d3436 	.inst	0x752d3436 ; undefined
      3c:	6f6e6b6e 	umlsl2	v14.4s, v27.8h, v14.h[6]
      40:	6c2d6e77 	stnp	d23, d27, [x19, #-304]
      44:	78756e69 	.inst	0x78756e69 ; undefined
      48:	756e672d 	.inst	0x756e672d ; undefined
      4c:	2e33312f 	usubw	v15.8h, v9.8h, v19.8b
      50:	2f302e33 	.inst	0x2f302e33 ; undefined
      54:	6c6f6f74 	ldnp	d20, d27, [x27, #-272]
      58:	69616863 	ldpsw	x3, x26, [x3, #-248]
      5c:	696c2f6e 	ldpsw	x14, x11, [x27, #-160]
      60:	63672f62 	.inst	0x63672f62 ; undefined
      64:	61612f63 	.inst	0x61612f63 ; undefined
      68:	36686372 	tbz	w18, #13, cd4 <_start-0x1ff32c>
      6c:	6e752d34 	uqsub	v20.8h, v9.8h, v21.8h
      70:	776f6e6b 	.inst	0x776f6e6b ; undefined
      74:	696c2d6e 	ldpsw	x14, x11, [x11, #-160]
      78:	2d78756e 	ldp	s14, s29, [x11, #-64]
      7c:	2f756e67 	.inst	0x2f756e67 ; undefined
      80:	332e3331 	.inst	0x332e3331 ; undefined
      84:	692f302e 	.inst	0x692f302e ; undefined
      88:	756c636e 	.inst	0x756c636e ; undefined
      8c:	00006564 	.inst	0x00006564 ; undefined
      90:	6e697270 	uabdl2	v16.4s, v19.8h, v9.8h
      94:	632e6674 	.inst	0x632e6674 ; undefined
      98:	00000100 	.inst	0x00000100 ; undefined
      9c:	69647473 	ldpsw	x19, x29, [x3, #-224]
      a0:	672d746e 	.inst	0x672d746e ; undefined
      a4:	682e6363 	.inst	0x682e6363 ; undefined
      a8:	00000200 	.inst	0x00000200 ; undefined
      ac:	61647473 	.inst	0x61647473 ; undefined
      b0:	682e6772 	.inst	0x682e6772 ; undefined
      b4:	00000200 	.inst	0x00000200 ; undefined
      b8:	64647473 	.inst	0x64647473 ; undefined
      bc:	682e6665 	.inst	0x682e6665 ; undefined
      c0:	00000200 	.inst	0x00000200 ; undefined
      c4:	6975623c 	ldpsw	x28, x24, [x17, #-88]
      c8:	692d746c 	.inst	0x692d746c ; undefined
      cc:	00003e6e 	.inst	0x00003e6e ; undefined
      d0:	72700000 	.inst	0x72700000 ; undefined
      d4:	66746e69 	.inst	0x66746e69 ; undefined
      d8:	0100682e 	.inst	0x0100682e ; undefined
      dc:	05000000 	orr	z0.s, z0.s, #0x1
      e0:	02090001 	.inst	0x02090001 ; undefined
      e4:	00200004 	.inst	0x00200004 ; NYI
      e8:	00000000 	.inst	0x00000000 ; undefined
      ec:	01018503 	.inst	0x01018503 ; undefined
      f0:	05590605 	mov	z5.h, p9/z, #48
      f4:	1a054b14 	.inst	0x1a054b14 ; undefined
      f8:	3001053c 	adr	x28, 219d <_start-0x1fde63>
      fc:	05415a41 	eor	z1.s, z1.s, #0xffe000ff
     100:	05056806 	.inst	0x05056806 ; undefined
     104:	3001053d 	adr	x29, 21a9 <_start-0x1fde57>
     108:	68060541 	.inst	0x68060541 ; undefined
     10c:	053e2105 	mov	z5.h, z8.h[7]
     110:	01052e06 	.inst	0x01052e06 ; undefined
     114:	0a05425a 	and	w26, w18, w5, lsl #16
     118:	2e03053e 	.inst	0x2e03053e ; undefined
     11c:	02002205 	.inst	0x02002205 ; undefined
     120:	05200404 	ext	z4.b, z4.b, z0.b, #1
     124:	04020011 	.inst	0x04020011 ; undefined
     128:	14053c01 	b	14f12c <_start-0xb0ed4>
     12c:	01040200 	.inst	0x01040200 ; undefined
     130:	001e052e 	.inst	0x001e052e ; undefined
     134:	2e030402 	.inst	0x2e030402 ; undefined
     138:	02001405 	.inst	0x02001405 ; undefined
     13c:	053c0304 	ext	z4.b, z4.b, z24.b, #224
     140:	01052f1b 	.inst	0x01052f1b ; undefined
     144:	1605343d 	b	fffffffff814d238 <__sel4_ipc_buffer_obj+0xfffffffff7f46238>
     148:	0402002f 	.inst	0x0402002f ; undefined
     14c:	003c0601 	.inst	0x003c0601 ; NYI
     150:	3c030402 	str	b2, [x0], #48
     154:	04020020 	.inst	0x04020020 ; undefined
     158:	02002004 	.inst	0x02002004 ; undefined
     15c:	05200604 	ext	z4.b, z4.b, z16.b, #1
     160:	332f0601 	.inst	0x332f0601 ; undefined
     164:	053d1005 	ext	z5.b, z5.b, z0.b, #236
     168:	0b052109 	add	w9, w8, w5, lsl #8
     16c:	3c250521 	.inst	0x3c250521 ; undefined
     170:	052e2a05 	.inst	0x052e2a05 ; undefined
     174:	11053c22 	add	w2, w1, #0x14f
     178:	20070520 	.inst	0x20070520 ; undefined
     17c:	052d1505 	ext	z5.b, z5.b, z8.b, #109
     180:	02002e0a 	.inst	0x02002e0a ; undefined
     184:	3c060104 	stur	b4, [x8, #96]
     188:	01053f06 	.inst	0x01053f06 ; undefined
     18c:	10053321 	adr	x1, a7f0 <_start-0x1f5810>
     190:	310f059f 	cmn	w12, #0x3c1
     194:	052e0605 	ext	z5.b, z5.b, z16.b, #113
     198:	04020028 	.inst	0x04020028 ; undefined
     19c:	1d052e01 	.inst	0x1d052e01 ; undefined
     1a0:	01040200 	.inst	0x01040200 ; undefined
     1a4:	2f11052e 	ushr	v14.4h, v9.4h, #15
     1a8:	052e0505 	ext	z5.b, z5.b, z8.b, #113
     1ac:	26052107 	.inst	0x26052107 ; undefined
     1b0:	03040200 	.inst	0x03040200 ; undefined
     1b4:	001c058f 	.inst	0x001c058f ; undefined
     1b8:	3c010402 	str	b2, [x0], #16
     1bc:	05500905 	mov	z5.h, p0/z, #72
     1c0:	0c052105 	.inst	0x0c052105 ; undefined
     1c4:	3c05053c 	str	b28, [x9], #80
     1c8:	059d0a05 	mov	z5.s, p13/z, #80
     1cc:	0605410d 	.inst	0x0605410d ; undefined
     1d0:	2f0b052e 	ushr	v14.8b, v9.8b, #5
     1d4:	05210705 	ext	z5.b, z5.b, z24.b, #9
     1d8:	1c058f10 	ldr	s16, b3b8 <_start-0x1f4c48>
     1dc:	410a053c 	.inst	0x410a053c ; undefined
     1e0:	33210105 	.inst	0x33210105 ; undefined
     1e4:	05a00f05 	.inst	0x05a00f05 ; undefined
     1e8:	08052e06 	stxrb	w5, w6, [x16]
     1ec:	0019052f 	.inst	0x0019052f ; undefined
     1f0:	3c010402 	str	b2, [x0], #16
     1f4:	02000f05 	.inst	0x02000f05 ; undefined
     1f8:	052e0104 	ext	z4.b, z4.b, z8.b, #112
     1fc:	0402002a 	.inst	0x0402002a ; undefined
     200:	41052e02 	.inst	0x41052e02 ; undefined
     204:	03040200 	.inst	0x03040200 ; undefined
     208:	0037054a 	.inst	0x0037054a ; NYI
     20c:	2e030402 	.inst	0x2e030402 ; undefined
     210:	052f0c05 	ext	z5.b, z5.b, z0.b, #123
     214:	0e053e0b 	umov	w11, v16.b[2]
     218:	3c0a0521 	str	b1, [x9], #160
     21c:	052e1205 	ext	z5.b, z5.b, z16.b, #116
     220:	19052d11 	.inst	0x19052d11 ; undefined
     224:	04020020 	.inst	0x04020020 ; undefined
     228:	053c0601 	ext	z1.b, z1.b, z16.b, #225
     22c:	053f060b 	ext	z11.b, z11.b, z16.b, #249
     230:	0a05210e 	and	w14, w8, w5, lsl #8
     234:	2e12053c 	.inst	0x2e12053c ; undefined
     238:	052d1305 	ext	z5.b, z5.b, z24.b, #108
     23c:	2c052e35 	stnp	s21, s11, [x17, #40]
     240:	01040200 	.inst	0x01040200 ; undefined
     244:	0024052e 	.inst	0x0024052e ; NYI
     248:	20010402 	.inst	0x20010402 ; undefined
     24c:	02003505 	.inst	0x02003505 ; undefined
     250:	053c0204 	ext	z4.b, z4.b, z16.b, #224
     254:	0605420d 	.inst	0x0605420d ; undefined
     258:	2f11052e 	ushr	v14.4h, v9.4h, #15
     25c:	052e0805 	ext	z5.b, z5.b, z0.b, #114
     260:	04020024 	.inst	0x04020024 ; undefined
     264:	34052e01 	cbz	w1, a824 <_start-0x1f57dc>
     268:	02040200 	.inst	0x02040200 ; undefined
     26c:	002b053c 	.inst	0x002b053c ; NYI
     270:	20020402 	.inst	0x20020402 ; undefined
     274:	02004505 	.inst	0x02004505 ; undefined
     278:	053c0304 	ext	z4.b, z4.b, z24.b, #224
     27c:	0402003d 	.inst	0x0402003d ; undefined
     280:	0a052003 	and	w3, w0, w5, lsl #8
     284:	0f053d3d 	.inst	0x0f053d3d ; undefined
     288:	01040200 	.inst	0x01040200 ; undefined
     28c:	3d0c053c 	str	b28, [x9, #769]
     290:	053f0805 	ext	z5.b, z5.b, z0.b, #250
     294:	04020022 	.inst	0x04020022 ; undefined
     298:	17053c01 	b	fffffffffc14f29c <__sel4_ipc_buffer_obj+0xfffffffffbf4829c>
     29c:	01040200 	.inst	0x01040200 ; undefined
     2a0:	0035052e 	.inst	0x0035052e ; NYI
     2a4:	2e020402 	.inst	0x2e020402 ; undefined
     2a8:	053d0e05 	ext	z5.b, z5.b, z16.b, #235
     2ac:	12053c0a 	and	w10, w0, #0xf80007ff
     2b0:	3e0d052e 	.inst	0x3e0d052e ; undefined
     2b4:	02002605 	.inst	0x02002605 ; undefined
     2b8:	053c0104 	ext	z4.b, z4.b, z8.b, #224
     2bc:	0402001c 	.inst	0x0402001c ; undefined
     2c0:	39052e01 	strb	w1, [x16, #331]
     2c4:	02040200 	.inst	0x02040200 ; undefined
     2c8:	3d0e052e 	str	b14, [x9, #897]
     2cc:	053c0a05 	ext	z5.b, z5.b, z16.b, #226
     2d0:	0d052e12 	.inst	0x0d052e12 ; undefined
     2d4:	001b053e 	.inst	0x001b053e ; undefined
     2d8:	3c010402 	str	b2, [x0], #16
     2dc:	053d0e05 	ext	z5.b, z5.b, z16.b, #235
     2e0:	12053c0a 	and	w10, w0, #0xf80007ff
     2e4:	3008052e 	adr	x14, 10389 <_start-0x1efc77>
     2e8:	053d0e05 	ext	z5.b, z5.b, z16.b, #235
     2ec:	12053c0a 	and	w10, w0, #0xf80007ff
     2f0:	3206052e 	orr	w14, w9, #0xc000000
     2f4:	053d0805 	ext	z5.b, z5.b, z0.b, #234
     2f8:	0a054b0e 	and	w14, w24, w5, lsl #18
     2fc:	2e12053c 	.inst	0x2e12053c ; undefined
     300:	053e1405 	ext	z5.b, z5.b, z0.b, #245
     304:	0e052e0d 	smov	w13, v16.b[2]
     308:	3c0a052f 	str	b15, [x9], #160
     30c:	052e1205 	ext	z5.b, z5.b, z16.b, #116
     310:	0d053e14 	.inst	0x0d053e14 ; undefined
     314:	2f0e052e 	ushr	v14.8b, v9.8b, #2
     318:	053c0a05 	ext	z5.b, z5.b, z16.b, #226
     31c:	0a052e12 	and	w18, w16, w5, lsl #11
     320:	91010532 	add	x18, x9, #0x41
     324:	ae0a0533 	.inst	0xae0a0533 ; undefined
     328:	05230605 	ext	z5.b, z5.b, z16.b, #25
     32c:	0f053d0b 	.inst	0x0f053d0b ; undefined
     330:	2e060540 	.inst	0x2e060540 ; undefined
     334:	02002205 	.inst	0x02002205 ; undefined
     338:	052e0104 	ext	z4.b, z4.b, z8.b, #112
     33c:	12053e27 	and	w7, w17, #0xf80007ff
     340:	02002166 	.inst	0x02002166 ; undefined
     344:	3c060104 	stur	b4, [x8, #96]
     348:	02003605 	.inst	0x02003605 ; undefined
     34c:	4a060204 	eor	w4, w16, w6
     350:	02005505 	.inst	0x02005505 ; undefined
     354:	002e0204 	.inst	0x002e0204 ; NYI
     358:	06040402 	.inst	0x06040402 ; undefined
     35c:	0402002e 	.inst	0x0402002e ; undefined
     360:	02002e05 	.inst	0x02002e05 ; undefined
     364:	05200704 	ext	z4.b, z4.b, z24.b, #1
     368:	04020012 	.inst	0x04020012 ; undefined
     36c:	053c0607 	ext	z7.b, z7.b, z16.b, #225
     370:	0402000e 	.inst	0x0402000e ; undefined
     374:	12052e08 	and	w8, w16, #0xf800007f
     378:	08040200 	stxrb	w4, w0, [x16]
     37c:	2f0d053c 	ushr	v28.8b, v9.8b, #3
     380:	004b1405 	.inst	0x004b1405 ; undefined
     384:	06010402 	.inst	0x06010402 ; undefined
     388:	060a053c 	.inst	0x060a053c ; undefined
     38c:	0801053f 	stxrb	w1, wzr, [x9]
     390:	0a054221 	and	w1, w17, w5, lsl #16
     394:	230605ae 	.inst	0x230605ae ; undefined
     398:	053d0b05 	ext	z5.b, z5.b, z24.b, #234
     39c:	0605400f 	.inst	0x0605400f ; undefined
     3a0:	0022052e 	.inst	0x0022052e ; NYI
     3a4:	2e010402 	.inst	0x2e010402 ; undefined
     3a8:	053e2705 	.inst	0x053e2705 ; undefined
     3ac:	00216612 	.inst	0x00216612 ; NYI
     3b0:	06010402 	.inst	0x06010402 ; undefined
     3b4:	0036053c 	.inst	0x0036053c ; NYI
     3b8:	06020402 	.inst	0x06020402 ; undefined
     3bc:	0055054a 	.inst	0x0055054a ; undefined
     3c0:	2e020402 	.inst	0x2e020402 ; undefined
     3c4:	04040200 	.inst	0x04040200 ; undefined
     3c8:	02002e06 	.inst	0x02002e06 ; undefined
     3cc:	002e0504 	.inst	0x002e0504 ; NYI
     3d0:	20070402 	.inst	0x20070402 ; undefined
     3d4:	02001205 	.inst	0x02001205 ; undefined
     3d8:	3c060704 	str	b4, [x24], #96
     3dc:	02000e05 	.inst	0x02000e05 ; undefined
     3e0:	052e0804 	ext	z4.b, z4.b, z0.b, #114
     3e4:	04020012 	.inst	0x04020012 ; undefined
     3e8:	0d053c08 	.inst	0x0d053c08 ; undefined
     3ec:	4b14052f 	sub	w15, w9, w20, lsl #1
     3f0:	01040200 	.inst	0x01040200 ; undefined
     3f4:	0a053c06 	and	w6, w0, w5, lsl #15
     3f8:	01053f06 	.inst	0x01053f06 ; undefined
     3fc:	0e032108 	tbl	v8.8b, {v8.16b, v9.16b}, v3.8b
     400:	a00a053c 	.inst	0xa00a053c ; undefined
     404:	26060521 	.inst	0x26060521 ; undefined
     408:	054b0c05 	.inst	0x054b0c05 ; undefined
     40c:	0c05ad06 	.inst	0x0c05ad06 ; undefined
     410:	ad060567 	stp	q7, q1, [x11, #192]
     414:	05673605 	.inst	0x05673605 ; undefined
     418:	02002e0c 	.inst	0x02002e0c ; undefined
     41c:	2e060104 	ext	v4.8b, v8.8b, v6.8b, #0
     420:	02040200 	.inst	0x02040200 ; undefined
     424:	005d053c 	.inst	0x005d053c ; undefined
     428:	06040402 	.inst	0x06040402 ; undefined
     42c:	000c052e 	.inst	0x000c052e ; undefined
     430:	2e040402 	.inst	0x2e040402 ; undefined
     434:	05040200 	.inst	0x05040200 ; undefined
     438:	02002e06 	.inst	0x02002e06 ; undefined
     43c:	002e0604 	.inst	0x002e0604 ; NYI
     440:	20080402 	.inst	0x20080402 ; undefined
     444:	06060590 	.inst	0x06060590 ; undefined
     448:	00220524 	.inst	0x00220524 ; NYI
     44c:	66010402 	.inst	0x66010402 ; undefined
     450:	05760c05 	.inst	0x05760c05 ; undefined
     454:	0605a508 	.inst	0x0605a508 ; undefined
     458:	4b0e0521 	sub	w1, w9, w14, lsl #1
     45c:	052f0b05 	ext	z5.b, z5.b, z24.b, #122
     460:	06054e0f 	.inst	0x06054e0f ; undefined
     464:	2f0a052e 	ushr	v14.8b, v9.8b, #6
     468:	05310905 	ext	z5.b, z5.b, z8.b, #138
     46c:	1005210c 	adr	x12, a88c <_start-0x1f5774>
     470:	3d09053c 	str	b28, [x9, #577]
     474:	003a2a05 	.inst	0x003a2a05 ; NYI
     478:	06010402 	.inst	0x06010402 ; undefined
     47c:	0607053c 	.inst	0x0607053c ; undefined
     480:	3d170541 	str	b1, [x10, #1473]
     484:	054a2705 	.inst	0x054a2705 ; undefined
     488:	11054a0a 	add	w10, w16, #0x152
     48c:	3d0e052f 	str	b15, [x9, #897]
     490:	052e0805 	ext	z5.b, z5.b, z0.b, #114
     494:	05053e06 	.inst	0x05053e06 ; undefined
     498:	3e0e0559 	.inst	0x3e0e0559 ; undefined
     49c:	052e1605 	ext	z5.b, z5.b, z16.b, #117
     4a0:	0c054a08 	.inst	0x0c054a08 ; undefined
     4a4:	2107053d 	.inst	0x2107053d ; undefined
     4a8:	4c4d0b05 	.inst	0x4c4d0b05 ; undefined
     4ac:	02002205 	.inst	0x02002205 ; undefined
     4b0:	053c0104 	ext	z4.b, z4.b, z8.b, #224
     4b4:	04020019 	.inst	0x04020019 ; undefined
     4b8:	05052e01 	.inst	0x05052e01 ; undefined
     4bc:	3f060530 	.inst	0x3f060530 ; undefined
     4c0:	053d1405 	ext	z5.b, z5.b, z0.b, #237
     4c4:	11052e0a 	add	w10, w16, #0x14b
     4c8:	580a053d 	ldr	x29, 1456c <_start-0x1eba94>
     4cc:	052e0805 	ext	z5.b, z5.b, z0.b, #114
     4d0:	04020018 	.inst	0x04020018 ; undefined
     4d4:	33053c02 	bfxil	w2, w0, #5, #11
     4d8:	03040200 	.inst	0x03040200 ; undefined
     4dc:	00290558 	.inst	0x00290558 ; NYI
     4e0:	2e030402 	.inst	0x2e030402 ; undefined
     4e4:	05310705 	ext	z5.b, z5.b, z24.b, #137
     4e8:	0b054e12 	add	w18, w16, w5, lsl #19
     4ec:	21070530 	.inst	0x21070530 ; undefined
     4f0:	053d2705 	.inst	0x053d2705 ; undefined
     4f4:	0e059e14 	.inst	0x0e059e14 ; undefined
     4f8:	3c140520 	str	b0, [x9], #-192
     4fc:	2f2e1205 	.inst	0x2f2e1205 ; undefined
     500:	05660a05 	.inst	0x05660a05 ; undefined
     504:	09053910 	.inst	0x09053910 ; undefined
     508:	240b054e 	cmphs	p14.b, p1/z, z10.b, z11.b
     50c:	05210e05 	ext	z5.b, z5.b, z16.b, #11
     510:	2c053c12 	stnp	s18, s15, [x0, #40]
     514:	0035053b 	.inst	0x0035053b ; NYI
     518:	3c010402 	str	b2, [x0], #16
     51c:	02002c05 	.inst	0x02002c05 ; undefined
     520:	053c0104 	ext	z4.b, z4.b, z8.b, #224
     524:	0e053108 	tbx	v8.8b, {v8.16b, v9.16b}, v5.8b
     528:	3c12053e 	str	b30, [x9], #-224
     52c:	05410905 	eor	z5.s, z5.s, #0x800000ff
     530:	12052125 	and	w5, w9, #0xf800000f
     534:	200c05ac 	.inst	0x200c05ac ; undefined
     538:	053c1205 	ext	z5.b, z5.b, z16.b, #228
     53c:	11052e10 	add	w16, w16, #0x14b
     540:	9008052f 	adrp	x15, 100a4000 <__sel4_ipc_buffer_obj+0xfe9d000>
     544:	053a0e05 	ext	z5.b, z5.b, z16.b, #211
     548:	0f054d07 	.inst	0x0f054d07 ; undefined
     54c:	2e060525 	.inst	0x2e060525 ; undefined
     550:	02002705 	.inst	0x02002705 ; undefined
     554:	052e0104 	ext	z4.b, z4.b, z8.b, #112
     558:	0402001d 	.inst	0x0402001d ; undefined
     55c:	08052e01 	stxrb	w5, w1, [x16]
     560:	000f052f 	.inst	0x000f052f ; undefined
     564:	3c010402 	str	b2, [x0], #16
     568:	02002605 	.inst	0x02002605 ; undefined
     56c:	054a0204 	.inst	0x054a0204 ; undefined
     570:	0402001c 	.inst	0x0402001c ; undefined
     574:	0c052e02 	.inst	0x0c052e02 ; undefined
     578:	3e0b052f 	.inst	0x3e0b052f ; undefined
     57c:	05210e05 	ext	z5.b, z5.b, z16.b, #11
     580:	11053c12 	add	w18, w0, #0x14f
     584:	201a053b 	.inst	0x201a053b ; undefined
     588:	01040200 	.inst	0x01040200 ; undefined
     58c:	06053c06 	.inst	0x06053c06 ; undefined
     590:	08054106 	stxrb	w5, w6, [x8]
     594:	4b0e053d 	sub	w29, w9, w14, lsl #1
     598:	053c1205 	ext	z5.b, z5.b, z16.b, #228
     59c:	0d054c14 	.inst	0x0d054c14 ; undefined
     5a0:	2f0e052e 	ushr	v14.8b, v9.8b, #2
     5a4:	053c1205 	ext	z5.b, z5.b, z16.b, #228
     5a8:	0d054c14 	.inst	0x0d054c14 ; undefined
     5ac:	2f0e052e 	ushr	v14.8b, v9.8b, #2
     5b0:	053c1205 	ext	z5.b, z5.b, z16.b, #228
     5b4:	0105400a 	.inst	0x0105400a ; undefined
     5b8:	0605349f 	.inst	0x0605349f ; undefined
     5bc:	001805ae 	.inst	0x001805ae ; undefined
     5c0:	4a010402 	eor	w2, w0, w1, lsl #1
     5c4:	02002d05 	.inst	0x02002d05 ; undefined
     5c8:	05580204 	mov	z4.h, p8/z, #16
     5cc:	0e05670c 	.inst	0x0e05670c ; undefined
     5d0:	4b0605a2 	sub	w2, w13, w6, lsl #1
     5d4:	054b0b05 	.inst	0x054b0b05 ; undefined
     5d8:	0605400f 	.inst	0x0605400f ; undefined
     5dc:	2f0a052e 	ushr	v14.8b, v9.8b, #6
     5e0:	052e0a03 	ext	z3.b, z3.b, z16.b, #114
     5e4:	1c052f19 	ldr	s25, abc4 <_start-0x1f543c>
     5e8:	200e0520 	.inst	0x200e0520 ; undefined
     5ec:	05200705 	ext	z5.b, z5.b, z24.b, #1
     5f0:	14052f11 	b	14c234 <_start-0xb3dcc>
     5f4:	202c0520 	.inst	0x202c0520 ; undefined
     5f8:	05200a05 	ext	z5.b, z5.b, z16.b, #2
     5fc:	2605222d 	.inst	0x2605222d ; undefined
     600:	3c480558 	ldr	b24, [x10], #128
     604:	05204b05 	.inst	0x05204b05 ; undefined
     608:	41052e52 	.inst	0x41052e52 ; undefined
     60c:	2007053c 	.inst	0x2007053c ; undefined
     610:	05301705 	ext	z5.b, z5.b, z24.b, #133
     614:	0805582b 	stxrb	w5, w11, [x1]
     618:	2f1c052e 	ushr	v14.4h, v9.4h, #4
     61c:	05583705 	mov	z5.h, p8/z, #-18432
     620:	052f5810 	.inst	0x052f5810 ; undefined
     624:	0c053d1c 	.inst	0x0c053d1c ; undefined
     628:	2024052e 	.inst	0x2024052e ; undefined
     62c:	05200a05 	ext	z5.b, z5.b, z16.b, #2
     630:	13052207 	sbfx	w7, w16, #5, #4
     634:	2e1c0520 	.inst	0x2e1c0520 ; undefined
     638:	053c3c05 	.inst	0x053c3c05 ; undefined
     63c:	31053c37 	adds	w23, w1, #0x14f
     640:	2e2b052e 	uhadd	v14.8b, v9.8b, v11.8b
     644:	052e2605 	.inst	0x052e2605 ; undefined
     648:	17052e20 	b	fffffffffc14bec8 <__sel4_ipc_buffer_obj+0xfffffffffbf44ec8>
     64c:	200f0520 	.inst	0x200f0520 ; undefined
     650:	052e0a05 	ext	z5.b, z5.b, z16.b, #114
     654:	06053013 	.inst	0x06053013 ; undefined
     658:	4b0b0520 	sub	w0, w9, w11, lsl #1
     65c:	053d0905 	ext	z5.b, z5.b, z8.b, #234
     660:	4405200c 	.inst	0x4405200c ; undefined
     664:	002b0540 	.inst	0x002b0540 ; NYI
     668:	3c010402 	str	b2, [x0], #16
     66c:	02004405 	.inst	0x02004405 ; undefined
     670:	063c0304 	.inst	0x063c0304 ; undefined
     674:	04020020 	.inst	0x04020020 ; undefined
     678:	10052004 	adr	x4, aa78 <_start-0x1f5588>
     67c:	06040200 	.inst	0x06040200 ; undefined
     680:	0d052006 	.inst	0x0d052006 ; undefined
     684:	2e060523 	.inst	0x2e060523 ; undefined
     688:	05300805 	ext	z5.b, z5.b, z0.b, #130
     68c:	04020019 	.inst	0x04020019 ; undefined
     690:	0b056601 	add	w1, w16, w5, lsl #25
     694:	200a0575 	.inst	0x200a0575 ; undefined
     698:	053d1b05 	ext	z5.b, z5.b, z24.b, #238
     69c:	2e052025 	ext	v5.8b, v1.8b, v5.8b, #4
     6a0:	200e052e 	.inst	0x200e052e ; undefined
     6a4:	220d0531 	.inst	0x220d0531 ; undefined
     6a8:	213e1005 	.inst	0x213e1005 ; undefined
     6ac:	05320a05 	ext	z5.b, z5.b, z16.b, #146
     6b0:	04020020 	.inst	0x04020020 ; undefined
     6b4:	16053c01 	b	fffffffff814f6b8 <__sel4_ipc_buffer_obj+0xfffffffff7f486b8>
     6b8:	01040200 	.inst	0x01040200 ; undefined
     6bc:	2f09052e 	ushr	v14.8b, v9.8b, #7
     6c0:	05421005 	eor	z5.d, z5.d, #0x4000000000000000
     6c4:	0c052f06 	.inst	0x0c052f06 ; undefined
     6c8:	0e055b4c 	uzp2	v12.8b, v26.8b, v5.8b
     6cc:	2e060522 	.inst	0x2e060522 ; undefined
     6d0:	02001c05 	.inst	0x02001c05 ; undefined
     6d4:	052e0104 	ext	z4.b, z4.b, z8.b, #112
     6d8:	06053e0c 	.inst	0x06053e0c ; undefined
     6dc:	3d120524 	str	b4, [x9, #1153]
     6e0:	05200b05 	ext	z5.b, z5.b, z24.b, #2
     6e4:	09054010 	.inst	0x09054010 ; undefined
     6e8:	0402002f 	.inst	0x0402002f ; undefined
     6ec:	004a0601 	.inst	0x004a0601 ; undefined
     6f0:	3c020402 	str	b2, [x0], #32
     6f4:	04040200 	.inst	0x04040200 ; undefined
     6f8:	06060520 	.inst	0x06060520 ; undefined
     6fc:	3e1005af 	.inst	0x3e1005af ; undefined
     700:	002e0505 	.inst	0x002e0505 ; NYI
     704:	06010402 	.inst	0x06010402 ; undefined
     708:	0402002e 	.inst	0x0402002e ; undefined
     70c:	02002e02 	.inst	0x02002e02 ; undefined
     710:	05200404 	ext	z4.b, z4.b, z0.b, #1
     714:	05920647 	mov	z7.s, p2/z, #50
     718:	0f053c0b 	.inst	0x0f053c0b ; undefined
     71c:	08053008 	stxrb	w5, w8, [x0]
     720:	2f0d052e 	ushr	v14.8b, v9.8b, #3
     724:	02002705 	.inst	0x02002705 ; undefined
     728:	05200204 	ext	z4.b, z4.b, z16.b, #0
     72c:	04020012 	.inst	0x04020012 ; undefined
     730:	1e059001 	.inst	0x1e059001 ; undefined
     734:	01040200 	.inst	0x01040200 ; undefined
     738:	3f0a053c 	.inst	0x3f0a053c ; undefined
     73c:	43210105 	.inst	0x43210105 ; undefined
     740:	05920a05 	mov	z5.s, p2/z, #80
     744:	09052206 	.inst	0x09052206 ; undefined
     748:	05233f3e 	.inst	0x05233f3e ; undefined
     74c:	07052e08 	.inst	0x07052e08 ; undefined
     750:	ad0d0530 	stp	q16, q1, [x9, #416]
     754:	053d0705 	ext	z5.b, z5.b, z24.b, #233
     758:	0b05240d 	add	w13, w0, w5, lsl #9
     75c:	220f0540 	.inst	0x220f0540 ; undefined
     760:	052e0705 	ext	z5.b, z5.b, z24.b, #113
     764:	05130819 	mov	z25.b, p3/z, #64
     768:	37053c31 	tbnz	w17, #0, ffffffffffffaeec <__sel4_ipc_buffer_obj+0xffffffffffdf3eec>
     76c:	2e3d053c 	uhadd	v28.8b, v9.8b, v29.8b
     770:	05211905 	ext	z5.b, z5.b, z8.b, #14
     774:	37053c31 	tbnz	w17, #0, ffffffffffffaef8 <__sel4_ipc_buffer_obj+0xffffffffffdf3ef8>
     778:	2e3d053c 	uhadd	v28.8b, v9.8b, v29.8b
     77c:	05211905 	ext	z5.b, z5.b, z8.b, #14
     780:	37053c31 	tbnz	w17, #0, ffffffffffffaf04 <__sel4_ipc_buffer_obj+0xffffffffffdf3f04>
     784:	2e3d053c 	uhadd	v28.8b, v9.8b, v29.8b
     788:	05211905 	ext	z5.b, z5.b, z8.b, #14
     78c:	37053c31 	tbnz	w17, #0, ffffffffffffaf10 <__sel4_ipc_buffer_obj+0xffffffffffdf3f10>
     790:	2e3d053c 	uhadd	v28.8b, v9.8b, v29.8b
     794:	05211905 	ext	z5.b, z5.b, z8.b, #14
     798:	37053c31 	tbnz	w17, #0, ffffffffffffaf1c <__sel4_ipc_buffer_obj+0xffffffffffdf3f1c>
     79c:	2e3d053c 	uhadd	v28.8b, v9.8b, v29.8b
     7a0:	05213705 	.inst	0x05213705 ; undefined
     7a4:	0e05203d 	tbl	v29.8b, {v1.16b, v2.16b}, v5.8b
     7a8:	3f0b0522 	.inst	0x3f0b0522 ; undefined
     7ac:	05210905 	ext	z5.b, z5.b, z8.b, #10
     7b0:	04020008 	.inst	0x04020008 ; undefined
     7b4:	0f054a01 	.inst	0x0f054a01 ; undefined
     7b8:	4c0e053d 	.inst	0x4c0e053d ; undefined
     7bc:	052e0d05 	ext	z5.b, z5.b, z8.b, #115
     7c0:	0a052f11 	and	w17, w24, w5, lsl #11
     7c4:	0f055908 	fmls	v8.4h, v8.4h, v5.h[4]
     7c8:	3d1f053d 	str	b29, [x9, #1985]
     7cc:	312e0f05 	adds	w5, w24, #0xb83
     7d0:	05300d05 	ext	z5.b, z5.b, z8.b, #131
     7d4:	0905400f 	.inst	0x0905400f ; undefined
     7d8:	2e080521 	.inst	0x2e080521 ; undefined
     7dc:	3d2f0d05 	str	b5, [x8, #3011]
     7e0:	053d0b05 	ext	z5.b, z5.b, z24.b, #234
     7e4:	0402000a 	.inst	0x0402000a ; undefined
     7e8:	15054a01 	b	4152fec <__sel4_ipc_buffer_obj+0x3f4bfec>
     7ec:	4c10053d 	.inst	0x4c10053d ; undefined
     7f0:	052e0f05 	ext	z5.b, z5.b, z24.b, #115
     7f4:	33052f13 	bfxil	w19, w24, #5, #7
     7f8:	13055908 	sbfx	w8, w8, #5, #18
     7fc:	210f0558 	.inst	0x210f0558 ; undefined
     800:	05410d05 	eor	z5.h, z5.h, #0x80ff
     804:	09052e05 	.inst	0x09052e05 ; undefined
     808:	05f22003 	mov	z3.h, z0.h[28]
     80c:	2062030f 	.inst	0x2062030f ; undefined
     810:	3d0d053d 	str	b29, [x9, #833]
     814:	052e0c05 	ext	z5.b, z5.b, z0.b, #115
     818:	053d2f11 	.inst	0x053d2f11 ; undefined
     81c:	0f053e09 	.inst	0x0f053e09 ; undefined
     820:	0d053d22 	.inst	0x0d053d22 ; undefined
     824:	2e0c053d 	.inst	0x2e0c053d ; undefined
     828:	3d2f1105 	str	b5, [x8, #3012]
     82c:	053e0905 	ext	z5.b, z5.b, z8.b, #242
     830:	053d230f 	mov	z15.b, z24.b[14]
     834:	0f053d09 	.inst	0x0f053d09 ; undefined
     838:	09053d23 	.inst	0x09053d23 ; undefined
     83c:	220f053d 	.inst	0x220f053d ; undefined
     840:	3d09053d 	str	b29, [x9, #577]
     844:	2e680322 	uaddl	v2.4s, v25.4h, v8.4h
     848:	030d0536 	.inst	0x030d0536 ; undefined
     84c:	05052014 	.inst	0x05052014 ; undefined
     850:	030d052e 	.inst	0x030d052e ; undefined
     854:	012d020a 	.inst	0x012d020a ; undefined
     858:	052e0c05 	ext	z5.b, z5.b, z0.b, #115
     85c:	0402001f 	.inst	0x0402001f ; undefined
     860:	1c052e01 	ldr	s1, ae20 <_start-0x1f51e0>
     864:	01040200 	.inst	0x01040200 ; undefined
     868:	2f10052e 	ushr	v14.4h, v9.4h, #16
     86c:	053e1205 	ext	z5.b, z5.b, z16.b, #244
     870:	10052e11 	adr	x17, ae30 <_start-0x1f51d0>
     874:	3e12052f 	.inst	0x3e12052f ; undefined
     878:	052e1105 	ext	z5.b, z5.b, z8.b, #116
     87c:	053f2f10 	.inst	0x053f2f10 ; undefined
     880:	0d052f11 	.inst	0x0d052f11 ; undefined
     884:	2e0c053f 	.inst	0x2e0c053f ; undefined
     888:	052f1105 	ext	z5.b, z5.b, z8.b, #124
     88c:	0c05400e 	.inst	0x0c05400e ; undefined
     890:	0022052e 	.inst	0x0022052e ; NYI
     894:	2e010402 	.inst	0x2e010402 ; undefined
     898:	02001e05 	.inst	0x02001e05 ; undefined
     89c:	052e0104 	ext	z4.b, z4.b, z8.b, #112
     8a0:	13052f11 	sbfx	w17, w24, #5, #7
     8a4:	2e0c0540 	.inst	0x2e0c0540 ; undefined
     8a8:	052f1105 	ext	z5.b, z5.b, z8.b, #124
     8ac:	0c05400e 	.inst	0x0c05400e ; undefined
     8b0:	0022052e 	.inst	0x0022052e ; NYI
     8b4:	2e010402 	.inst	0x2e010402 ; undefined
     8b8:	02001e05 	.inst	0x02001e05 ; undefined
     8bc:	052e0104 	ext	z4.b, z4.b, z8.b, #112
     8c0:	0e053015 	tbx	v21.8b, {v0.16b, v1.16b}, v5.8b
     8c4:	301d052e 	adr	x14, 3a969 <_start-0x1c5697>
     8c8:	59083d05 	.inst	0x59083d05 ; undefined
     8cc:	053c1305 	ext	z5.b, z5.b, z24.b, #228
     8d0:	052b080e 	ext	z14.b, z14.b, z0.b, #90
     8d4:	1305261a 	sbfx	w26, w16, #5, #5
     8d8:	2f18052e 	ushr	v14.4h, v9.4h, #8
     8dc:	59083805 	.inst	0x59083805 ; undefined
     8e0:	053c1305 	ext	z5.b, z5.b, z24.b, #228
     8e4:	0878030e 	.inst	0x0878030e ; undefined
     8e8:	0326052e 	.inst	0x0326052e ; undefined
     8ec:	4c05200b 	.inst	0x4c05200b ; undefined
     8f0:	003c052e 	.inst	0x003c052e ; NYI
     8f4:	2e010402 	.inst	0x2e010402 ; undefined
     8f8:	02003605 	.inst	0x02003605 ; undefined
     8fc:	4a080104 	eor	w4, w8, w8
     900:	02005505 	.inst	0x02005505 ; undefined
     904:	052e0204 	ext	z4.b, z4.b, z16.b, #112
     908:	02000181 	.inst	0x02000181 ; undefined
     90c:	052e0204 	ext	z4.b, z4.b, z16.b, #112
     910:	04020071 	.inst	0x04020071 ; undefined
     914:	66052e04 	.inst	0x66052e04 ; undefined
     918:	01040200 	.inst	0x01040200 ; undefined
     91c:	81054a08 	.inst	0x81054a08 ; undefined
     920:	04020001 	.inst	0x04020001 ; undefined
     924:	17052e05 	b	fffffffffc14c138 <__sel4_ipc_buffer_obj+0xfffffffffbf45138>
     928:	08040200 	stxrb	w4, w0, [x16]
     92c:	38054a08 	sttrb	w8, [x16, #84]
     930:	3c130521 	str	b1, [x9], #-208
     934:	74030e05 	.inst	0x74030e05 ; undefined
     938:	15052e08 	b	414c158 <__sel4_ipc_buffer_obj+0x3f45158>
     93c:	05201103 	ext	z3.b, z3.b, z8.b, #4
     940:	13052e0e 	sbfx	w14, w16, #5, #7
     944:	04020030 	.inst	0x04020030 ; undefined
     948:	4a080601 	eor	w1, w16, w8, lsl #1
     94c:	f5061a05 	.inst	0xf5061a05 ; undefined
     950:	2f2e1305 	.inst	0x2f2e1305 ; undefined
     954:	01040200 	.inst	0x01040200 ; undefined
     958:	054a0806 	.inst	0x054a0806 ; undefined
     95c:	05f5062f 	.inst	0x05f5062f ; undefined
     960:	4e052e67 	smov	x7, v19.b[2]
     964:	01040200 	.inst	0x01040200 ; undefined
     968:	003f052e 	.inst	0x003f052e ; NYI
     96c:	08010402 	stxrb	w1, w2, [x0]
     970:	0070054a 	.inst	0x0070054a ; undefined
     974:	2e020402 	.inst	0x2e020402 ; undefined
     978:	0001ae05 	.inst	0x0001ae05 ; undefined
     97c:	2e020402 	.inst	0x2e020402 ; undefined
     980:	00019505 	.inst	0x00019505 ; undefined
     984:	2e040402 	.inst	0x2e040402 ; undefined
     988:	00018105 	.inst	0x00018105 ; undefined
     98c:	08010402 	stxrb	w1, w2, [x0]
     990:	01ae054a 	.inst	0x01ae054a ; undefined
     994:	05040200 	.inst	0x05040200 ; undefined
     998:	0020052e 	.inst	0x0020052e ; NYI
     99c:	08080402 	stxrb	w8, w2, [x0]
     9a0:	2113054a 	.inst	0x2113054a ; undefined
     9a4:	05f50f05 	.inst	0x05f50f05 ; undefined
     9a8:	0d053d09 	.inst	0x0d053d09 ; undefined
     9ac:	2e0c0525 	.inst	0x2e0c0525 ; undefined
     9b0:	02002305 	.inst	0x02002305 ; undefined
     9b4:	052e0104 	ext	z4.b, z4.b, z8.b, #112
     9b8:	02003d0f 	.inst	0x02003d0f ; undefined
     9bc:	08060104 	stxrb	w6, w4, [x8]
     9c0:	0591064a 	mov	z10.s, p1/z, #50
     9c4:	0e053d09 	umov	w9, v8.b[2]
     9c8:	2e0c0526 	.inst	0x2e0c0526 ; undefined
     9cc:	02002005 	.inst	0x02002005 ; undefined
     9d0:	052e0204 	ext	z4.b, z4.b, z16.b, #112
     9d4:	0402001d 	.inst	0x0402001d ; undefined
     9d8:	37052e02 	tbnz	w2, #0, ffffffffffffaf98 <__sel4_ipc_buffer_obj+0xffffffffffdf3f98>
     9dc:	03040200 	.inst	0x03040200 ; undefined
     9e0:	3d0e052e 	str	b14, [x9, #897]
     9e4:	052e0c05 	ext	z5.b, z5.b, z0.b, #115
     9e8:	04020020 	.inst	0x04020020 ; undefined
     9ec:	1d052e02 	.inst	0x1d052e02 ; undefined
     9f0:	02040200 	.inst	0x02040200 ; undefined
     9f4:	0037052e 	.inst	0x0037052e ; NYI
     9f8:	2e030402 	.inst	0x2e030402 ; undefined
     9fc:	003d0f05 	.inst	0x003d0f05 ; NYI
     a00:	06010402 	.inst	0x06010402 ; undefined
     a04:	91064a08 	add	x8, x16, #0x192
     a08:	053d0905 	ext	z5.b, z5.b, z8.b, #234
     a0c:	15052416 	b	4149a64 <__sel4_ipc_buffer_obj+0x3f42a64>
     a10:	2e0c0530 	.inst	0x2e0c0530 ; undefined
     a14:	052f1105 	ext	z5.b, z5.b, z8.b, #124
     a18:	1305210d 	sbfx	w13, w8, #5, #4
     a1c:	3c16058f 	str	b15, [x12], #-160
     a20:	05411305 	eor	z5.s, z5.s, #0xc07fffff
     a24:	04020009 	.inst	0x04020009 ; undefined
     a28:	054a0801 	.inst	0x054a0801 ; undefined
     a2c:	0c05a013 	.inst	0x0c05a013 ; undefined
     a30:	2f11052e 	ushr	v14.4h, v9.4h, #15
     a34:	05210d05 	ext	z5.b, z5.b, z8.b, #11
     a38:	16058f13 	b	fffffffff8164684 <__sel4_ipc_buffer_obj+0xfffffffff7f5d684>
     a3c:	400f053c 	.inst	0x400f053c ; undefined
     a40:	053d0905 	ext	z5.b, z5.b, z8.b, #234
     a44:	1a052415 	.inst	0x1a052415 ; undefined
     a48:	02005908 	.inst	0x02005908 ; undefined
     a4c:	3c060104 	stur	b4, [x8, #96]
     a50:	02040200 	.inst	0x02040200 ; undefined
     a54:	0402002e 	.inst	0x0402002e ; undefined
     a58:	13052004 	sbfx	w4, w0, #5, #4
     a5c:	0c054c06 	.inst	0x0c054c06 ; undefined
     a60:	2f0d052e 	ushr	v14.8b, v9.8b, #3
     a64:	05681505 	.inst	0x05681505 ; undefined
     a68:	11052e0c 	add	w12, w16, #0x14b
     a6c:	210d052f 	.inst	0x210d052f ; undefined
     a70:	058f1305 	.inst	0x058f1305 ; undefined
     a74:	0f053c16 	.inst	0x0f053c16 ; undefined
     a78:	21120541 	.inst	0x21120541 ; undefined
     a7c:	053c0b05 	ext	z5.b, z5.b, z24.b, #226
     a80:	1a059d11 	.inst	0x1a059d11 ; undefined
     a84:	0026052e 	.inst	0x0026052e ; NYI
     a88:	2e010402 	.inst	0x2e010402 ; undefined
     a8c:	02001a05 	.inst	0x02001a05 ; undefined
     a90:	052e0104 	ext	z4.b, z4.b, z8.b, #112
     a94:	04020045 	.inst	0x04020045 ; undefined
     a98:	39052e02 	strb	w2, [x16, #331]
     a9c:	02040200 	.inst	0x02040200 ; undefined
     aa0:	3213053c 	orr	w28, w9, #0x6000
     aa4:	052e0c05 	ext	z5.b, z5.b, z0.b, #115
     aa8:	0d052f11 	.inst	0x0d052f11 ; undefined
     aac:	8f130521 	.inst	0x8f130521 ; undefined
     ab0:	053c1605 	ext	z5.b, z5.b, z16.b, #229
     ab4:	0905400f 	.inst	0x0905400f ; undefined
     ab8:	240f053d 	cmphi	p13.b, p1/z, z9.b, z15.b
     abc:	4c14052f 	.inst	0x4c14052f ; undefined
     ac0:	052f0c05 	ext	z5.b, z5.b, z0.b, #123
     ac4:	11054b46 	add	w6, w26, #0x152
     ac8:	01040200 	.inst	0x01040200 ; undefined
     acc:	51054a08 	sub	w8, w16, #0x152
     ad0:	001105f6 	.inst	0x001105f6 ; undefined
     ad4:	08010402 	stxrb	w1, w2, [x0]
     ad8:	e80f054a 	.inst	0xe80f054a ; undefined
     adc:	243d0905 	cmphs	p5.b, p2/z, z8.b, #116
     ae0:	05910f05 	mov	z5.s, p1/z, #120
     ae4:	05233d09 	.inst	0x05233d09 ; undefined
     ae8:	0905ad0f 	.inst	0x0905ad0f ; undefined
     aec:	030a053d 	.inst	0x030a053d ; undefined
     af0:	05207dfb 	.inst	0x05207dfb ; undefined
     af4:	028a0303 	.inst	0x028a0303 ; undefined
     af8:	0402004a 	.inst	0x0402004a ; undefined
     afc:	004a0601 	.inst	0x004a0601 ; undefined
     b00:	3c020402 	str	b2, [x0], #32
     b04:	04040200 	.inst	0x04040200 ; undefined
     b08:	060a0520 	.inst	0x060a0520 ; undefined
     b0c:	21010569 	.inst	0x21010569 ; undefined
     b10:	08030550 	stxrb	w3, w16, [x10]
     b14:	a0130522 	.inst	0xa0130522 ; undefined
     b18:	22080a05 	.inst	0x22080a05 ; undefined
     b1c:	32210105 	orr	w5, w8, #0x80000000
     b20:	22080305 	.inst	0x22080305 ; undefined
     b24:	059f1305 	mov	z5.s, p15/z, #-104
     b28:	0514080a 	mov	z10.b, p4/z, #64
     b2c:	05322101 	mov	z1.h, z8.h[4]
     b30:	05220803 	ext	z3.b, z3.b, z0.b, #18
     b34:	0a059f13 	.inst	0x0a059f13 ; undefined
     b38:	01051408 	.inst	0x01051408 ; undefined
     b3c:	0a053221 	and	w1, w17, w5, lsl #12
     b40:	0801055a 	stxrb	w1, w26, [x10]
     b44:	0a054013 	and	w19, w0, w5, lsl #16
     b48:	f3010575 	.inst	0xf3010575 ; undefined
     b4c:	08030540 	stxrb	w3, w0, [x10]
     b50:	9f1b0522 	.inst	0x9f1b0522 ; undefined
     b54:	054b1305 	.inst	0x054b1305 ; undefined
     b58:	0522080a 	ext	z10.b, z10.b, z0.b, #18
     b5c:	02022101 	.inst	0x02022101 ; undefined
     b60:	2d010100 	stp	s0, s0, [x8, #8]
     b64:	02000007 	.inst	0x02000007 ; undefined
     b68:	00038d00 	.inst	0x00038d00 ; undefined
     b6c:	fb010400 	.inst	0xfb010400 ; undefined
     b70:	01000d0e 	.inst	0x01000d0e ; undefined
     b74:	00010101 	.inst	0x00010101 ; undefined
     b78:	00010000 	.inst	0x00010000 ; undefined
     b7c:	2e2e0100 	uaddl	v0.8h, v8.8b, v14.8b
     b80:	73552f00 	.inst	0x73552f00 ; undefined
     b84:	2f737265 	.inst	0x2f737265 ; undefined
     b88:	742f646a 	.inst	0x742f646a ; undefined
     b8c:	74737572 	.inst	0x74737572 ; undefined
     b90:	74726f77 	.inst	0x74726f77 ; undefined
     b94:	732d7968 	.inst	0x732d7968 ; undefined
     b98:	65747379 	fnmls	z25.h, p4/m, z27.h, z20.h
     b9c:	6d2f736d 	stp	d13, d28, [x27, #-272]
     ba0:	6f726369 	umlsl2	v9.4s, v27.8h, v2.h[3]
     ba4:	2d74696b 	ldp	s11, s26, [x11, #-96]
     ba8:	2d6b6473 	ldp	s19, s25, [x3, #-168]
     bac:	2e342e31 	uqsub	v17.8b, v17.8b, v20.8b
     bb0:	6f622f31 	.inst	0x6f622f31 ; undefined
     bb4:	2f647261 	fcmla	v1.4h, v19.4h, v4.h[1], #270
     bb8:	756d6571 	.inst	0x756d6571 ; undefined
     bbc:	7269765f 	.inst	0x7269765f ; undefined
     bc0:	61615f74 	.inst	0x61615f74 ; undefined
     bc4:	36686372 	tbz	w18, #13, 1830 <_start-0x1fe7d0>
     bc8:	65642f34 	fmls	z20.h, p3/m, z25.h, z4.h
     bcc:	2f677562 	.inst	0x2f677562 ; undefined
     bd0:	6c636e69 	ldnp	d9, d27, [x19, #-464]
     bd4:	2f656475 	.inst	0x2f656475 ; undefined
     bd8:	346c6573 	cbz	w19, d9884 <_start-0x12677c>
     bdc:	73552f00 	.inst	0x73552f00 ; undefined
     be0:	2f737265 	.inst	0x2f737265 ; undefined
     be4:	742f646a 	.inst	0x742f646a ; undefined
     be8:	74737572 	.inst	0x74737572 ; undefined
     bec:	74726f77 	.inst	0x74726f77 ; undefined
     bf0:	732d7968 	.inst	0x732d7968 ; undefined
     bf4:	65747379 	fnmls	z25.h, p4/m, z27.h, z20.h
     bf8:	6d2f736d 	stp	d13, d28, [x27, #-272]
     bfc:	6f726369 	umlsl2	v9.4s, v27.8h, v2.h[3]
     c00:	2d74696b 	ldp	s11, s26, [x11, #-96]
     c04:	2d6b6473 	ldp	s19, s25, [x3, #-168]
     c08:	2e342e31 	uqsub	v17.8b, v17.8b, v20.8b
     c0c:	6f622f31 	.inst	0x6f622f31 ; undefined
     c10:	2f647261 	fcmla	v1.4h, v19.4h, v4.h[1], #270
     c14:	756d6571 	.inst	0x756d6571 ; undefined
     c18:	7269765f 	.inst	0x7269765f ; undefined
     c1c:	61615f74 	.inst	0x61615f74 ; undefined
     c20:	36686372 	tbz	w18, #13, 188c <_start-0x1fe774>
     c24:	65642f34 	fmls	z20.h, p3/m, z25.h, z4.h
     c28:	2f677562 	.inst	0x2f677562 ; undefined
     c2c:	6c636e69 	ldnp	d9, d27, [x19, #-464]
     c30:	2f656475 	.inst	0x2f656475 ; undefined
     c34:	346c6573 	cbz	w19, d98e0 <_start-0x126720>
     c38:	6c65732f 	ldnp	d15, d28, [x25, #-432]
     c3c:	72615f34 	.inst	0x72615f34 ; undefined
     c40:	2f006863 	.inst	0x2f006863 ; undefined
     c44:	72657355 	.inst	0x72657355 ; undefined
     c48:	646a2f73 	.inst	0x646a2f73 ; undefined
     c4c:	7572742f 	.inst	0x7572742f ; undefined
     c50:	6f777473 	uqshl	v19.2d, v3.2d, #55
     c54:	79687472 	ldrh	w18, [x3, #5178]
     c58:	7379732d 	.inst	0x7379732d ; undefined
     c5c:	736d6574 	.inst	0x736d6574 ; undefined
     c60:	63696d2f 	.inst	0x63696d2f ; undefined
     c64:	696b6f72 	ldpsw	x18, x27, [x27, #-168]
     c68:	64732d74 	.inst	0x64732d74 ; undefined
     c6c:	2e312d6b 	uqsub	v11.8b, v11.8b, v17.8b
     c70:	2f312e34 	.inst	0x2f312e34 ; undefined
     c74:	72616f62 	.inst	0x72616f62 ; undefined
     c78:	65712f64 	fmls	z4.h, p3/m, z27.h, z17.h
     c7c:	765f756d 	.inst	0x765f756d ; undefined
     c80:	5f747269 	sqdmlsl	s9, h19, v4.h[3]
     c84:	63726161 	.inst	0x63726161 ; undefined
     c88:	2f343668 	ursra	v8.2s, v19.2s, #12
     c8c:	75626564 	.inst	0x75626564 ; undefined
     c90:	6e692f67 	uqsub	v7.8h, v27.8h, v9.8h
     c94:	64756c63 	.inst	0x64756c63 ; undefined
     c98:	65732f65 	fmls	z5.h, p3/m, z27.h, z19.h
     c9c:	612f346c 	.inst	0x612f346c ; undefined
     ca0:	00686372 	.inst	0x00686372 ; undefined
     ca4:	6573552f 	fnmla	z15.h, p5/m, z9.h, z19.h
     ca8:	6a2f7372 	bics	w18, w27, w15, lsl #28
     cac:	72742f64 	.inst	0x72742f64 ; undefined
     cb0:	77747375 	.inst	0x77747375 ; undefined
     cb4:	6874726f 	.inst	0x6874726f ; undefined
     cb8:	79732d79 	ldrh	w25, [x11, #6550]
     cbc:	6d657473 	ldp	d19, d29, [x3, #-432]
     cc0:	696d2f73 	ldpsw	x19, x11, [x27, #-152]
     cc4:	6b6f7263 	.inst	0x6b6f7263 ; undefined
     cc8:	732d7469 	.inst	0x732d7469 ; undefined
     ccc:	312d6b64 	adds	w4, w27, #0xb5a
     cd0:	312e342e 	adds	w14, w1, #0xb8d
     cd4:	616f622f 	.inst	0x616f622f ; undefined
     cd8:	712f6472 	subs	w18, w3, #0xbd9
     cdc:	5f756d65 	.inst	0x5f756d65 ; undefined
     ce0:	74726976 	.inst	0x74726976 ; undefined
     ce4:	7261615f 	.inst	0x7261615f ; undefined
     ce8:	34366863 	cbz	w3, 6d9f4 <_start-0x19260c>
     cec:	6265642f 	.inst	0x6265642f ; undefined
     cf0:	692f6775 	.inst	0x692f6775 ; undefined
     cf4:	756c636e 	.inst	0x756c636e ; undefined
     cf8:	692f6564 	.inst	0x692f6564 ; undefined
     cfc:	7265746e 	.inst	0x7265746e ; undefined
     d00:	65636166 	fnmls	z6.h, p0/m, z11.h, z3.h
     d04:	552f0073 	.inst	0x552f0073 ; undefined
     d08:	73726573 	.inst	0x73726573 ; undefined
     d0c:	2f646a2f 	umlsl	v15.4s, v17.4h, v4.h[6]
     d10:	73757274 	.inst	0x73757274 ; undefined
     d14:	726f7774 	.inst	0x726f7774 ; undefined
     d18:	2d796874 	ldp	s20, s26, [x3, #-56]
     d1c:	74737973 	.inst	0x74737973 ; undefined
     d20:	2f736d65 	.inst	0x2f736d65 ; undefined
     d24:	7263696d 	.inst	0x7263696d ; undefined
     d28:	74696b6f 	.inst	0x74696b6f ; undefined
     d2c:	6b64732d 	.inst	0x6b64732d ; undefined
     d30:	342e312d 	cbz	w13, 5d354 <_start-0x1a2cac>
     d34:	622f312e 	.inst	0x622f312e ; undefined
     d38:	6472616f 	.inst	0x6472616f ; undefined
     d3c:	6d65712f 	ldp	d15, d28, [x9, #-432]
     d40:	69765f75 	ldpsw	x21, x23, [x27, #-80]
     d44:	615f7472 	.inst	0x615f7472 ; undefined
     d48:	68637261 	.inst	0x68637261 ; undefined
     d4c:	642f3436 	.inst	0x642f3436 ; undefined
     d50:	67756265 	.inst	0x67756265 ; undefined
     d54:	636e692f 	.inst	0x636e692f ; undefined
     d58:	6564756c 	fnmls	z12.h, p5/m, z11.h, z4.h
     d5c:	706f2f00 	adr	x0, df33f <_start-0x120cc1>
     d60:	6f682f74 	.inst	0x6f682f74 ; undefined
     d64:	7262656d 	.inst	0x7262656d ; undefined
     d68:	432f7765 	.inst	0x432f7765 ; undefined
     d6c:	616c6c65 	.inst	0x616c6c65 ; undefined
     d70:	61612f72 	.inst	0x61612f72 ; undefined
     d74:	36686372 	tbz	w18, #13, 19e0 <_start-0x1fe620>
     d78:	6e752d34 	uqsub	v20.8h, v9.8h, v21.8h
     d7c:	776f6e6b 	.inst	0x776f6e6b ; undefined
     d80:	696c2d6e 	ldpsw	x14, x11, [x11, #-160]
     d84:	2d78756e 	ldp	s14, s29, [x11, #-64]
     d88:	2f756e67 	.inst	0x2f756e67 ; undefined
     d8c:	332e3331 	.inst	0x332e3331 ; undefined
     d90:	742f302e 	.inst	0x742f302e ; undefined
     d94:	636c6f6f 	.inst	0x636c6f6f ; undefined
     d98:	6e696168 	rsubhn2	v8.8h, v11.4s, v9.4s
     d9c:	62696c2f 	.inst	0x62696c2f ; undefined
     da0:	6363672f 	.inst	0x6363672f ; undefined
     da4:	7261612f 	.inst	0x7261612f ; undefined
     da8:	34366863 	cbz	w3, 6dab4 <_start-0x19254c>
     dac:	6b6e752d 	.inst	0x6b6e752d ; undefined
     db0:	6e776f6e 	umin	v14.8h, v27.8h, v23.8h
     db4:	6e696c2d 	umin	v13.8h, v1.8h, v9.8h
     db8:	672d7875 	.inst	0x672d7875 ; undefined
     dbc:	312f756e 	adds	w14, w11, #0xbdd
     dc0:	2e332e33 	uqsub	v19.8b, v17.8b, v19.8b
     dc4:	6e692f30 	uqsub	v16.8h, v25.8h, v9.8h
     dc8:	64756c63 	.inst	0x64756c63 ; undefined
     dcc:	75000065 	.inst	0x75000065 ; undefined
     dd0:	2e6c6974 	.inst	0x2e6c6974 ; undefined
     dd4:	00010063 	.inst	0x00010063 ; undefined
     dd8:	61687300 	.inst	0x61687300 ; undefined
     ddc:	5f646572 	.inst	0x5f646572 ; undefined
     de0:	65707974 	fnmls	z20.h, p6/m, z11.h, z16.h
     de4:	65675f73 	fnmla	z19.h, p7/m, z27.h, z7.h
     de8:	00682e6e 	.inst	0x00682e6e ; undefined
     dec:	66000002 	.inst	0x66000002 ; undefined
     df0:	74636e75 	.inst	0x74636e75 ; undefined
     df4:	736e6f69 	.inst	0x736e6f69 ; undefined
     df8:	0200682e 	.inst	0x0200682e ; undefined
     dfc:	79730000 	ldrh	w0, [x0, #6528]
     e00:	6c616373 	ldnp	d19, d24, [x27, #-496]
     e04:	682e736c 	.inst	0x682e736c ; undefined
     e08:	00000300 	.inst	0x00000300 ; undefined
     e0c:	63737973 	.inst	0x63737973 ; undefined
     e10:	736c6c61 	.inst	0x736c6c61 ; undefined
     e14:	0400682e 	mls	z14.b, p2/m, z1.b, z0.b
     e18:	65730000 	fmla	z0.h, p0/m, z0.h, z19.h
     e1c:	635f346c 	.inst	0x635f346c ; undefined
     e20:	6e65696c 	.inst	0x6e65696c ; undefined
     e24:	00682e74 	.inst	0x00682e74 ; undefined
     e28:	6d000005 	stp	d5, d0, [x0]
     e2c:	6f726369 	umlsl2	v9.4s, v27.8h, v2.h[3]
     e30:	2e74696b 	.inst	0x2e74696b ; undefined
     e34:	00060068 	.inst	0x00060068 ; undefined
     e38:	69747500 	ldpsw	x0, x29, [x8, #-96]
     e3c:	00682e6c 	.inst	0x00682e6c ; undefined
     e40:	73000001 	.inst	0x73000001 ; undefined
     e44:	6e696474 	umax	v20.8h, v3.8h, v9.8h
     e48:	63672d74 	.inst	0x63672d74 ; undefined
     e4c:	00682e63 	.inst	0x00682e63 ; undefined
     e50:	73000007 	.inst	0x73000007 ; undefined
     e54:	6c706d69 	ldnp	d9, d27, [x11, #-256]
     e58:	79745f65 	ldrh	w5, [x27, #6702]
     e5c:	2e736570 	umax	v16.4h, v11.4h, v19.4h
     e60:	00020068 	.inst	0x00020068 ; undefined
     e64:	6e6f6300 	rsubhn2	v0.8h, v24.4s, v15.4s
     e68:	6e617473 	uabd	v19.8h, v3.8h, v1.8h
     e6c:	682e7374 	.inst	0x682e7374 ; undefined
     e70:	00000300 	.inst	0x00000300 ; undefined
     e74:	65707974 	fnmls	z20.h, p6/m, z11.h, z16.h
     e78:	00682e73 	.inst	0x00682e73 ; undefined
     e7c:	74000003 	.inst	0x74000003 ; undefined
     e80:	73657079 	.inst	0x73657079 ; undefined
     e84:	0400682e 	mls	z14.b, p2/m, z1.b, z0.b
     e88:	79730000 	ldrh	w0, [x0, #6528]
     e8c:	6c616373 	ldnp	d19, d24, [x27, #-496]
     e90:	00682e6c 	.inst	0x00682e6c ; undefined
     e94:	6f000002 	.inst	0x6f000002 ; undefined
     e98:	63656a62 	.inst	0x63656a62 ; undefined
     e9c:	70797474 	adr	x20, f3d2b <_start-0x10c2d5>
     ea0:	00682e65 	.inst	0x00682e65 ; undefined
     ea4:	65000002 	.inst	0x65000002 ; undefined
     ea8:	726f7272 	.inst	0x726f7272 ; undefined
     eac:	00682e73 	.inst	0x00682e73 ; undefined
     eb0:	73000002 	.inst	0x73000002 ; undefined
     eb4:	65726168 	fnmls	z8.h, p0/m, z11.h, z18.h
     eb8:	79745f64 	ldrh	w4, [x27, #6702]
     ebc:	2e736570 	umax	v16.4h, v11.4h, v19.4h
     ec0:	00020068 	.inst	0x00020068 ; undefined
     ec4:	766e6900 	.inst	0x766e6900 ; undefined
     ec8:	7461636f 	.inst	0x7461636f ; undefined
     ecc:	2e6e6f69 	umin	v9.4h, v27.4h, v14.4h
     ed0:	00040068 	.inst	0x00040068 ; undefined
     ed4:	64747300 	.inst	0x64747300 ; undefined
     ed8:	2e666564 	umax	v4.4h, v11.4h, v6.4h
     edc:	00070068 	.inst	0x00070068 ; undefined
     ee0:	73736100 	.inst	0x73736100 ; undefined
     ee4:	2e747265 	uabdl	v5.4s, v19.4h, v20.4h
     ee8:	00020068 	.inst	0x00020068 ; undefined
     eec:	69727000 	ldpsw	x0, x28, [x0, #-112]
     ef0:	2e66746e 	uabd	v14.4h, v3.4h, v6.4h
     ef4:	00010068 	.inst	0x00010068 ; undefined
     ef8:	02040000 	.inst	0x02040000 ; undefined
     efc:	09006f05 	.inst	0x09006f05 ; undefined
     f00:	202b1c02 	.inst	0x202b1c02 ; undefined
     f04:	00000000 	.inst	0x00000000 ; undefined
     f08:	02bd0300 	.inst	0x02bd0300 ; undefined
     f0c:	6a050501 	ands	w1, w8, w5, lsl #1
     f10:	01040200 	.inst	0x01040200 ; undefined
     f14:	83064a06 	.inst	0x83064a06 ; undefined
     f18:	01040200 	.inst	0x01040200 ; undefined
     f1c:	83063c06 	.inst	0x83063c06 ; undefined
     f20:	01040200 	.inst	0x01040200 ; undefined
     f24:	83063c06 	.inst	0x83063c06 ; undefined
     f28:	01040200 	.inst	0x01040200 ; undefined
     f2c:	09053c06 	.inst	0x09053c06 ; undefined
     f30:	24058506 	cmpge	p6.b, p1/z, z8.b, z5.b
     f34:	3c09052f 	str	b15, [x9], #144
     f38:	05212005 	mov	z5.b, b0
     f3c:	1e053c09 	.inst	0x1e053c09 ; undefined
     f40:	2e090521 	.inst	0x2e090521 ; undefined
     f44:	051c1f05 	mov	z5.b, p12/z, #-8
     f48:	0105260c 	.inst	0x0105260c ; undefined
     f4c:	03410521 	.inst	0x03410521 ; undefined
     f50:	22052e12 	.inst	0x22052e12 ; undefined
     f54:	20090530 	.inst	0x20090530 ; undefined
     f58:	05330c05 	ext	z5.b, z5.b, z0.b, #155
     f5c:	42052101 	.inst	0x42052101 ; undefined
     f60:	2e00ed03 	.inst	0x2e00ed03 ; undefined
     f64:	05302205 	mov	z5.q, q16
     f68:	0c052009 	.inst	0x0c052009 ; undefined
     f6c:	21010533 	.inst	0x21010533 ; undefined
     f70:	cd030304 	.inst	0xcd030304 ; undefined
     f74:	0c052e7c 	.inst	0x0c052e7c ; undefined
     f78:	3d010513 	str	b19, [x8, #65]
     f7c:	3d0c0523 	str	b3, [x9, #769]
     f80:	02002405 	.inst	0x02002405 ; undefined
     f84:	052e0104 	ext	z4.b, z4.b, z8.b, #112
     f88:	05314b01 	.inst	0x05314b01 ; undefined
     f8c:	21054b05 	.inst	0x21054b05 ; undefined
     f90:	01040200 	.inst	0x01040200 ; undefined
     f94:	5901052e 	.inst	0x5901052e ; undefined
     f98:	05410404 	eor	z4.h, z4.h, #0x1
     f9c:	23218318 	.inst	0x23218318 ; undefined
     fa0:	23212121 	.inst	0x23212121 ; undefined
     fa4:	05210505 	ext	z5.b, z5.b, z8.b, #9
     fa8:	c8032601 	stxr	w3, x1, [x16]
     fac:	18053c00 	ldr	w0, b72c <_start-0x1f48d4>
     fb0:	29052191 	stp	w17, w8, [x12, #40]
     fb4:	2f2f2f23 	.inst	0x2f2f2f23 ; undefined
     fb8:	052f0505 	ext	z5.b, z5.b, z8.b, #121
     fbc:	05052318 	.inst	0x05052318 ; undefined
     fc0:	270f0521 	.inst	0x270f0521 ; undefined
     fc4:	053d1005 	ext	z5.b, z5.b, z0.b, #236
     fc8:	3d3d3d11 	str	b17, [x8, #3919]
     fcc:	3d01053d 	str	b29, [x9, #65]
     fd0:	e6030504 	.inst	0xe6030504 ; undefined
     fd4:	05053c7e 	.inst	0x05053c7e ; undefined
     fd8:	04020067 	.inst	0x04020067 ; undefined
     fdc:	004a0601 	.inst	0x004a0601 ; undefined
     fe0:	3c020402 	str	b2, [x0], #32
     fe4:	03040200 	.inst	0x03040200 ; undefined
     fe8:	0402003c 	.inst	0x0402003c ; undefined
     fec:	01052e04 	.inst	0x01052e04 ; undefined
     ff0:	a6038306 	.inst	0xa6038306 ; undefined
     ff4:	0f055801 	fmls	v1.4h, v0.4h, v5.h[4]
     ff8:	21212192 	.inst	0x21212192 ; undefined
     ffc:	05230805 	ext	z5.b, z5.b, z0.b, #26
    1000:	0402001d 	.inst	0x0402001d ; undefined
    1004:	1a053c01 	.inst	0x1a053c01 ; undefined
    1008:	01040200 	.inst	0x01040200 ; undefined
    100c:	2f10052e 	ushr	v14.4h, v9.4h, #16
    1010:	052e0e05 	ext	z5.b, z5.b, z16.b, #115
    1014:	1d052208 	.inst	0x1d052208 ; undefined
    1018:	01040200 	.inst	0x01040200 ; undefined
    101c:	001a053c 	.inst	0x001a053c ; undefined
    1020:	2e010402 	.inst	0x2e010402 ; undefined
    1024:	052f1005 	ext	z5.b, z5.b, z0.b, #124
    1028:	08052e0e 	stxrb	w5, w14, [x16]
    102c:	001d0522 	.inst	0x001d0522 ; undefined
    1030:	3c010402 	str	b2, [x0], #16
    1034:	02001a05 	.inst	0x02001a05 ; undefined
    1038:	052e0104 	ext	z4.b, z4.b, z8.b, #112
    103c:	0e052f10 	smov	w16, v24.b[2]
    1040:	2208052e 	.inst	0x2208052e ; undefined
    1044:	02001d05 	.inst	0x02001d05 ; undefined
    1048:	053c0104 	ext	z4.b, z4.b, z8.b, #224
    104c:	0402001a 	.inst	0x0402001a ; undefined
    1050:	10052e01 	adr	x1, b610 <_start-0x1f49f0>
    1054:	2e0e052f 	.inst	0x2e0e052f ; undefined
    1058:	05230505 	ext	z5.b, z5.b, z8.b, #25
    105c:	0e05bd08 	.inst	0x0e05bd08 ; undefined
    1060:	3e08053d 	.inst	0x3e08053d ; undefined
    1064:	053d0e05 	ext	z5.b, z5.b, z16.b, #235
    1068:	0e053e08 	umov	w8, v16.b[2]
    106c:	3e08053d 	.inst	0x3e08053d ; undefined
    1070:	053d0e05 	ext	z5.b, z5.b, z16.b, #235
    1074:	01053f0c 	.inst	0x01053f0c ; undefined
    1078:	03060421 	.inst	0x03060421 ; undefined
    107c:	053c099e 	ext	z30.b, z30.b, z12.b, #226
    1080:	06055a1b 	.inst	0x06055a1b ; undefined
    1084:	21212f6e 	.inst	0x21212f6e ; undefined
    1088:	05230f05 	ext	z5.b, z5.b, z24.b, #27
    108c:	0f05bc11 	.inst	0x0f05bc11 ; undefined
    1090:	01040200 	.inst	0x01040200 ; undefined
    1094:	230c052e 	.inst	0x230c052e ; undefined
    1098:	05200505 	ext	z5.b, z5.b, z8.b, #1
    109c:	4b4b2f03 	sub	w3, w24, w11, lsr #11
    10a0:	500a054b 	adr	x11, 1514a <_start-0x1eaeb6>
    10a4:	05400f05 	eor	z5.b, z5.b, #0x88
    10a8:	01052f09 	.inst	0x01052f09 ; undefined
    10ac:	0307042f 	.inst	0x0307042f ; undefined
    10b0:	05907592 	mov	z18.s, p0/m, #-21504
    10b4:	0a053615 	and	w21, w16, w5, lsl #13
    10b8:	21080520 	.inst	0x21080520 ; undefined
    10bc:	032f0105 	.inst	0x032f0105 ; undefined
    10c0:	0c053c2f 	.inst	0x0c053c2f ; undefined
    10c4:	6701054b 	.inst	0x6701054b ; undefined
    10c8:	052e0d03 	ext	z3.b, z3.b, z8.b, #115
    10cc:	01054b05 	.inst	0x01054b05 ; undefined
    10d0:	0c053f3d 	.inst	0x0c053f3d ; undefined
    10d4:	2f01053d 	mvni	v29.2s, #0x29
    10d8:	052e3703 	.inst	0x052e3703 ; undefined
    10dc:	0b054c30 	add	w16, w1, w5, lsl #19
    10e0:	4b0c052e 	sub	w14, w9, w12, lsl #1
    10e4:	05200805 	ext	z5.b, z5.b, z0.b, #2
    10e8:	24052f09 	cmpeq	p9.b, p3/z, z24.b, z5.d
    10ec:	2009053d 	.inst	0x2009053d ; undefined
    10f0:	05230f05 	ext	z5.b, z5.b, z24.b, #27
    10f4:	08042101 	stxrb	w4, w1, [x8]
    10f8:	e3031905 	.inst	0xe3031905 ; undefined
    10fc:	10052e7e 	adr	x30, b6c8 <_start-0x1f4938>
    1100:	4b01052f 	sub	w15, w9, w1, lsl #1
    1104:	3e0e0532 	.inst	0x3e0e0532 ; undefined
    1108:	052f0c05 	ext	z5.b, z5.b, z0.b, #123
    110c:	14052211 	b	149950 <_start-0xb66b0>
    1110:	2012059f 	.inst	0x2012059f ; undefined
    1114:	053c1405 	ext	z5.b, z5.b, z0.b, #229
    1118:	04020012 	.inst	0x04020012 ; undefined
    111c:	0b053c01 	add	w1, w0, w5, lsl #15
    1120:	000e053d 	.inst	0x000e053d ; undefined
    1124:	75010402 	.inst	0x75010402 ; undefined
    1128:	053d1705 	ext	z5.b, z5.b, z24.b, #237
    112c:	01053c05 	.inst	0x01053c05 ; undefined
    1130:	1c054121 	ldr	s1, b954 <_start-0x1f46ac>
    1134:	4b05052f 	sub	w15, w9, w5, lsl #1
    1138:	3f3d0105 	.inst	0x3f3d0105 ; undefined
    113c:	05301905 	ext	z5.b, z5.b, z8.b, #134
    1140:	01053c1d 	.inst	0x01053c1d ; undefined
    1144:	3127052f 	adds	w15, w9, #0x9c1
    1148:	2b030105 	adds	w5, w8, w3
    114c:	4023052e 	.inst	0x4023052e ; undefined
    1150:	3e3d0505 	.inst	0x3e3d0505 ; undefined
    1154:	01040200 	.inst	0x01040200 ; undefined
    1158:	4b063c06 	sub	w6, w0, w6, lsl #15
    115c:	01040200 	.inst	0x01040200 ; undefined
    1160:	4b063c06 	sub	w6, w0, w6, lsl #15
    1164:	01040200 	.inst	0x01040200 ; undefined
    1168:	4b063c06 	sub	w6, w0, w6, lsl #15
    116c:	01040200 	.inst	0x01040200 ; undefined
    1170:	4b063c06 	sub	w6, w0, w6, lsl #15
    1174:	01040200 	.inst	0x01040200 ; undefined
    1178:	4b063c06 	sub	w6, w0, w6, lsl #15
    117c:	01040200 	.inst	0x01040200 ; undefined
    1180:	4b063c06 	sub	w6, w0, w6, lsl #15
    1184:	01040200 	.inst	0x01040200 ; undefined
    1188:	4c063c06 	.inst	0x4c063c06 ; undefined
    118c:	01040200 	.inst	0x01040200 ; undefined
    1190:	4b063c06 	sub	w6, w0, w6, lsl #15
    1194:	01040200 	.inst	0x01040200 ; undefined
    1198:	4c063c06 	.inst	0x4c063c06 ; undefined
    119c:	01040200 	.inst	0x01040200 ; undefined
    11a0:	4b063c06 	sub	w6, w0, w6, lsl #15
    11a4:	01040200 	.inst	0x01040200 ; undefined
    11a8:	4b063c06 	sub	w6, w0, w6, lsl #15
    11ac:	01040200 	.inst	0x01040200 ; undefined
    11b0:	4b063c06 	sub	w6, w0, w6, lsl #15
    11b4:	01040200 	.inst	0x01040200 ; undefined
    11b8:	4b063c06 	sub	w6, w0, w6, lsl #15
    11bc:	01040200 	.inst	0x01040200 ; undefined
    11c0:	4b063c06 	sub	w6, w0, w6, lsl #15
    11c4:	01040200 	.inst	0x01040200 ; undefined
    11c8:	4c063c06 	.inst	0x4c063c06 ; undefined
    11cc:	01040200 	.inst	0x01040200 ; undefined
    11d0:	50063c06 	adr	x6, d952 <_start-0x1f26ae>
    11d4:	01040200 	.inst	0x01040200 ; undefined
    11d8:	4b063c06 	sub	w6, w0, w6, lsl #15
    11dc:	01040200 	.inst	0x01040200 ; undefined
    11e0:	4b063c06 	sub	w6, w0, w6, lsl #15
    11e4:	01040200 	.inst	0x01040200 ; undefined
    11e8:	4c063c06 	.inst	0x4c063c06 ; undefined
    11ec:	01040200 	.inst	0x01040200 ; undefined
    11f0:	4b063c06 	sub	w6, w0, w6, lsl #15
    11f4:	01040200 	.inst	0x01040200 ; undefined
    11f8:	4b063c06 	sub	w6, w0, w6, lsl #15
    11fc:	01040200 	.inst	0x01040200 ; undefined
    1200:	4b063c06 	sub	w6, w0, w6, lsl #15
    1204:	01040200 	.inst	0x01040200 ; undefined
    1208:	01053c06 	.inst	0x01053c06 ; undefined
    120c:	053f4b06 	.inst	0x053f4b06 ; undefined
    1210:	1a054b14 	.inst	0x1a054b14 ; undefined
    1214:	2f05052f 	mvni	v15.2s, #0xa9
    1218:	02001d05 	.inst	0x02001d05 ; undefined
    121c:	05200204 	ext	z4.b, z4.b, z16.b, #0
    1220:	04020016 	.inst	0x04020016 ; undefined
    1224:	1b053c02 	madd	w2, w0, w5, w15
    1228:	02040200 	.inst	0x02040200 ; undefined
    122c:	0019053c 	.inst	0x0019053c ; undefined
    1230:	20020402 	.inst	0x20020402 ; undefined
    1234:	02001005 	.inst	0x02001005 ; undefined
    1238:	05200204 	ext	z4.b, z4.b, z16.b, #0
    123c:	0402000c 	.inst	0x0402000c ; undefined
    1240:	053d3c01 	.inst	0x053d3c01 ; undefined
    1244:	05312101 	mov	z1.b, z8.b[8]
    1248:	05054b14 	.inst	0x05054b14 ; undefined
    124c:	001c052f 	.inst	0x001c052f ; undefined
    1250:	20020402 	.inst	0x20020402 ; undefined
    1254:	02001005 	.inst	0x02001005 ; undefined
    1258:	054a0204 	.inst	0x054a0204 ; undefined
    125c:	04020015 	.inst	0x04020015 ; undefined
    1260:	0c053c02 	.inst	0x0c053c02 ; undefined
    1264:	01040200 	.inst	0x01040200 ; undefined
    1268:	01053d3c 	.inst	0x01053d3c ; undefined
    126c:	05053521 	.inst	0x05053521 ; undefined
    1270:	750b0567 	.inst	0x750b0567 ; undefined
    1274:	01050104 	.inst	0x01050104 ; undefined
    1278:	2e7ed803 	.inst	0x2e7ed803 ; undefined
    127c:	053d0505 	ext	z5.b, z5.b, z8.b, #233
    1280:	05402f01 	eor	z1.b, z1.b, #0x88
    1284:	2f3d6705 	sqshlu	v5.2s, v24.2s, #29
    1288:	2f3d2f3d 	.inst	0x2f3d2f3d ; undefined
    128c:	023d0b05 	.inst	0x023d0b05 ; undefined
    1290:	01010002 	.inst	0x01010002 ; undefined
    1294:	00000053 	.inst	0x00000053 ; undefined
    1298:	00340002 	.inst	0x00340002 ; NYI
    129c:	01040000 	.inst	0x01040000 ; undefined
    12a0:	000d0efb 	.inst	0x000d0efb ; undefined
    12a4:	01010101 	.inst	0x01010101 ; undefined
    12a8:	01000000 	.inst	0x01000000 ; undefined
    12ac:	2e010000 	ext	v0.8b, v0.8b, v1.8b, #0
    12b0:	7000002e 	adr	x14, 12b7 <_start-0x1fed49>
    12b4:	69747261 	ldpsw	x1, x28, [x19, #-96]
    12b8:	6e6f6974 	.inst	0x6e6f6974 ; undefined
    12bc:	0100632e 	.inst	0x0100632e ; undefined
    12c0:	61700000 	.inst	0x61700000 ; undefined
    12c4:	74697472 	.inst	0x74697472 ; undefined
    12c8:	2e6e6f69 	umin	v9.4h, v27.4h, v14.4h
    12cc:	00010068 	.inst	0x00010068 ; undefined
    12d0:	5e050000 	sha1c	q0, s0, v5.4s
    12d4:	20020900 	.inst	0x20020900 ; undefined
    12d8:	00002037 	.inst	0x00002037 ; undefined
    12dc:	14000000 	b	12dc <_start-0x1fed24>
    12e0:	053d1605 	ext	z5.b, z5.b, z16.b, #237
    12e4:	03023d01 	.inst	0x03023d01 ; undefined
    12e8:	5e010100 	sha1c	q0, s8, v1.4s
    12ec:	02000005 	.inst	0x02000005 ; undefined
    12f0:	00034c00 	.inst	0x00034c00 ; undefined
    12f4:	fb010400 	.inst	0xfb010400 ; undefined
    12f8:	01000d0e 	.inst	0x01000d0e ; undefined
    12fc:	00010101 	.inst	0x00010101 ; undefined
    1300:	00010000 	.inst	0x00010000 ; undefined
    1304:	2e2e0100 	uaddl	v0.8h, v8.8b, v14.8b
    1308:	73552f00 	.inst	0x73552f00 ; undefined
    130c:	2f737265 	.inst	0x2f737265 ; undefined
    1310:	742f646a 	.inst	0x742f646a ; undefined
    1314:	74737572 	.inst	0x74737572 ; undefined
    1318:	74726f77 	.inst	0x74726f77 ; undefined
    131c:	732d7968 	.inst	0x732d7968 ; undefined
    1320:	65747379 	fnmls	z25.h, p4/m, z27.h, z20.h
    1324:	6d2f736d 	stp	d13, d28, [x27, #-272]
    1328:	6f726369 	umlsl2	v9.4s, v27.8h, v2.h[3]
    132c:	2d74696b 	ldp	s11, s26, [x11, #-96]
    1330:	2d6b6473 	ldp	s19, s25, [x3, #-168]
    1334:	2e342e31 	uqsub	v17.8b, v17.8b, v20.8b
    1338:	6f622f31 	.inst	0x6f622f31 ; undefined
    133c:	2f647261 	fcmla	v1.4h, v19.4h, v4.h[1], #270
    1340:	756d6571 	.inst	0x756d6571 ; undefined
    1344:	7269765f 	.inst	0x7269765f ; undefined
    1348:	61615f74 	.inst	0x61615f74 ; undefined
    134c:	36686372 	tbz	w18, #13, 1fb8 <_start-0x1fe048>
    1350:	65642f34 	fmls	z20.h, p3/m, z25.h, z4.h
    1354:	2f677562 	.inst	0x2f677562 ; undefined
    1358:	6c636e69 	ldnp	d9, d27, [x19, #-464]
    135c:	2f656475 	.inst	0x2f656475 ; undefined
    1360:	346c6573 	cbz	w19, da00c <_start-0x125ff4>
    1364:	73552f00 	.inst	0x73552f00 ; undefined
    1368:	2f737265 	.inst	0x2f737265 ; undefined
    136c:	742f646a 	.inst	0x742f646a ; undefined
    1370:	74737572 	.inst	0x74737572 ; undefined
    1374:	74726f77 	.inst	0x74726f77 ; undefined
    1378:	732d7968 	.inst	0x732d7968 ; undefined
    137c:	65747379 	fnmls	z25.h, p4/m, z27.h, z20.h
    1380:	6d2f736d 	stp	d13, d28, [x27, #-272]
    1384:	6f726369 	umlsl2	v9.4s, v27.8h, v2.h[3]
    1388:	2d74696b 	ldp	s11, s26, [x11, #-96]
    138c:	2d6b6473 	ldp	s19, s25, [x3, #-168]
    1390:	2e342e31 	uqsub	v17.8b, v17.8b, v20.8b
    1394:	6f622f31 	.inst	0x6f622f31 ; undefined
    1398:	2f647261 	fcmla	v1.4h, v19.4h, v4.h[1], #270
    139c:	756d6571 	.inst	0x756d6571 ; undefined
    13a0:	7269765f 	.inst	0x7269765f ; undefined
    13a4:	61615f74 	.inst	0x61615f74 ; undefined
    13a8:	36686372 	tbz	w18, #13, 2014 <_start-0x1fdfec>
    13ac:	65642f34 	fmls	z20.h, p3/m, z25.h, z4.h
    13b0:	2f677562 	.inst	0x2f677562 ; undefined
    13b4:	6c636e69 	ldnp	d9, d27, [x19, #-464]
    13b8:	2f656475 	.inst	0x2f656475 ; undefined
    13bc:	346c6573 	cbz	w19, da068 <_start-0x125f98>
    13c0:	6c65732f 	ldnp	d15, d28, [x25, #-432]
    13c4:	72615f34 	.inst	0x72615f34 ; undefined
    13c8:	2f006863 	.inst	0x2f006863 ; undefined
    13cc:	72657355 	.inst	0x72657355 ; undefined
    13d0:	646a2f73 	.inst	0x646a2f73 ; undefined
    13d4:	7572742f 	.inst	0x7572742f ; undefined
    13d8:	6f777473 	uqshl	v19.2d, v3.2d, #55
    13dc:	79687472 	ldrh	w18, [x3, #5178]
    13e0:	7379732d 	.inst	0x7379732d ; undefined
    13e4:	736d6574 	.inst	0x736d6574 ; undefined
    13e8:	63696d2f 	.inst	0x63696d2f ; undefined
    13ec:	696b6f72 	ldpsw	x18, x27, [x27, #-168]
    13f0:	64732d74 	.inst	0x64732d74 ; undefined
    13f4:	2e312d6b 	uqsub	v11.8b, v11.8b, v17.8b
    13f8:	2f312e34 	.inst	0x2f312e34 ; undefined
    13fc:	72616f62 	.inst	0x72616f62 ; undefined
    1400:	65712f64 	fmls	z4.h, p3/m, z27.h, z17.h
    1404:	765f756d 	.inst	0x765f756d ; undefined
    1408:	5f747269 	sqdmlsl	s9, h19, v4.h[3]
    140c:	63726161 	.inst	0x63726161 ; undefined
    1410:	2f343668 	ursra	v8.2s, v19.2s, #12
    1414:	75626564 	.inst	0x75626564 ; undefined
    1418:	6e692f67 	uqsub	v7.8h, v27.8h, v9.8h
    141c:	64756c63 	.inst	0x64756c63 ; undefined
    1420:	65732f65 	fmls	z5.h, p3/m, z27.h, z19.h
    1424:	612f346c 	.inst	0x612f346c ; undefined
    1428:	00686372 	.inst	0x00686372 ; undefined
    142c:	6573552f 	fnmla	z15.h, p5/m, z9.h, z19.h
    1430:	6a2f7372 	bics	w18, w27, w15, lsl #28
    1434:	72742f64 	.inst	0x72742f64 ; undefined
    1438:	77747375 	.inst	0x77747375 ; undefined
    143c:	6874726f 	.inst	0x6874726f ; undefined
    1440:	79732d79 	ldrh	w25, [x11, #6550]
    1444:	6d657473 	ldp	d19, d29, [x3, #-432]
    1448:	696d2f73 	ldpsw	x19, x11, [x27, #-152]
    144c:	6b6f7263 	.inst	0x6b6f7263 ; undefined
    1450:	732d7469 	.inst	0x732d7469 ; undefined
    1454:	312d6b64 	adds	w4, w27, #0xb5a
    1458:	312e342e 	adds	w14, w1, #0xb8d
    145c:	616f622f 	.inst	0x616f622f ; undefined
    1460:	712f6472 	subs	w18, w3, #0xbd9
    1464:	5f756d65 	.inst	0x5f756d65 ; undefined
    1468:	74726976 	.inst	0x74726976 ; undefined
    146c:	7261615f 	.inst	0x7261615f ; undefined
    1470:	34366863 	cbz	w3, 6e17c <_start-0x191e84>
    1474:	6265642f 	.inst	0x6265642f ; undefined
    1478:	692f6775 	.inst	0x692f6775 ; undefined
    147c:	756c636e 	.inst	0x756c636e ; undefined
    1480:	2f006564 	mvni	v4.2s, #0xb, lsl #24
    1484:	72657355 	.inst	0x72657355 ; undefined
    1488:	646a2f73 	.inst	0x646a2f73 ; undefined
    148c:	7572742f 	.inst	0x7572742f ; undefined
    1490:	6f777473 	uqshl	v19.2d, v3.2d, #55
    1494:	79687472 	ldrh	w18, [x3, #5178]
    1498:	7379732d 	.inst	0x7379732d ; undefined
    149c:	736d6574 	.inst	0x736d6574 ; undefined
    14a0:	6464732f 	.inst	0x6464732f ; undefined
    14a4:	6e692f66 	uqsub	v6.8h, v27.8h, v9.8h
    14a8:	64756c63 	.inst	0x64756c63 ; undefined
    14ac:	64732f65 	.inst	0x64732f65 ; undefined
    14b0:	742f6664 	.inst	0x742f6664 ; undefined
    14b4:	72656d69 	.inst	0x72656d69 ; undefined
    14b8:	706f2f00 	adr	x0, dfa9b <_start-0x120565>
    14bc:	6f682f74 	.inst	0x6f682f74 ; undefined
    14c0:	7262656d 	.inst	0x7262656d ; undefined
    14c4:	432f7765 	.inst	0x432f7765 ; undefined
    14c8:	616c6c65 	.inst	0x616c6c65 ; undefined
    14cc:	61612f72 	.inst	0x61612f72 ; undefined
    14d0:	36686372 	tbz	w18, #13, 213c <_start-0x1fdec4>
    14d4:	6e752d34 	uqsub	v20.8h, v9.8h, v21.8h
    14d8:	776f6e6b 	.inst	0x776f6e6b ; undefined
    14dc:	696c2d6e 	ldpsw	x14, x11, [x11, #-160]
    14e0:	2d78756e 	ldp	s14, s29, [x11, #-64]
    14e4:	2f756e67 	.inst	0x2f756e67 ; undefined
    14e8:	332e3331 	.inst	0x332e3331 ; undefined
    14ec:	742f302e 	.inst	0x742f302e ; undefined
    14f0:	636c6f6f 	.inst	0x636c6f6f ; undefined
    14f4:	6e696168 	rsubhn2	v8.8h, v11.4s, v9.4s
    14f8:	62696c2f 	.inst	0x62696c2f ; undefined
    14fc:	6363672f 	.inst	0x6363672f ; undefined
    1500:	7261612f 	.inst	0x7261612f ; undefined
    1504:	34366863 	cbz	w3, 6e210 <_start-0x191df0>
    1508:	6b6e752d 	.inst	0x6b6e752d ; undefined
    150c:	6e776f6e 	umin	v14.8h, v27.8h, v23.8h
    1510:	6e696c2d 	umin	v13.8h, v1.8h, v9.8h
    1514:	672d7875 	.inst	0x672d7875 ; undefined
    1518:	312f756e 	adds	w14, w11, #0xbdd
    151c:	2e332e33 	uqsub	v19.8b, v17.8b, v19.8b
    1520:	6e692f30 	uqsub	v16.8h, v25.8h, v9.8h
    1524:	64756c63 	.inst	0x64756c63 ; undefined
    1528:	73000065 	.inst	0x73000065 ; undefined
    152c:	64656863 	.inst	0x64656863 ; undefined
    1530:	72656c75 	.inst	0x72656c75 ; undefined
    1534:	0100632e 	.inst	0x0100632e ; undefined
    1538:	68730000 	.inst	0x68730000 ; undefined
    153c:	64657261 	.inst	0x64657261 ; undefined
    1540:	7079745f 	adr	xzr, f43cb <_start-0x10bc35>
    1544:	675f7365 	.inst	0x675f7365 ; undefined
    1548:	682e6e65 	.inst	0x682e6e65 ; undefined
    154c:	00000200 	.inst	0x00000200 ; undefined
    1550:	636e7566 	.inst	0x636e7566 ; undefined
    1554:	6e6f6974 	.inst	0x6e6f6974 ; undefined
    1558:	00682e73 	.inst	0x00682e73 ; undefined
    155c:	73000002 	.inst	0x73000002 ; undefined
    1560:	61637379 	.inst	0x61637379 ; undefined
    1564:	2e736c6c 	umin	v12.4h, v3.4h, v19.4h
    1568:	00030068 	.inst	0x00030068 ; undefined
    156c:	73797300 	.inst	0x73797300 ; undefined
    1570:	6c6c6163 	ldnp	d3, d24, [x11, #-320]
    1574:	00682e73 	.inst	0x00682e73 ; undefined
    1578:	6d000004 	stp	d4, d0, [x0]
    157c:	6f726369 	umlsl2	v9.4s, v27.8h, v2.h[3]
    1580:	2e74696b 	.inst	0x2e74696b ; undefined
    1584:	00050068 	.inst	0x00050068 ; undefined
    1588:	696c6300 	ldpsw	x0, x24, [x24, #-160]
    158c:	2e746e65 	umin	v5.4h, v19.4h, v20.4h
    1590:	00060068 	.inst	0x00060068 ; undefined
    1594:	64747300 	.inst	0x64747300 ; undefined
    1598:	2d746e69 	ldp	s9, s27, [x19, #-96]
    159c:	2e636367 	rsubhn	v7.4h, v27.4s, v3.4s
    15a0:	00070068 	.inst	0x00070068 ; undefined
    15a4:	72617000 	.inst	0x72617000 ; undefined
    15a8:	69746974 	ldpsw	x20, x26, [x11, #-96]
    15ac:	682e6e6f 	.inst	0x682e6e6f ; undefined
    15b0:	00000100 	.inst	0x00000100 ; undefined
    15b4:	706d6973 	adr	x19, dc2e3 <_start-0x123d1d>
    15b8:	745f656c 	.inst	0x745f656c ; undefined
    15bc:	73657079 	.inst	0x73657079 ; undefined
    15c0:	0200682e 	.inst	0x0200682e ; undefined
    15c4:	79730000 	ldrh	w0, [x0, #6528]
    15c8:	6c616373 	ldnp	d19, d24, [x27, #-496]
    15cc:	00682e6c 	.inst	0x00682e6c ; undefined
    15d0:	6f000002 	.inst	0x6f000002 ; undefined
    15d4:	63656a62 	.inst	0x63656a62 ; undefined
    15d8:	70797474 	adr	x20, f4467 <_start-0x10bb99>
    15dc:	00682e65 	.inst	0x00682e65 ; undefined
    15e0:	6f000002 	.inst	0x6f000002 ; undefined
    15e4:	63656a62 	.inst	0x63656a62 ; undefined
    15e8:	70797474 	adr	x20, f4477 <_start-0x10bb89>
    15ec:	00682e65 	.inst	0x00682e65 ; undefined
    15f0:	63000003 	.inst	0x63000003 ; undefined
    15f4:	74736e6f 	.inst	0x74736e6f ; undefined
    15f8:	73746e61 	.inst	0x73746e61 ; undefined
    15fc:	0200682e 	.inst	0x0200682e ; undefined
    1600:	68730000 	.inst	0x68730000 ; undefined
    1604:	64657261 	.inst	0x64657261 ; undefined
    1608:	7079745f 	adr	xzr, f4493 <_start-0x10bb6d>
    160c:	682e7365 	.inst	0x682e7365 ; undefined
    1610:	00000200 	.inst	0x00000200 ; undefined
    1614:	6f766e69 	.inst	0x6f766e69 ; undefined
    1618:	69746163 	ldpsw	x3, x24, [x11, #-96]
    161c:	682e6e6f 	.inst	0x682e6e6f ; undefined
    1620:	00000200 	.inst	0x00000200 ; undefined
    1624:	6f766e69 	.inst	0x6f766e69 ; undefined
    1628:	69746163 	ldpsw	x3, x24, [x11, #-96]
    162c:	682e6e6f 	.inst	0x682e6e6f ; undefined
    1630:	00000300 	.inst	0x00000300 ; undefined
    1634:	65737361 	fnmls	z1.h, p4/m, z27.h, z19.h
    1638:	682e7472 	.inst	0x682e7472 ; undefined
    163c:	00000200 	.inst	0x00000200 ; undefined
    1640:	05020400 	orr	z0.d, z0.d, #0x1ffffffff
    1644:	0209006f 	.inst	0x0209006f ; undefined
    1648:	00203744 	.inst	0x00203744 ; NYI
    164c:	00000000 	.inst	0x00000000 ; undefined
    1650:	0102bd03 	.inst	0x0102bd03 ; undefined
    1654:	006a0505 	.inst	0x006a0505 ; undefined
    1658:	06010402 	.inst	0x06010402 ; undefined
    165c:	0083064a 	.inst	0x0083064a ; undefined
    1660:	06010402 	.inst	0x06010402 ; undefined
    1664:	0083063c 	.inst	0x0083063c ; undefined
    1668:	06010402 	.inst	0x06010402 ; undefined
    166c:	0083063c 	.inst	0x0083063c ; undefined
    1670:	06010402 	.inst	0x06010402 ; undefined
    1674:	0609053c 	.inst	0x0609053c ; undefined
    1678:	2f240585 	ushr	v5.2s, v12.2s, #28
    167c:	053c0905 	ext	z5.b, z5.b, z8.b, #226
    1680:	09052120 	.inst	0x09052120 ; undefined
    1684:	211e053c 	.inst	0x211e053c ; undefined
    1688:	052e0905 	ext	z5.b, z5.b, z8.b, #114
    168c:	0c051c1f 	.inst	0x0c051c1f ; undefined
    1690:	21010526 	.inst	0x21010526 ; undefined
    1694:	dc030304 	.inst	0xdc030304 ; undefined
    1698:	0c052e7d 	.inst	0x0c052e7d ; undefined
    169c:	3d010513 	str	b19, [x8, #65]
    16a0:	3d0c0523 	str	b3, [x9, #769]
    16a4:	02002405 	.inst	0x02002405 ; undefined
    16a8:	052e0104 	ext	z4.b, z4.b, z8.b, #112
    16ac:	05314b01 	.inst	0x05314b01 ; undefined
    16b0:	21054b05 	.inst	0x21054b05 ; undefined
    16b4:	01040200 	.inst	0x01040200 ; undefined
    16b8:	5901052e 	.inst	0x5901052e ; undefined
    16bc:	31030404 	adds	w4, w0, #0xc1
    16c0:	4b18053c 	sub	w28, w9, w24, lsl #1
    16c4:	05052321 	.inst	0x05052321 ; undefined
    16c8:	25010521 	cmpge	p1.b, p1/z, z9.b, #1
    16cc:	053c2303 	mov	z3.s, z24.s[3]
    16d0:	05219118 	.inst	0x05219118 ; undefined
    16d4:	2f2f2329 	.inst	0x2f2f2329 ; undefined
    16d8:	2f05052f 	mvni	v15.2s, #0xa9
    16dc:	05231805 	ext	z5.b, z5.b, z0.b, #30
    16e0:	0f052105 	.inst	0x0f052105 ; undefined
    16e4:	3d100527 	str	b7, [x9, #1025]
    16e8:	3d3d1105 	str	b5, [x8, #3908]
    16ec:	01053d3d 	.inst	0x01053d3d ; undefined
    16f0:	0305043d 	.inst	0x0305043d ; undefined
    16f4:	053c7f98 	.inst	0x053c7f98 ; undefined
    16f8:	05053d2b 	.inst	0x05053d2b ; undefined
    16fc:	01040200 	.inst	0x01040200 ; undefined
    1700:	4b010558 	sub	w24, w10, w1, lsl #1
    1704:	3c00e003 	stur	b3, [x0, #14]
    1708:	055a1605 	mov	z5.h, p10/z, #-80
    170c:	0402000f 	.inst	0x0402000f ; undefined
    1710:	16052e01 	b	fffffffff814cf14 <__sel4_ipc_buffer_obj+0xfffffffff7f45f14>
    1714:	000f0521 	.inst	0x000f0521 ; undefined
    1718:	2e010402 	.inst	0x2e010402 ; undefined
    171c:	05211605 	ext	z5.b, z5.b, z16.b, #13
    1720:	0402000f 	.inst	0x0402000f ; undefined
    1724:	16052e01 	b	fffffffff814cf28 <__sel4_ipc_buffer_obj+0xfffffffff7f45f28>
    1728:	000f0521 	.inst	0x000f0521 ; undefined
    172c:	2e010402 	.inst	0x2e010402 ; undefined
    1730:	bd220505 	str	s5, [x8, #8708]
    1734:	054b4b4b 	.inst	0x054b4b4b ; undefined
    1738:	01054c0c 	.inst	0x01054c0c ; undefined
    173c:	03060421 	.inst	0x03060421 ; undefined
    1740:	053c7f8c 	.inst	0x053c7f8c ; undefined
    1744:	05053d2e 	.inst	0x05053d2e ; undefined
    1748:	2f01052e 	mvni	v14.2s, #0x29
    174c:	053c2503 	.inst	0x053c2503 ; undefined
    1750:	0c054b28 	.inst	0x0c054b28 ; undefined
    1754:	3d01052e 	str	b14, [x9, #65]
    1758:	4b0c0531 	sub	w17, w9, w12, lsl #1
    175c:	03670105 	.inst	0x03670105 ; undefined
    1760:	05052e0d 	.inst	0x05052e0d ; undefined
    1764:	3d01054b 	str	b11, [x10, #65]
    1768:	3d0c053f 	str	b31, [x9, #769]
    176c:	042f0105 	add	z5.b, z8.b, z15.b
    1770:	7f8c0307 	.inst	0x7f8c0307 ; undefined
    1774:	4b05052e 	sub	w14, w9, w5, lsl #1
    1778:	0402003d 	.inst	0x0402003d ; undefined
    177c:	053c0601 	ext	z1.b, z1.b, z16.b, #225
    1780:	043d0601 	sub	z1.b, z16.b, z29.b
    1784:	031e0501 	.inst	0x031e0501 ; undefined
    1788:	1d053c1d 	.inst	0x1d053c1d ; undefined
    178c:	4a100513 	eor	w19, w8, w16, lsl #1
    1790:	053d0c05 	ext	z5.b, z5.b, z0.b, #235
    1794:	11053d01 	add	w1, w8, #0x14f
    1798:	301d0527 	adr	x7, 3b83d <_start-0x1c47c3>
    179c:	0e056767 	.inst	0x0e056767 ; undefined
    17a0:	20050569 	.inst	0x20050569 ; undefined
    17a4:	05210905 	ext	z5.b, z5.b, z8.b, #10
    17a8:	04020029 	.inst	0x04020029 ; undefined
    17ac:	17056503 	b	fffffffffc15abb8 <__sel4_ipc_buffer_obj+0xfffffffffbf53bb8>
    17b0:	01040200 	.inst	0x01040200 ; undefined
    17b4:	400c053c 	.inst	0x400c053c ; undefined
    17b8:	053c1505 	ext	z5.b, z5.b, z8.b, #229
    17bc:	1d052f0c 	.inst	0x1d052f0c ; undefined
    17c0:	210c053c 	.inst	0x210c053c ; undefined
    17c4:	053c1505 	ext	z5.b, z5.b, z8.b, #229
    17c8:	1d052f0c 	.inst	0x1d052f0c ; undefined
    17cc:	2f0c053c 	ushr	v28.8b, v9.8b, #4
    17d0:	053c1505 	ext	z5.b, z5.b, z8.b, #229
    17d4:	1d052f0c 	.inst	0x1d052f0c ; undefined
    17d8:	301c053c 	adr	x28, 3987d <_start-0x1c6783>
    17dc:	0f056767 	movi	v7.2s, #0xbb, lsl #24
    17e0:	4d05056a 	.inst	0x4d05056a ; undefined
    17e4:	4c01053f 	.inst	0x4c01053f ; undefined
    17e8:	3d05053f 	str	b31, [x9, #321]
    17ec:	053e0905 	ext	z5.b, z5.b, z8.b, #242
    17f0:	0c053f15 	.inst	0x0c053f15 ; undefined
    17f4:	0031054a 	.inst	0x0031054a ; NYI
    17f8:	2e010402 	.inst	0x2e010402 ; undefined
    17fc:	02002605 	.inst	0x02002605 ; undefined
    1800:	054a0104 	.inst	0x054a0104 ; undefined
    1804:	0402004d 	.inst	0x0402004d ; undefined
    1808:	42052e02 	.inst	0x42052e02 ; undefined
    180c:	02040200 	.inst	0x02040200 ; undefined
    1810:	2f0d054a 	ushr	v10.8b, v10.8b, #3
    1814:	05402305 	eor	z5.s, z5.s, #0xf01fffff
    1818:	0d058217 	.inst	0x0d058217 ; undefined
    181c:	0309053d 	.inst	0x0309053d ; undefined
    1820:	0d054a1b 	.inst	0x0d054a1b ; undefined
    1824:	05206803 	uzp1	z3.b, z0.b, z0.b
    1828:	21053d22 	.inst	0x21053d22 ; undefined
    182c:	4a390530 	eon	w16, w9, w25, lsl #1
    1830:	052f0d05 	ext	z5.b, z5.b, z8.b, #123
    1834:	2f3dca15 	.inst	0x2f3dca15 ; undefined
    1838:	222f3d22 	.inst	0x222f3d22 ; undefined
    183c:	0d052f3d 	.inst	0x0d052f3d ; undefined
    1840:	4e090524 	dup	v4.16b, v9.b[4]
    1844:	3e010522 	.inst	0x3e010522 ; undefined
    1848:	01000402 	.inst	0x01000402 ; undefined
    184c:	00046501 	.inst	0x00046501 ; undefined
    1850:	08000500 	stxrb	w0, w0, [x8]
    1854:	00009700 	.inst	0x00009700 ; undefined
    1858:	01010400 	.inst	0x01010400 ; undefined
    185c:	000d0efb 	.inst	0x000d0efb ; undefined
    1860:	01010101 	.inst	0x01010101 ; undefined
    1864:	01000000 	.inst	0x01000000 ; undefined
    1868:	01010000 	.inst	0x01010000 ; undefined
    186c:	00071f01 	.inst	0x00071f01 ; undefined
    1870:	3c000000 	stur	b0, [x0]
    1874:	3d000000 	str	b0, [x0]
    1878:	40000002 	.inst	0x40000002 ; undefined
    187c:	bf000000 	.inst	0xbf000000 ; undefined
    1880:	43000000 	.inst	0x43000000 ; undefined
    1884:	bd000001 	str	s1, [x0]
    1888:	02000001 	.inst	0x02000001 ; undefined
    188c:	0f021f01 	.inst	0x0f021f01 ; undefined
    1890:	00003513 	.inst	0x00003513 ; undefined
    1894:	00350100 	.inst	0x00350100 ; NYI
    1898:	45010000 	.inst	0x45010000 ; undefined
    189c:	02000002 	.inst	0x02000002 ; undefined
    18a0:	00000250 	.inst	0x00000250 ; undefined
    18a4:	00025003 	.inst	0x00025003 ; undefined
    18a8:	025b0400 	.inst	0x025b0400 ; undefined
    18ac:	67050000 	.inst	0x67050000 ; undefined
    18b0:	06000002 	.inst	0x06000002 ; undefined
    18b4:	00000270 	.inst	0x00000270 ; undefined
    18b8:	00027d06 	.inst	0x00027d06 ; undefined
    18bc:	028c0500 	.inst	0x028c0500 ; undefined
    18c0:	8c050000 	.inst	0x8c050000 ; undefined
    18c4:	04000002 	add	z2.b, p0/m, z2.b, z0.b
    18c8:	00000299 	.inst	0x00000299 ; undefined
    18cc:	0002a305 	.inst	0x0002a305 ; undefined
    18d0:	02ac0500 	.inst	0x02ac0500 ; undefined
    18d4:	b8050000 	stur	w0, [x0, #80]
    18d8:	05000002 	orr	z2.s, z2.s, #0x1
    18dc:	000002cb 	.inst	0x000002cb ; undefined
    18e0:	0002da05 	.inst	0x0002da05 ; undefined
    18e4:	02da0500 	.inst	0x02da0500 ; undefined
    18e8:	e7040000 	.inst	0xe7040000 ; undefined
    18ec:	05000002 	orr	z2.s, z2.s, #0x1
    18f0:	09000105 	.inst	0x09000105 ; undefined
    18f4:	203ee002 	.inst	0x203ee002 ; undefined
    18f8:	00000000 	.inst	0x00000000 ; undefined
    18fc:	01260300 	.inst	0x01260300 ; undefined
    1900:	05130505 	mov	z5.b, p3/z, #40
    1904:	05110601 	mov	z1.b, p1/z, #48
    1908:	05202105 	.inst	0x05202105 ; undefined
    190c:	05051f01 	.inst	0x05051f01 ; undefined
    1910:	3d210621 	str	b1, [x17, #2113]
    1914:	14050204 	b	142124 <_start-0xbdedc>
    1918:	05010d03 	orr	z3.h, z3.h, #0x80ff
    191c:	01090305 	.inst	0x01090305 ; undefined
    1920:	06080513 	.inst	0x06080513 ; undefined
    1924:	05010401 	orr	z1.h, z1.h, #0x1
    1928:	6e030601 	mov	v1.b[1], v16.b[0]
    192c:	1305054a 	sbfiz	w10, w10, #27, #2
    1930:	11060105 	add	w5, w8, #0x180
    1934:	20210505 	.inst	0x20210505 ; undefined
    1938:	051f0105 	mov	z5.b, p15/z, #8
    193c:	21062105 	.inst	0x21062105 ; undefined
    1940:	0502043d 	orr	z29.d, z29.d, #0x3ffffffff
    1944:	05051714 	.inst	0x05051714 ; undefined
    1948:	13010903 	sbfx	w3, w8, #1, #2
    194c:	01060805 	.inst	0x01060805 ; undefined
    1950:	01000302 	.inst	0x01000302 ; undefined
    1954:	00010501 	.inst	0x00010501 ; undefined
    1958:	3f400209 	.inst	0x3f400209 ; undefined
    195c:	00000020 	.inst	0x00000020 ; undefined
    1960:	ea030000 	ands	x0, x0, x3
    1964:	05050100 	.inst	0x05050100 ; undefined
    1968:	030d0513 	.inst	0x030d0513 ; undefined
    196c:	0505014a 	.inst	0x0505014a ; undefined
    1970:	06010514 	.inst	0x06010514 ; undefined
    1974:	05013303 	orr	z3.s, z3.s, #0xfc07ffff
    1978:	204d0325 	.inst	0x204d0325 ; undefined
    197c:	33030105 	bfi	w5, w8, #29, #1
    1980:	0325052e 	.inst	0x0325052e ; undefined
    1984:	01052e4d 	.inst	0x01052e4d ; undefined
    1988:	052e3303 	tbl	z3.b, {z24.b}, z14.b
    198c:	204e031a 	.inst	0x204e031a ; undefined
    1990:	06050520 	.inst	0x06050520 ; undefined
    1994:	010a0501 	.inst	0x010a0501 ; undefined
    1998:	06011a05 	.inst	0x06011a05 ; undefined
    199c:	0609052e 	.inst	0x0609052e ; undefined
    19a0:	06240521 	.inst	0x06240521 ; undefined
    19a4:	2109051f 	.inst	0x2109051f ; undefined
    19a8:	1f062405 	fmadd	s5, s0, s6, s9
    19ac:	06011a05 	.inst	0x06011a05 ; undefined
    19b0:	0605052e 	.inst	0x0605052e ; undefined
    19b4:	05013403 	orr	z3.h, z3.h, #0x400
    19b8:	051a0609 	mov	z9.b, p10/z, #48
    19bc:	2e780305 	uaddl	v5.4s, v24.4h, v24.4h
    19c0:	08052806 	stxrb	w5, w6, [x0]
    19c4:	09050106 	.inst	0x09050106 ; undefined
    19c8:	1e052f06 	.inst	0x1e052f06 ; undefined
    19cc:	1d050106 	.inst	0x1d050106 ; undefined
    19d0:	1e1e0522 	.inst	0x1e1e0522 ; undefined
    19d4:	21060905 	.inst	0x21060905 ; undefined
    19d8:	13061d05 	sbfx	w5, w8, #6, #2
    19dc:	41031105 	.inst	0x41031105 ; undefined
    19e0:	05052e3c 	.inst	0x05052e3c ; undefined
    19e4:	05141a06 	mov	z6.b, p4/z, #-48
    19e8:	14131309 	b	4c660c <__sel4_ipc_buffer_obj+0x2bf60c>
    19ec:	01060c05 	.inst	0x01060c05 ; undefined
    19f0:	22061005 	.inst	0x22061005 ; undefined
    19f4:	01061305 	.inst	0x01061305 ; undefined
    19f8:	32060d05 	orr	w5, w8, #0x3c000000
    19fc:	28050304 	stnp	w4, w0, [x24, #40]
    1a00:	17050501 	b	fffffffffc142e04 <__sel4_ipc_buffer_obj+0xfffffffffbf3be04>
    1a04:	13131313 	sbfiz	w19, w24, #13, #5
    1a08:	04041413 	.inst	0x04041413 ; undefined
    1a0c:	1b031405 	madd	w5, w0, w3, w5
    1a10:	15050501 	b	4142e14 <__sel4_ipc_buffer_obj+0x3f3be14>
    1a14:	01061805 	.inst	0x01061805 ; undefined
    1a18:	21060505 	.inst	0x21060505 ; undefined
    1a1c:	13131315 	sbfiz	w21, w24, #13, #5
    1a20:	18052313 	ldr	w19, be80 <_start-0x1f4180>
    1a24:	05050106 	.inst	0x05050106 ; undefined
    1a28:	04272106 	.inst	0x04272106 ; undefined
    1a2c:	060c0505 	.inst	0x060c0505 ; undefined
    1a30:	017fa103 	.inst	0x017fa103 ; undefined
    1a34:	10050404 	adr	x4, bab4 <_start-0x1f454c>
    1a38:	2000df03 	.inst	0x2000df03 ; undefined
    1a3c:	21060505 	.inst	0x21060505 ; undefined
    1a40:	13131313 	sbfiz	w19, w24, #13, #5
    1a44:	03040106 	.inst	0x03040106 ; undefined
    1a48:	014c0306 	.inst	0x014c0306 ; undefined
    1a4c:	1a050504 	.inst	0x1a050504 ; undefined
    1a50:	05015803 	orr	z3.s, z3.s, #0x200000
    1a54:	25051405 	cmpge	p5.b, p5/z, z0.b, #5
    1a58:	05017403 	orr	z3.h, z3.h, #0x4
    1a5c:	21051405 	.inst	0x21051405 ; undefined
    1a60:	010a0306 	.inst	0x010a0306 ; undefined
    1a64:	05050304 	.inst	0x05050304 ; undefined
    1a68:	20280306 	.inst	0x20280306 ; undefined
    1a6c:	1a050504 	.inst	0x1a050504 ; undefined
    1a70:	05015603 	orr	z3.b, z3.b, #0x40
    1a74:	21051405 	.inst	0x21051405 ; undefined
    1a78:	03040106 	.inst	0x03040106 ; undefined
    1a7c:	03060505 	.inst	0x03060505 ; undefined
    1a80:	0905202c 	.inst	0x0905202c ; undefined
    1a84:	14050513 	b	142ed0 <_start-0xbd130>
    1a88:	01040106 	.inst	0x01040106 ; undefined
    1a8c:	03060905 	.inst	0x03060905 ; undefined
    1a90:	1413016c 	b	4c2040 <__sel4_ipc_buffer_obj+0x2bb040>
    1a94:	060c0514 	.inst	0x060c0514 ; undefined
    1a98:	06100501 	.inst	0x06100501 ; undefined
    1a9c:	061a0525 	.inst	0x061a0525 ; undefined
    1aa0:	1c130516 	ldr	s22, 27b40 <_start-0x1d84c0>
    1aa4:	21060d05 	.inst	0x21060d05 ; undefined
    1aa8:	06190513 	.inst	0x06190513 ; undefined
    1aac:	052e2001 	mov	z1.h, z0.h[3]
    1ab0:	67030605 	.inst	0x67030605 ; undefined
    1ab4:	05141001 	mov	z1.b, p4/z, #-128
    1ab8:	14131309 	b	4c66dc <__sel4_ipc_buffer_obj+0x2bf6dc>
    1abc:	04130d05 	umulh	z5.b, p3/m, z5.b, z8.b
    1ac0:	03280503 	.inst	0x03280503 ; undefined
    1ac4:	0501019e 	orr	z30.s, z30.s, #0x1fff
    1ac8:	13131805 	sbfiz	w5, w0, #13, #7
    1acc:	15131313 	b	44c6718 <__sel4_ipc_buffer_obj+0x42bf718>
    1ad0:	1f050504 	fmadd	s4, s8, s5, s1
    1ad4:	017eba03 	.inst	0x017eba03 ; undefined
    1ad8:	05140505 	mov	z5.b, p4/z, #40
    1adc:	01790325 	.inst	0x01790325 ; undefined
    1ae0:	05140505 	mov	z5.b, p4/z, #40
    1ae4:	2001060c 	.inst	0x2001060c ; undefined
    1ae8:	05050304 	.inst	0x05050304 ; undefined
    1aec:	01ca0306 	.inst	0x01ca0306 ; undefined
    1af0:	05050401 	.inst	0x05050401 ; undefined
    1af4:	7eb9031f 	.inst	0x7eb9031f ; undefined
    1af8:	14050501 	b	142efc <_start-0xbd104>
    1afc:	03040106 	.inst	0x03040106 ; undefined
    1b00:	01c60306 	.inst	0x01c60306 ; undefined
    1b04:	05050401 	.inst	0x05050401 ; undefined
    1b08:	7eb8031f 	.inst	0x7eb8031f ; undefined
    1b0c:	14050501 	b	142f10 <_start-0xbd0f0>
    1b10:	03040106 	.inst	0x03040106 ; undefined
    1b14:	01c70306 	.inst	0x01c70306 ; undefined
    1b18:	05050401 	.inst	0x05050401 ; undefined
    1b1c:	7eb7031f 	.inst	0x7eb7031f ; undefined
    1b20:	14050501 	b	142f24 <_start-0xbd0dc>
    1b24:	03040106 	.inst	0x03040106 ; undefined
    1b28:	01c90306 	.inst	0x01c90306 ; undefined
    1b2c:	05040401 	.inst	0x05040401 ; undefined
    1b30:	7f990314 	.inst	0x7f990314 ; undefined
    1b34:	16050501 	b	fffffffff8142f38 <__sel4_ipc_buffer_obj+0xfffffffff7f3bf38>
    1b38:	06180513 	.inst	0x06180513 ; undefined
    1b3c:	05052111 	.inst	0x05052111 ; undefined
    1b40:	13132306 	sbfiz	w6, w24, #13, #9
    1b44:	13151313 	sbfiz	w19, w24, #11, #5
    1b48:	18050e06 	ldr	w6, bd08 <_start-0x1f42f8>
    1b4c:	051c261d 	.inst	0x051c261d ; undefined
    1b50:	27062505 	.inst	0x27062505 ; undefined
    1b54:	01042006 	.inst	0x01042006 ; undefined
    1b58:	03060d05 	.inst	0x03060d05 ; undefined
    1b5c:	05017fb6 	.inst	0x05017fb6 ; undefined
    1b60:	14051311 	b	1467a4 <_start-0xb985c>
    1b64:	11050106 	add	w6, w8, #0x140
    1b68:	17053106 	b	fffffffffc14df80 <__sel4_ipc_buffer_obj+0xfffffffffbf46f80>
    1b6c:	11050106 	add	w6, w8, #0x140
    1b70:	14052106 	b	149f88 <_start-0xb6078>
    1b74:	1c050106 	ldr	s6, bb94 <_start-0x1f446c>
    1b78:	0d052106 	.inst	0x0d052106 ; undefined
    1b7c:	05207a03 	.inst	0x05207a03 ; undefined
    1b80:	14051311 	b	1467c4 <_start-0xb983c>
    1b84:	15050106 	b	4141f9c <__sel4_ipc_buffer_obj+0x3f3af9c>
    1b88:	3c062106 	stur	b6, [x8, #98]
    1b8c:	03060d05 	.inst	0x03060d05 ; undefined
    1b90:	28050175 	stnp	w21, w0, [x11, #40]
    1b94:	05200106 	ext	z6.b, z6.b, z8.b, #0
    1b98:	052f060d 	ext	z13.b, z13.b, z16.b, #121
    1b9c:	2e010610 	.inst	0x2e010610 ; undefined
    1ba0:	060d0520 	.inst	0x060d0520 ; undefined
    1ba4:	04017303 	mls	z3.b, p4/m, z24.b, z1.b
    1ba8:	03280503 	.inst	0x03280503 ; undefined
    1bac:	050101f8 	orr	z24.s, z24.s, #0xffff
    1bb0:	13131505 	sbfiz	w5, w8, #13, #6
    1bb4:	15131313 	b	44c6800 <__sel4_ipc_buffer_obj+0x42bf800>
    1bb8:	1f050504 	fmadd	s4, s8, s5, s1
    1bbc:	017de103 	.inst	0x017de103 ; undefined
    1bc0:	05140505 	mov	z5.b, p4/z, #40
    1bc4:	01790325 	.inst	0x01790325 ; undefined
    1bc8:	05140505 	mov	z5.b, p4/z, #40
    1bcc:	2001060c 	.inst	0x2001060c ; undefined
    1bd0:	05050304 	.inst	0x05050304 ; undefined
    1bd4:	02a30306 	.inst	0x02a30306 ; undefined
    1bd8:	05050401 	.inst	0x05050401 ; undefined
    1bdc:	7de0031f 	.inst	0x7de0031f ; undefined
    1be0:	14050501 	b	142fe4 <_start-0xbd01c>
    1be4:	03040106 	.inst	0x03040106 ; undefined
    1be8:	029f0306 	.inst	0x029f0306 ; undefined
    1bec:	05050401 	.inst	0x05050401 ; undefined
    1bf0:	7ddf031f 	.inst	0x7ddf031f ; undefined
    1bf4:	14050501 	b	142ff8 <_start-0xbd008>
    1bf8:	03040106 	.inst	0x03040106 ; undefined
    1bfc:	02a00306 	.inst	0x02a00306 ; undefined
    1c00:	05050401 	.inst	0x05050401 ; undefined
    1c04:	7dde031f 	.inst	0x7dde031f ; undefined
    1c08:	14050501 	b	14300c <_start-0xbcff4>
    1c0c:	03040106 	.inst	0x03040106 ; undefined
    1c10:	02a20306 	.inst	0x02a20306 ; undefined
    1c14:	05040401 	.inst	0x05040401 ; undefined
    1c18:	7ee00314 	.inst	0x7ee00314 ; undefined
    1c1c:	17050501 	b	fffffffffc143020 <__sel4_ipc_buffer_obj+0xfffffffffbf3c020>
    1c20:	06180513 	.inst	0x06180513 ; undefined
    1c24:	200a0311 	.inst	0x200a0311 ; undefined
    1c28:	23060505 	.inst	0x23060505 ; undefined
    1c2c:	06180513 	.inst	0x06180513 ; undefined
    1c30:	03281c0d 	.inst	0x03281c0d ; undefined
    1c34:	0505207a 	.inst	0x0505207a ; undefined
    1c38:	04280627 	sub	z7.b, z17.b, z8.b
    1c3c:	060c0505 	.inst	0x060c0505 ; undefined
    1c40:	017ede03 	.inst	0x017ede03 ; undefined
    1c44:	10050404 	adr	x4, bcc4 <_start-0x1f433c>
    1c48:	2001a203 	.inst	0x2001a203 ; undefined
    1c4c:	21060505 	.inst	0x21060505 ; undefined
    1c50:	13131313 	sbfiz	w19, w24, #13, #5
    1c54:	03040106 	.inst	0x03040106 ; undefined
    1c58:	01840306 	.inst	0x01840306 ; undefined
    1c5c:	05050401 	.inst	0x05050401 ; undefined
    1c60:	7ddd031a 	.inst	0x7ddd031a ; undefined
    1c64:	14050501 	b	143068 <_start-0xbcf98>
    1c68:	74032505 	.inst	0x74032505 ; undefined
    1c6c:	14050501 	b	143070 <_start-0xbcf90>
    1c70:	22050104 	.inst	0x22050104 ; undefined
    1c74:	01200306 	.inst	0x01200306 ; undefined
    1c78:	21050504 	.inst	0x21050504 ; undefined
    1c7c:	04206a03 	.inst	0x04206a03 ; undefined
    1c80:	06050503 	.inst	0x06050503 ; undefined
    1c84:	2002a303 	.inst	0x2002a303 ; undefined
    1c88:	1a050504 	.inst	0x1a050504 ; undefined
    1c8c:	017ddb03 	.inst	0x017ddb03 ; undefined
    1c90:	05140505 	mov	z5.b, p4/z, #40
    1c94:	04010621 	sub	z1.b, p1/m, z1.b, z17.b
    1c98:	06050503 	.inst	0x06050503 ; undefined
    1c9c:	2002a703 	.inst	0x2002a703 ; undefined
    1ca0:	05130905 	mov	z5.b, p3/z, #72
    1ca4:	01061505 	.inst	0x01061505 ; undefined
    1ca8:	0d050104 	.inst	0x0d050104 ; undefined
    1cac:	7deb0306 	.inst	0x7deb0306 ; undefined
    1cb0:	00010201 	.inst	0x00010201 ; undefined
    1cb4:	00420101 	.inst	0x00420101 ; undefined
    1cb8:	00030000 	.inst	0x00030000 ; undefined
    1cbc:	00000029 	.inst	0x00000029 ; undefined
    1cc0:	0efb0104 	.inst	0x0efb0104 ; undefined
    1cc4:	0101000d 	.inst	0x0101000d ; undefined
    1cc8:	00000101 	.inst	0x00000101 ; undefined
    1ccc:	00000100 	.inst	0x00000100 ; undefined
    1cd0:	63727301 	.inst	0x63727301 ; undefined
    1cd4:	7261612f 	.inst	0x7261612f ; undefined
    1cd8:	34366863 	cbz	w3, 6e9e4 <_start-0x19161c>
    1cdc:	72630000 	.inst	0x72630000 ; undefined
    1ce0:	732e3074 	.inst	0x732e3074 ; undefined
    1ce4:	00000100 	.inst	0x00000100 ; undefined
    1ce8:	02090000 	.inst	0x02090000 ; undefined
    1cec:	00200000 	.inst	0x00200000 ; NYI
    1cf0:	00000000 	.inst	0x00000000 ; undefined
    1cf4:	02010c03 	.inst	0x02010c03 ; undefined
    1cf8:	01010001 	.inst	0x01010001 ; undefined
    1cfc:	000004ad 	.inst	0x000004ad ; undefined
    1d00:	00080005 	.inst	0x00080005 ; undefined
    1d04:	00000053 	.inst	0x00000053 ; undefined
    1d08:	fb010104 	.inst	0xfb010104 ; undefined
    1d0c:	01000d0e 	.inst	0x01000d0e ; undefined
    1d10:	00010101 	.inst	0x00010101 ; undefined
    1d14:	00010000 	.inst	0x00010000 ; undefined
    1d18:	01010100 	.inst	0x01010100 ; undefined
    1d1c:	0000051f 	.inst	0x0000051f ; undefined
    1d20:	003c0000 	.inst	0x003c0000 ; NYI
    1d24:	00400000 	.inst	0x00400000 ; undefined
    1d28:	00bf0000 	.inst	0x00bf0000 ; undefined
    1d2c:	01430000 	.inst	0x01430000 ; undefined
    1d30:	01020000 	.inst	0x01020000 ; undefined
    1d34:	070f021f 	.inst	0x070f021f ; undefined
    1d38:	000002f4 	.inst	0x000002f4 ; undefined
    1d3c:	0002f401 	.inst	0x0002f401 ; undefined
    1d40:	02500100 	.inst	0x02500100 ; undefined
    1d44:	50020000 	adr	x0, 5d46 <_start-0x1fa2ba>
    1d48:	03000002 	.inst	0x03000002 ; undefined
    1d4c:	0000027d 	.inst	0x0000027d ; undefined
    1d50:	00028c04 	.inst	0x00028c04 ; undefined
    1d54:	02990400 	.inst	0x02990400 ; undefined
    1d58:	05040000 	.inst	0x05040000 ; undefined
    1d5c:	02090001 	.inst	0x02090001 ; undefined
    1d60:	002040a0 	.inst	0x002040a0 ; NYI
    1d64:	00000000 	.inst	0x00000000 ; undefined
    1d68:	05010c03 	orr	z3.h, z3.h, #0x8000
    1d6c:	02041405 	.inst	0x02041405 ; undefined
    1d70:	b0031a05 	adrp	x5, 6342000 <__sel4_ipc_buffer_obj+0x613b000>
    1d74:	05050104 	.inst	0x05050104 ; undefined
    1d78:	13131314 	sbfiz	w20, w24, #13, #5
    1d7c:	04141313 	.inst	0x04141313 ; undefined
    1d80:	03140503 	.inst	0x03140503 ; undefined
    1d84:	05017cca 	orr	z10.h, z10.h, #0xfe
    1d88:	18051605 	ldr	w5, c048 <_start-0x1f3fb8>
    1d8c:	02041306 	.inst	0x02041306 ; undefined
    1d90:	b1030505 	adds	x5, x8, #0xc1
    1d94:	03042003 	.inst	0x03042003 ; undefined
    1d98:	7ccf0306 	.inst	0x7ccf0306 ; undefined
    1d9c:	18051520 	ldr	w0, c040 <_start-0x1f3fc0>
    1da0:	05050106 	.inst	0x05050106 ; undefined
    1da4:	18052106 	ldr	w6, c1c4 <_start-0x1f3e3c>
    1da8:	05050106 	.inst	0x05050106 ; undefined
    1dac:	18052106 	ldr	w6, c1cc <_start-0x1f3e34>
    1db0:	05050106 	.inst	0x05050106 ; undefined
    1db4:	18052106 	ldr	w6, c1d4 <_start-0x1f3e2c>
    1db8:	05050106 	.inst	0x05050106 ; undefined
    1dbc:	05232106 	mov	z6.b, z8.b[1]
    1dc0:	05010618 	orr	z24.b, z24.b, #0x1
    1dc4:	27210605 	.inst	0x27210605 ; undefined
    1dc8:	13131313 	sbfiz	w19, w24, #13, #5
    1dcc:	04010613 	sub	z19.b, p1/m, z19.b, z16.b
    1dd0:	03010501 	.inst	0x03010501 ; undefined
    1dd4:	06017ee3 	.inst	0x06017ee3 ; undefined
    1dd8:	13050542 	sbfiz	w2, w10, #27, #2
    1ddc:	11060105 	add	w5, w8, #0x180
    1de0:	21060c05 	.inst	0x21060c05 ; undefined
    1de4:	09052006 	.inst	0x09052006 ; undefined
    1de8:	01052f06 	.inst	0x01052f06 ; undefined
    1dec:	05017303 	orr	z3.s, z3.s, #0xfffc07ff
    1df0:	02041505 	.inst	0x02041505 ; undefined
    1df4:	b0031a05 	adrp	x5, 6342000 <__sel4_ipc_buffer_obj+0x613b000>
    1df8:	05050104 	.inst	0x05050104 ; undefined
    1dfc:	13131314 	sbfiz	w20, w24, #13, #5
    1e00:	04141313 	.inst	0x04141313 ; undefined
    1e04:	03140503 	.inst	0x03140503 ; undefined
    1e08:	05017cca 	orr	z10.h, z10.h, #0xfe
    1e0c:	05131605 	mov	z5.b, p3/z, #-80
    1e10:	05010618 	orr	z24.b, z24.b, #0x1
    1e14:	05230605 	ext	z5.b, z5.b, z16.b, #25
    1e18:	05010618 	orr	z24.b, z24.b, #0x1
    1e1c:	05210605 	ext	z5.b, z5.b, z16.b, #9
    1e20:	05010618 	orr	z24.b, z24.b, #0x1
    1e24:	05210605 	ext	z5.b, z5.b, z16.b, #9
    1e28:	05010618 	orr	z24.b, z24.b, #0x1
    1e2c:	05210605 	ext	z5.b, z5.b, z16.b, #9
    1e30:	05010618 	orr	z24.b, z24.b, #0x1
    1e34:	23210605 	.inst	0x23210605 ; undefined
    1e38:	01061805 	.inst	0x01061805 ; undefined
    1e3c:	21060505 	.inst	0x21060505 ; undefined
    1e40:	13131327 	sbfiz	w7, w25, #13, #5
    1e44:	01061313 	.inst	0x01061313 ; undefined
    1e48:	09050104 	.inst	0x09050104 ; undefined
    1e4c:	7eec0306 	.inst	0x7eec0306 ; undefined
    1e50:	100c0501 	adr	x1, 19ef0 <_start-0x1e6110>
    1e54:	01052006 	.inst	0x01052006 ; undefined
    1e58:	05330624 	ext	z4.b, z4.b, z17.b, #153
    1e5c:	01051305 	.inst	0x01051305 ; undefined
    1e60:	05017403 	orr	z3.h, z3.h, #0x4
    1e64:	0c051405 	.inst	0x0c051405 ; undefined
    1e68:	06010501 	.inst	0x06010501 ; undefined
    1e6c:	05010903 	orr	z3.s, z3.s, #0x800000ff
    1e70:	5877030c 	ldr	x12, efed0 <_start-0x110130>
    1e74:	21060905 	.inst	0x21060905 ; undefined
    1e78:	73030105 	.inst	0x73030105 ; undefined
    1e7c:	15050501 	b	4143280 <__sel4_ipc_buffer_obj+0x3f3c280>
    1e80:	1a050204 	adc	w4, w16, w5
    1e84:	0104b003 	.inst	0x0104b003 ; undefined
    1e88:	13140505 	sbfiz	w5, w8, #12, #2
    1e8c:	13131313 	sbfiz	w19, w24, #13, #5
    1e90:	05030414 	orr	z20.d, z20.d, #0xffffffff00000001
    1e94:	7cca0314 	.inst	0x7cca0314 ; undefined
    1e98:	16050501 	b	fffffffff814329c <__sel4_ipc_buffer_obj+0xfffffffff7f3c29c>
    1e9c:	06180513 	.inst	0x06180513 ; undefined
    1ea0:	06050501 	.inst	0x06050501 ; undefined
    1ea4:	06180523 	.inst	0x06180523 ; undefined
    1ea8:	06050501 	.inst	0x06050501 ; undefined
    1eac:	06180521 	.inst	0x06180521 ; undefined
    1eb0:	06050501 	.inst	0x06050501 ; undefined
    1eb4:	06180521 	.inst	0x06180521 ; undefined
    1eb8:	06050501 	.inst	0x06050501 ; undefined
    1ebc:	06180521 	.inst	0x06180521 ; undefined
    1ec0:	06050501 	.inst	0x06050501 ; undefined
    1ec4:	18052321 	ldr	w1, c328 <_start-0x1f3cd8>
    1ec8:	05050106 	.inst	0x05050106 ; undefined
    1ecc:	13272106 	.inst	0x13272106 ; undefined
    1ed0:	13131313 	sbfiz	w19, w24, #13, #5
    1ed4:	01040106 	.inst	0x01040106 ; undefined
    1ed8:	03060905 	.inst	0x03060905 ; undefined
    1edc:	05017eec 	.inst	0x05017eec ; undefined
    1ee0:	2006100c 	.inst	0x2006100c ; undefined
    1ee4:	05010620 	orr	z0.b, z0.b, #0x3
    1ee8:	01052f09 	.inst	0x01052f09 ; undefined
    1eec:	05017303 	orr	z3.s, z3.s, #0xfffc07ff
    1ef0:	02041505 	.inst	0x02041505 ; undefined
    1ef4:	b0031a05 	adrp	x5, 6342000 <__sel4_ipc_buffer_obj+0x613b000>
    1ef8:	05050104 	.inst	0x05050104 ; undefined
    1efc:	13131314 	sbfiz	w20, w24, #13, #5
    1f00:	04141313 	.inst	0x04141313 ; undefined
    1f04:	03140503 	.inst	0x03140503 ; undefined
    1f08:	05017cca 	orr	z10.h, z10.h, #0xfe
    1f0c:	05131605 	mov	z5.b, p3/z, #-80
    1f10:	05010618 	orr	z24.b, z24.b, #0x1
    1f14:	05230605 	ext	z5.b, z5.b, z16.b, #25
    1f18:	05010618 	orr	z24.b, z24.b, #0x1
    1f1c:	05210605 	ext	z5.b, z5.b, z16.b, #9
    1f20:	05010618 	orr	z24.b, z24.b, #0x1
    1f24:	05210605 	ext	z5.b, z5.b, z16.b, #9
    1f28:	05010618 	orr	z24.b, z24.b, #0x1
    1f2c:	05210605 	ext	z5.b, z5.b, z16.b, #9
    1f30:	05010618 	orr	z24.b, z24.b, #0x1
    1f34:	23210605 	.inst	0x23210605 ; undefined
    1f38:	01061805 	.inst	0x01061805 ; undefined
    1f3c:	21060505 	.inst	0x21060505 ; undefined
    1f40:	13131327 	sbfiz	w7, w25, #13, #5
    1f44:	01061313 	.inst	0x01061313 ; undefined
    1f48:	09050104 	.inst	0x09050104 ; undefined
    1f4c:	7eec0306 	.inst	0x7eec0306 ; undefined
    1f50:	100c0501 	adr	x1, 19ff0 <_start-0x1e6010>
    1f54:	06202006 	.inst	0x06202006 ; undefined
    1f58:	13090501 	sbfiz	w1, w8, #23, #2
    1f5c:	73030105 	.inst	0x73030105 ; undefined
    1f60:	15050501 	b	4143364 <__sel4_ipc_buffer_obj+0x3f3c364>
    1f64:	1a050204 	adc	w4, w16, w5
    1f68:	0104b003 	.inst	0x0104b003 ; undefined
    1f6c:	13140505 	sbfiz	w5, w8, #12, #2
    1f70:	13131313 	sbfiz	w19, w24, #13, #5
    1f74:	05030414 	orr	z20.d, z20.d, #0xffffffff00000001
    1f78:	7cca0314 	.inst	0x7cca0314 ; undefined
    1f7c:	16050501 	b	fffffffff8143380 <__sel4_ipc_buffer_obj+0xfffffffff7f3c380>
    1f80:	01061805 	.inst	0x01061805 ; undefined
    1f84:	21060505 	.inst	0x21060505 ; undefined
    1f88:	01061805 	.inst	0x01061805 ; undefined
    1f8c:	23060505 	.inst	0x23060505 ; undefined
    1f90:	01061805 	.inst	0x01061805 ; undefined
    1f94:	21060505 	.inst	0x21060505 ; undefined
    1f98:	01061805 	.inst	0x01061805 ; undefined
    1f9c:	21060505 	.inst	0x21060505 ; undefined
    1fa0:	01061805 	.inst	0x01061805 ; undefined
    1fa4:	21060505 	.inst	0x21060505 ; undefined
    1fa8:	01061805 	.inst	0x01061805 ; undefined
    1fac:	21060505 	.inst	0x21060505 ; undefined
    1fb0:	06180523 	.inst	0x06180523 ; undefined
    1fb4:	06050501 	.inst	0x06050501 ; undefined
    1fb8:	13132721 	sbfiz	w1, w25, #13, #10
    1fbc:	06131313 	.inst	0x06131313 ; undefined
    1fc0:	05010401 	orr	z1.h, z1.h, #0x1
    1fc4:	ec030609 	.inst	0xec030609 ; undefined
    1fc8:	0c05017e 	.inst	0x0c05017e ; undefined
    1fcc:	06010610 	.inst	0x06010610 ; undefined
    1fd0:	3d090501 	str	b1, [x8, #577]
    1fd4:	73030105 	.inst	0x73030105 ; undefined
    1fd8:	15050501 	b	41433dc <__sel4_ipc_buffer_obj+0x3f3c3dc>
    1fdc:	1a050204 	adc	w4, w16, w5
    1fe0:	0104b003 	.inst	0x0104b003 ; undefined
    1fe4:	13140505 	sbfiz	w5, w8, #12, #2
    1fe8:	13131313 	sbfiz	w19, w24, #13, #5
    1fec:	05030414 	orr	z20.d, z20.d, #0xffffffff00000001
    1ff0:	7cca0314 	.inst	0x7cca0314 ; undefined
    1ff4:	16050501 	b	fffffffff81433f8 <__sel4_ipc_buffer_obj+0xfffffffff7f3c3f8>
    1ff8:	06180513 	.inst	0x06180513 ; undefined
    1ffc:	06050501 	.inst	0x06050501 ; undefined
    2000:	06180523 	.inst	0x06180523 ; undefined
    2004:	06050501 	.inst	0x06050501 ; undefined
    2008:	06180521 	.inst	0x06180521 ; undefined
    200c:	06050501 	.inst	0x06050501 ; undefined
    2010:	06180521 	.inst	0x06180521 ; undefined
    2014:	06050501 	.inst	0x06050501 ; undefined
    2018:	06180521 	.inst	0x06180521 ; undefined
    201c:	06050501 	.inst	0x06050501 ; undefined
    2020:	18052321 	ldr	w1, c484 <_start-0x1f3b7c>
    2024:	05050106 	.inst	0x05050106 ; undefined
    2028:	13272106 	.inst	0x13272106 ; undefined
    202c:	13131313 	sbfiz	w19, w24, #13, #5
    2030:	01040106 	.inst	0x01040106 ; undefined
    2034:	03060905 	.inst	0x03060905 ; undefined
    2038:	05017eec 	.inst	0x05017eec ; undefined
    203c:	2006100c 	.inst	0x2006100c ; undefined
    2040:	05010620 	orr	z0.b, z0.b, #0x3
    2044:	01051309 	.inst	0x01051309 ; undefined
    2048:	05017303 	orr	z3.s, z3.s, #0xfffc07ff
    204c:	02041505 	.inst	0x02041505 ; undefined
    2050:	b0031a05 	adrp	x5, 6343000 <__sel4_ipc_buffer_obj+0x613c000>
    2054:	05050104 	.inst	0x05050104 ; undefined
    2058:	13131314 	sbfiz	w20, w24, #13, #5
    205c:	04141313 	.inst	0x04141313 ; undefined
    2060:	03140503 	.inst	0x03140503 ; undefined
    2064:	05017cca 	orr	z10.h, z10.h, #0xfe
    2068:	18051605 	ldr	w5, c328 <_start-0x1f3cd8>
    206c:	05050106 	.inst	0x05050106 ; undefined
    2070:	18052106 	ldr	w6, c490 <_start-0x1f3b70>
    2074:	05050106 	.inst	0x05050106 ; undefined
    2078:	18052306 	ldr	w6, c4d8 <_start-0x1f3b28>
    207c:	05050106 	.inst	0x05050106 ; undefined
    2080:	18052106 	ldr	w6, c4a0 <_start-0x1f3b60>
    2084:	05050106 	.inst	0x05050106 ; undefined
    2088:	18052106 	ldr	w6, c4a8 <_start-0x1f3b58>
    208c:	05050106 	.inst	0x05050106 ; undefined
    2090:	18052106 	ldr	w6, c4b0 <_start-0x1f3b50>
    2094:	05050106 	.inst	0x05050106 ; undefined
    2098:	05232106 	mov	z6.b, z8.b[1]
    209c:	05010618 	orr	z24.b, z24.b, #0x1
    20a0:	27210605 	.inst	0x27210605 ; undefined
    20a4:	13131313 	sbfiz	w19, w24, #13, #5
    20a8:	04010613 	sub	z19.b, p1/m, z19.b, z16.b
    20ac:	06090501 	.inst	0x06090501 ; undefined
    20b0:	017eec03 	.inst	0x017eec03 ; undefined
    20b4:	06100c05 	.inst	0x06100c05 ; undefined
    20b8:	05010601 	orr	z1.b, z1.b, #0x1
    20bc:	01053d09 	.inst	0x01053d09 ; undefined
    20c0:	05017303 	orr	z3.s, z3.s, #0xfffc07ff
    20c4:	02041505 	.inst	0x02041505 ; undefined
    20c8:	b0031a05 	adrp	x5, 6343000 <__sel4_ipc_buffer_obj+0x613c000>
    20cc:	05050104 	.inst	0x05050104 ; undefined
    20d0:	13131314 	sbfiz	w20, w24, #13, #5
    20d4:	04141313 	.inst	0x04141313 ; undefined
    20d8:	03140503 	.inst	0x03140503 ; undefined
    20dc:	05017cca 	orr	z10.h, z10.h, #0xfe
    20e0:	05131605 	mov	z5.b, p3/z, #-80
    20e4:	05010618 	orr	z24.b, z24.b, #0x1
    20e8:	05230605 	ext	z5.b, z5.b, z16.b, #25
    20ec:	05010618 	orr	z24.b, z24.b, #0x1
    20f0:	05210605 	ext	z5.b, z5.b, z16.b, #9
    20f4:	05010618 	orr	z24.b, z24.b, #0x1
    20f8:	05210605 	ext	z5.b, z5.b, z16.b, #9
    20fc:	05010618 	orr	z24.b, z24.b, #0x1
    2100:	05210605 	ext	z5.b, z5.b, z16.b, #9
    2104:	05010618 	orr	z24.b, z24.b, #0x1
    2108:	23210605 	.inst	0x23210605 ; undefined
    210c:	01061805 	.inst	0x01061805 ; undefined
    2110:	21060505 	.inst	0x21060505 ; undefined
    2114:	13131327 	sbfiz	w7, w25, #13, #5
    2118:	01061313 	.inst	0x01061313 ; undefined
    211c:	09050104 	.inst	0x09050104 ; undefined
    2120:	7eec0306 	.inst	0x7eec0306 ; undefined
    2124:	100c0501 	adr	x1, 1a1c4 <_start-0x1e5e3c>
    2128:	06202006 	.inst	0x06202006 ; undefined
    212c:	13090501 	sbfiz	w1, w8, #23, #2
    2130:	73030105 	.inst	0x73030105 ; undefined
    2134:	15050501 	b	4143538 <__sel4_ipc_buffer_obj+0x3f3c538>
    2138:	1a050204 	adc	w4, w16, w5
    213c:	0104b003 	.inst	0x0104b003 ; undefined
    2140:	13140505 	sbfiz	w5, w8, #12, #2
    2144:	13131313 	sbfiz	w19, w24, #13, #5
    2148:	05030414 	orr	z20.d, z20.d, #0xffffffff00000001
    214c:	7cca0314 	.inst	0x7cca0314 ; undefined
    2150:	16050501 	b	fffffffff8143554 <__sel4_ipc_buffer_obj+0xfffffffff7f3c554>
    2154:	01061805 	.inst	0x01061805 ; undefined
    2158:	21060505 	.inst	0x21060505 ; undefined
    215c:	01061805 	.inst	0x01061805 ; undefined
    2160:	23060505 	.inst	0x23060505 ; undefined
    2164:	01061805 	.inst	0x01061805 ; undefined
    2168:	21060505 	.inst	0x21060505 ; undefined
    216c:	01061805 	.inst	0x01061805 ; undefined
    2170:	21060505 	.inst	0x21060505 ; undefined
    2174:	01061805 	.inst	0x01061805 ; undefined
    2178:	21060505 	.inst	0x21060505 ; undefined
    217c:	01061805 	.inst	0x01061805 ; undefined
    2180:	21060505 	.inst	0x21060505 ; undefined
    2184:	06180523 	.inst	0x06180523 ; undefined
    2188:	06050501 	.inst	0x06050501 ; undefined
    218c:	13132721 	sbfiz	w1, w25, #13, #10
    2190:	06131313 	.inst	0x06131313 ; undefined
    2194:	05010401 	orr	z1.h, z1.h, #0x1
    2198:	ec030609 	.inst	0xec030609 ; undefined
    219c:	0c05017e 	.inst	0x0c05017e ; undefined
    21a0:	05010610 	orr	z16.b, z16.b, #0x1
    21a4:	01110301 	.inst	0x01110301 ; undefined
    21a8:	01000102 	.inst	0x01000102 ; undefined
    21ac:	Address 0x00000000000021ac is out of bounds.


Disassembly of section .debug_str:

0000000000000000 <.debug_str>:
       0:	6573552f 	fnmla	z15.h, p5/m, z9.h, z19.h
       4:	6a2f7372 	bics	w18, w27, w15, lsl #28
       8:	72742f64 	.inst	0x72742f64 ; undefined
       c:	77747375 	.inst	0x77747375 ; undefined
      10:	6874726f 	.inst	0x6874726f ; undefined
      14:	79732d79 	ldrh	w25, [x11, #6550]
      18:	6d657473 	ldp	d19, d29, [x3, #-432]
      1c:	72612f73 	.inst	0x72612f73 ; undefined
      20:	2f636e69 	.inst	0x2f636e69 ; undefined
      24:	4e495241 	.inst	0x4e495241 ; undefined
      28:	31742f43 	adds	w3, w26, #0xd0b, lsl #12
      2c:	6f72705f 	.inst	0x6f72705f ; undefined
      30:	79746f74 	ldrh	w20, [x27, #6710]
      34:	6d2f6570 	stp	d16, d25, [x11, #-272]
      38:	6f726369 	umlsl2	v9.4s, v27.8h, v2.h[3]
      3c:	5f74696b 	.inst	0x5f74696b ; undefined
      40:	6f747574 	uqshl	v20.2d, v11.2d, #52
      44:	6c616972 	ldnp	d18, d26, [x11, #-496]
      48:	6f72702f 	.inst	0x6f72702f ; undefined
      4c:	79746f74 	ldrh	w20, [x27, #6710]
      50:	745f6570 	.inst	0x745f6570 ; undefined
      54:	75622f31 	.inst	0x75622f31 ; undefined
      58:	00646c69 	.inst	0x00646c69 ; undefined
      5c:	31776f70 	adds	w16, w27, #0xddb, lsl #12
      60:	78650030 	ldaddlh	w5, w16, [x1]
      64:	6f003270 	.inst	0x6f003270 ; undefined
      68:	665f7475 	.inst	0x665f7475 ; undefined
      6c:	775f7463 	.inst	0x775f7463 ; undefined
      70:	00706172 	.inst	0x00706172 ; undefined
      74:	66666964 	.inst	0x66666964 ; undefined
      78:	756f5f00 	.inst	0x756f5f00 ; undefined
      7c:	75625f74 	.inst	0x75625f74 ; undefined
      80:	72656666 	.inst	0x72656666 ; undefined
      84:	6e697500 	uabd	v0.8h, v8.8h, v9.8h
      88:	5f343674 	.inst	0x5f343674 ; undefined
      8c:	68730074 	.inst	0x68730074 ; undefined
      90:	2074726f 	.inst	0x2074726f ; undefined
      94:	00746e69 	.inst	0x00746e69 ; undefined
      98:	657a6973 	fnmls	z19.h, p2/m, z11.h, z26.h
      9c:	6d00745f 	stp	d31, d29, [x2]
      a0:	69776e69 	ldpsw	x9, x27, [x19, #-72]
      a4:	00687464 	.inst	0x00687464 ; undefined
      a8:	6f74655f 	sqshlu	v31.2d, v10.2d, #52
      ac:	6f5f0061 	mla	v1.8h, v3.8h, v15.h[1]
      b0:	635f7475 	.inst	0x635f7475 ; undefined
      b4:	00726168 	.inst	0x00726168 ; undefined
      b8:	7378616d 	.inst	0x7378616d ; undefined
      bc:	00657a69 	.inst	0x00657a69 ; undefined
      c0:	63617266 	.inst	0x63617266 ; undefined
      c4:	6c617600 	ldnp	d0, d29, [x16, #-496]
      c8:	5f006575 	.inst	0x5f006575 ; undefined
      cc:	5f74756f 	sqshl	d15, d11, #52
      d0:	00746366 	.inst	0x00746366 ; undefined
      d4:	72675f5f 	.inst	0x72675f5f ; undefined
      d8:	66666f5f 	.inst	0x66666f5f ; undefined
      dc:	69750073 	ldpsw	x19, x0, [x3, #-88]
      e0:	7470746e 	.inst	0x7470746e ; undefined
      e4:	00745f72 	.inst	0x00745f72 ; undefined
      e8:	72617473 	.inst	0x72617473 ; undefined
      ec:	64695f74 	.inst	0x64695f74 ; undefined
      f0:	63660078 	.inst	0x63660078 ; undefined
      f4:	69727074 	ldpsw	x20, x28, [x3, #-112]
      f8:	0066746e 	.inst	0x0066746e ; undefined
      fc:	72765f5f 	.inst	0x72765f5f ; undefined
     100:	706f745f 	adr	xzr, def8b <_start-0x121075>
     104:	6e6f6c00 	umin	v0.8h, v0.8h, v15.8h
     108:	6f6c2067 	umlal2	v7.4s, v3.8h, v12.h[2]
     10c:	6920676e 	.inst	0x6920676e ; undefined
     110:	5f00746e 	.inst	0x5f00746e ; undefined
     114:	5f61765f 	sqshl	d31, d18, #33
     118:	7473696c 	.inst	0x7473696c ; undefined
     11c:	73616200 	.inst	0x73616200 ; undefined
     120:	6e5f0065 	.inst	0x6e5f0065 ; undefined
     124:	5f616f74 	.inst	0x5f616f74 ; undefined
     128:	6d726f66 	ldp	d6, d27, [x27, #-224]
     12c:	5f007461 	.inst	0x5f007461 ; undefined
     130:	616f7466 	.inst	0x616f7466 ; undefined
     134:	73765f00 	.inst	0x73765f00 ; undefined
     138:	6972706e 	ldpsw	x14, x28, [x3, #-112]
     13c:	0066746e 	.inst	0x0066746e ; undefined
     140:	74756f5f 	.inst	0x74756f5f ; undefined
     144:	6c756e5f 	ldnp	d31, d27, [x18, #-176]
     148:	7865006c 	ldaddlh	w5, w12, [x3]
     14c:	6c617670 	ldnp	d16, d29, [x19, #-496]
     150:	675f5f00 	.inst	0x675f5f00 ; undefined
     154:	6f745f72 	.inst	0x6f745f72 ; undefined
     158:	5f5f0070 	.inst	0x5f5f0070 ; undefined
     15c:	63617473 	.inst	0x63617473 ; undefined
     160:	756f006b 	.inst	0x756f006b ; undefined
     164:	63665f74 	.inst	0x63665f74 ; undefined
     168:	79745f74 	ldrh	w20, [x27, #6702]
     16c:	6c006570 	stnp	d16, d25, [x11]
     170:	20676e6f 	.inst	0x20676e6f ; undefined
     174:	62756f64 	.inst	0x62756f64 ; undefined
     178:	7500656c 	.inst	0x7500656c ; undefined
     17c:	6769736e 	.inst	0x6769736e ; undefined
     180:	2064656e 	.inst	0x2064656e ; undefined
     184:	72616863 	.inst	0x72616863 ; undefined
     188:	746e5f00 	.inst	0x746e5f00 ; undefined
     18c:	6c5f616f 	ldnp	d15, d24, [x11, #496]
     190:	00676e6f 	.inst	0x00676e6f ; undefined
     194:	702f2e2e 	adr	x14, 5e75b <_start-0x1a18a5>
     198:	746e6972 	.inst	0x746e6972 ; undefined
     19c:	00632e66 	.inst	0x00632e66 ; undefined
     1a0:	67616c66 	.inst	0x67616c66 ; undefined
     1a4:	6f6c0073 	mla	v19.8h, v3.8h, v12.h[2]
     1a8:	6c20676e 	stnp	d14, d25, [x27, #-512]
     1ac:	20676e6f 	.inst	0x20676e6f ; undefined
     1b0:	69736e75 	ldpsw	x21, x27, [x19, #-104]
     1b4:	64656e67 	.inst	0x64656e67 ; undefined
     1b8:	746e6920 	.inst	0x746e6920 ; undefined
     1bc:	6e737600 	uabd	v0.8h, v16.8h, v19.8h
     1c0:	6e697270 	uabdl2	v16.4s, v19.8h, v9.8h
     1c4:	005f6674 	.inst	0x005f6674 ; undefined
     1c8:	6c78616d 	ldnp	d13, d24, [x11, #-128]
     1cc:	5f006e65 	.inst	0x5f006e65 ; undefined
     1d0:	696f7461 	ldpsw	x1, x29, [x3, #-136]
     1d4:	6f687300 	fcmla	v0.8h, v24.8h, v8.h[1], #270
     1d8:	75207472 	.inst	0x75207472 ; undefined
     1dc:	6769736e 	.inst	0x6769736e ; undefined
     1e0:	2064656e 	.inst	0x2064656e ; undefined
     1e4:	00746e69 	.inst	0x00746e69 ; undefined
     1e8:	7274735f 	.inst	0x7274735f ; undefined
     1ec:	6e656c6e 	umin	v14.8h, v3.8h, v5.8h
     1f0:	7700735f 	.inst	0x7700735f ; undefined
     1f4:	656c6f68 	fnmls	z8.h, p3/m, z27.h, z12.h
     1f8:	72707300 	.inst	0x72707300 ; undefined
     1fc:	66746e69 	.inst	0x66746e69 ; undefined
     200:	695f005f 	ldpsw	xzr, x0, [x2, #248]
     204:	69645f73 	ldpsw	x19, x23, [x27, #-224]
     208:	00746967 	.inst	0x00746967 ; undefined
     20c:	766e6f63 	.inst	0x766e6f63 ; undefined
     210:	67656e00 	.inst	0x67656e00 ; undefined
     214:	76697461 	.inst	0x76697461 ; undefined
     218:	68630065 	.inst	0x68630065 ; undefined
     21c:	63617261 	.inst	0x63617261 ; undefined
     220:	00726574 	.inst	0x00726574 ; undefined
     224:	74756f5f 	.inst	0x74756f5f ; undefined
     228:	7665725f 	.inst	0x7665725f ; undefined
     22c:	756f6300 	.inst	0x756f6300 ; undefined
     230:	6f00746e 	bic	v14.4s, #0x3, lsl #24
     234:	665f7475 	.inst	0x665f7475 ; undefined
     238:	775f7463 	.inst	0x775f7463 ; undefined
     23c:	5f706172 	.inst	0x5f706172 ; undefined
     240:	65707974 	fnmls	z20.h, p6/m, z11.h, z16.h
     244:	65727000 	fnmls	z0.h, p4/m, z0.h, z18.h
     248:	77660063 	.inst	0x77660063 ; undefined
     24c:	68746469 	.inst	0x68746469 ; undefined
     250:	675f5f00 	.inst	0x675f5f00 ; undefined
     254:	5f63756e 	sqshl	d14, d11, #35
     258:	6c5f6176 	ldnp	d22, d24, [x11, #496]
     25c:	00747369 	.inst	0x00747369 ; undefined
     260:	72765f5f 	.inst	0x72765f5f ; undefined
     264:	66666f5f 	.inst	0x66666f5f ; undefined
     268:	6e5f0073 	.inst	0x6e5f0073 ; undefined
     26c:	5f616f74 	.inst	0x5f616f74 ; undefined
     270:	676e6f6c 	.inst	0x676e6f6c ; undefined
     274:	6e6f6c5f 	umin	v31.8h, v2.8h, v15.8h
     278:	4e470067 	.inst	0x4e470067 ; undefined
     27c:	31432055 	adds	w21, w2, #0xc8, lsl #12
     280:	33312037 	.inst	0x33312037 ; undefined
     284:	302e332e 	adr	x14, 5c8e9 <_start-0x1a3717>
     288:	636d2d20 	.inst	0x636d2d20 ; undefined
     28c:	633d7570 	.inst	0x633d7570 ; undefined
     290:	6574726f 	fnmls	z15.h, p4/m, z19.h, z20.h
     294:	35612d78 	cbnz	w24, c2840 <_start-0x13d7c0>
     298:	6d2d2033 	stp	d19, d8, [x1, #-304]
     29c:	69727473 	ldpsw	x19, x29, [x3, #-112]
     2a0:	612d7463 	.inst	0x612d7463 ; undefined
     2a4:	6e67696c 	.inst	0x6e67696c ; undefined
     2a8:	6c6d2d20 	ldnp	d0, d11, [x9, #-304]
     2ac:	6c747469 	ldnp	d9, d29, [x3, #-192]
     2b0:	6e652d65 	uqsub	v5.8h, v11.8h, v5.8h
     2b4:	6e616964 	fcvtxn2	v4.4s, v11.2d
     2b8:	616d2d20 	.inst	0x616d2d20 ; undefined
     2bc:	6c3d6962 	stnp	d2, d26, [x11, #-48]
     2c0:	20343670 	.inst	0x20343670 ; undefined
     2c4:	2d20672d 	stp	s13, s25, [x25, #-256]
     2c8:	65726666 	fnmls	z6.h, p1/m, z19.h, z18.h
     2cc:	61747365 	.inst	0x61747365 ; undefined
     2d0:	6e69646e 	umax	v14.8h, v3.8h, v9.8h
     2d4:	73690067 	.inst	0x73690067 ; undefined
     2d8:	006c6c5f 	.inst	0x006c6c5f ; undefined
     2dc:	7475705f 	.inst	0x7475705f ; undefined
     2e0:	72616863 	.inst	0x72616863 ; undefined
     2e4:	65727000 	fnmls	z0.h, p4/m, z0.h, z18.h
     2e8:	69736963 	ldpsw	x3, x26, [x11, #-104]
     2ec:	76006e6f 	.inst	0x76006e6f ; undefined
     2f0:	6e697270 	uabdl2	v16.4s, v19.8h, v9.8h
     2f4:	005f6674 	.inst	0x005f6674 ; undefined
     2f8:	344c6573 	cbz	w19, 98fa4 <_start-0x16705c>
     2fc:	5043565f 	adr	xzr, 86dc6 <_start-0x17923a>
     300:	67655255 	.inst	0x67655255 ; undefined
     304:	4254545f 	.inst	0x4254545f ; undefined
     308:	73003052 	.inst	0x73003052 ; undefined
     30c:	5f344c65 	.inst	0x5f344c65 ; undefined
     310:	55504356 	.inst	0x55504356 ; undefined
     314:	5f676552 	.inst	0x5f676552 ; undefined
     318:	52425454 	.inst	0x52425454 ; undefined
     31c:	52410031 	.inst	0x52410031 ; undefined
     320:	4953414d 	.inst	0x4953414d ; undefined
     324:	6f6f5044 	fcmla	v4.8h, v2.8h, v15.h[1], #180
     328:	7373416c 	.inst	0x7373416c ; undefined
     32c:	006e6769 	.inst	0x006e6769 ; undefined
     330:	344c6573 	cbz	w19, 98fdc <_start-0x167024>
     334:	7665525f 	.inst	0x7665525f ; undefined
     338:	46656b6f 	.inst	0x46656b6f ; undefined
     33c:	74737269 	.inst	0x74737269 ; undefined
     340:	4c657300 	.inst	0x4c657300 ; undefined
     344:	50495f34 	adr	x20, 92f2a <_start-0x16d0d6>
     348:	66754243 	.inst	0x66754243 ; undefined
     34c:	5f726566 	.inst	0x5f726566 ; undefined
     350:	4c657300 	.inst	0x4c657300 ; undefined
     354:	43565f34 	.inst	0x43565f34 ; undefined
     358:	65525550 	fcmgt	p0.h, p5/z, z10.h, z18.h
     35c:	41465f67 	.inst	0x41465f67 ; undefined
     360:	65730052 	fmla	z18.h, p0/m, z2.h, z19.h
     364:	525f344c 	.inst	0x525f344c ; undefined
     368:	65676e61 	fnmls	z1.h, p3/m, z19.h, z7.h
     36c:	6f727245 	.inst	0x6f727245 ; undefined
     370:	78650072 	ldaddlh	w5, w18, [x3]
     374:	43617274 	.inst	0x43617274 ; undefined
     378:	00737061 	.inst	0x00737061 ; undefined
     37c:	4967736d 	.inst	0x4967736d ; undefined
     380:	006f666e 	.inst	0x006f666e ; undefined
     384:	73615f5f 	.inst	0x73615f5f ; undefined
     388:	74726573 	.inst	0x74726573 ; undefined
     38c:	6e75665f 	umax	v31.8h, v18.8h, v21.8h
     390:	65730063 	fmla	z3.h, p0/m, z3.h, z19.h
     394:	535f344c 	.inst	0x535f344c ; undefined
     398:	65447379 	fcmne	p9.h, p4/z, z27.h, z4.h
     39c:	53677562 	.inst	0x53677562 ; undefined
     3a0:	7370616e 	.inst	0x7370616e ; undefined
     3a4:	00746f68 	.inst	0x00746f68 ; undefined
     3a8:	752f2e2e 	.inst	0x752f2e2e ; undefined
     3ac:	2e6c6974 	.inst	0x2e6c6974 ; undefined
     3b0:	65730063 	fmla	z3.h, p0/m, z3.h, z19.h
     3b4:	4e5f344c 	fmax	v12.8h, v2.8h, v31.8h
     3b8:	6e45746f 	.inst	0x6e45746f ; undefined
     3bc:	6867756f 	.inst	0x6867756f ; undefined
     3c0:	6f6d654d 	sqshlu	v13.2d, v10.2d, #45
     3c4:	69007972 	.inst	0x69007972 ; undefined
     3c8:	756f5f6e 	.inst	0x756f5f6e ; undefined
     3cc:	726d5f74 	.inst	0x726d5f74 ; undefined
     3d0:	6e690031 	uaddl2	v17.4s, v1.8h, v9.8h
     3d4:	74756f5f 	.inst	0x74756f5f ; undefined
     3d8:	32726d5f 	.inst	0x32726d5f ; undefined
     3dc:	5f6e6900 	.inst	0x5f6e6900 ; undefined
     3e0:	5f74756f 	sqshl	d15, d11, #52
     3e4:	0033726d 	.inst	0x0033726d ; NYI
     3e8:	344c6573 	cbz	w19, 99094 <_start-0x166f6c>
     3ec:	4350495f 	.inst	0x4350495f ; undefined
     3f0:	66667542 	.inst	0x66667542 ; undefined
     3f4:	6d007265 	stp	d5, d28, [x19]
     3f8:	65736d65 	fnmls	z5.h, p3/m, z11.h, z19.h
     3fc:	73610074 	.inst	0x73610074 ; undefined
     400:	74726573 	.inst	0x74726573 ; undefined
     404:	006e6f69 	.inst	0x006e6f69 ; undefined
     408:	344c6573 	cbz	w19, 990b4 <_start-0x166f4c>
     40c:	7379535f 	.inst	0x7379535f ; undefined
     410:	75626544 	.inst	0x75626544 ; undefined
     414:	6d614e67 	ldp	d7, d19, [x19, #-496]
     418:	72685465 	.inst	0x72685465 ; undefined
     41c:	00646165 	.inst	0x00646165 ; undefined
     420:	344c6573 	cbz	w19, 990cc <_start-0x166f34>
     424:	7379535f 	.inst	0x7379535f ; undefined
     428:	6c656959 	ldnp	d25, d26, [x10, #-432]
     42c:	72650064 	.inst	0x72650064 ; undefined
     430:	00726f72 	.inst	0x00726f72 ; undefined
     434:	344c6573 	cbz	w19, 990e0 <_start-0x166f20>
     438:	6e69555f 	urshl	v31.8h, v10.8h, v9.8h
     43c:	00363174 	.inst	0x00363174 ; NYI
     440:	344c6573 	cbz	w19, 990ec <_start-0x166f14>
     444:	7379535f 	.inst	0x7379535f ; undefined
     448:	6c706552 	ldnp	d18, d25, [x10, #-256]
     44c:	63655279 	.inst	0x63655279 ; undefined
     450:	65730076 	fmla	z22.h, p0/m, z3.h, z19.h
     454:	535f344c 	.inst	0x535f344c ; undefined
     458:	524d7465 	.inst	0x524d7465 ; undefined
     45c:	4d524100 	.inst	0x4d524100 ; undefined
     460:	55504356 	.inst	0x55504356 ; undefined
     464:	566b6341 	.inst	0x566b6341 ; undefined
     468:	00495050 	.inst	0x00495050 ; undefined
     46c:	344c6573 	cbz	w19, 99118 <_start-0x166ee8>
     470:	696c415f 	ldpsw	xzr, x16, [x10, #-160]
     474:	656d6e67 	fnmls	z7.h, p3/m, z19.h, z13.h
     478:	7245746e 	.inst	0x7245746e ; undefined
     47c:	00726f72 	.inst	0x00726f72 ; undefined
     480:	5f74756f 	sqshl	d15, d11, #52
     484:	6f666e69 	.inst	0x6f666e69 ; undefined
     488:	4d524100 	.inst	0x4d524100 ; undefined
     48c:	65676150 	fnmls	z16.h, p0/m, z10.h, z7.h
     490:	6c626154 	ldnp	d20, d24, [x10, #-480]
     494:	6d6e5565 	ldp	d5, d21, [x11, #-288]
     498:	41007061 	.inst	0x41007061 ; undefined
     49c:	61504d52 	.inst	0x61504d52 ; undefined
     4a0:	6c436567 	ldnp	d7, d25, [x11, #48]
     4a4:	5f6e6165 	.inst	0x5f6e6165 ; undefined
     4a8:	61746144 	.inst	0x61746144 ; undefined
     4ac:	4c657300 	.inst	0x4c657300 ; undefined
     4b0:	43545f34 	.inst	0x43545f34 ; undefined
     4b4:	6a624f42 	bics	w2, w26, w2, lsr #19
     4b8:	00746365 	.inst	0x00746365 ; undefined
     4bc:	344c6573 	cbz	w19, 99168 <_start-0x166e98>
     4c0:	7379535f 	.inst	0x7379535f ; undefined
     4c4:	646e6553 	.inst	0x646e6553 ; undefined
     4c8:	4c657300 	.inst	0x4c657300 ; undefined
     4cc:	6f575f34 	.inst	0x6f575f34 ; undefined
     4d0:	72006472 	ands	w18, w3, #0x3ffffff
     4d4:	6c757365 	ldnp	d5, d28, [x27, #-176]
     4d8:	69660074 	ldpsw	x20, x0, [x3, #-208]
     4dc:	00646c65 	.inst	0x00646c65 ; undefined
     4e0:	65735f5f 	fnmla	z31.h, p7/m, z26.h, z19.h
     4e4:	695f346c 	ldpsw	x12, x13, [x3, #248]
     4e8:	625f6370 	.inst	0x625f6370 ; undefined
     4ec:	65666675 	fnmls	z21.h, p1/m, z19.h, z6.h
     4f0:	65730072 	fmla	z18.h, p0/m, z3.h, z19.h
     4f4:	4d5f344c 	.inst	0x4d5f344c ; undefined
     4f8:	61737365 	.inst	0x61737365 ; undefined
     4fc:	6e496567 	.inst	0x6e496567 ; undefined
     500:	745f6f66 	.inst	0x745f6f66 ; undefined
     504:	4c657300 	.inst	0x4c657300 ; undefined
     508:	79535f34 	ldrh	w20, [x25, #2478]
     50c:	57424e73 	.inst	0x57424e73 ; undefined
     510:	00746961 	.inst	0x00746961 ; undefined
     514:	414d5241 	.inst	0x414d5241 ; undefined
     518:	43444953 	.inst	0x43444953 ; undefined
     51c:	72746e6f 	.inst	0x72746e6f ; undefined
     520:	614d6c6f 	.inst	0x614d6c6f ; undefined
     524:	6f50656b 	sqshlu	v11.2d, v11.2d, #16
     528:	66006c6f 	.inst	0x66006c6f ; undefined
     52c:	00656c69 	.inst	0x00656c69 ; undefined
     530:	504d5241 	adr	x1, 9af7a <_start-0x165086>
     534:	49656761 	.inst	0x49656761 ; undefined
     538:	6c61766e 	ldnp	d14, d29, [x19, #-496]
     53c:	74616469 	.inst	0x74616469 ; undefined
     540:	61445f65 	.inst	0x61445f65 ; undefined
     544:	70006174 	adr	x20, 1173 <_start-0x1fee8d>
     548:	00387475 	.inst	0x00387475 ; NYI
     54c:	344c6573 	cbz	w19, 991f8 <_start-0x166e08>
     550:	7065525f 	adr	xzr, caf9b <_start-0x135065>
     554:	624f796c 	.inst	0x624f796c ; undefined
     558:	7463656a 	.inst	0x7463656a ; undefined
     55c:	72416e00 	.inst	0x72416e00 ; undefined
     560:	6e496863 	.inst	0x6e496863 ; undefined
     564:	61636f76 	.inst	0x61636f76 ; undefined
     568:	6e6f6974 	.inst	0x6e6f6974 ; undefined
     56c:	6562614c 	fnmls	z12.h, p0/m, z10.h, z2.h
     570:	7600736c 	.inst	0x7600736c ; undefined
     574:	00757063 	.inst	0x00757063 ; undefined
     578:	6c706572 	ldnp	d18, d25, [x11, #-256]
     57c:	6f745f79 	.inst	0x6f745f79 ; undefined
     580:	7561665f 	.inst	0x7561665f ; undefined
     584:	7300746c 	.inst	0x7300746c ; undefined
     588:	5f344c65 	.inst	0x5f344c65 ; undefined
     58c:	43737953 	.inst	0x43737953 ; undefined
     590:	006c6c61 	.inst	0x006c6c61 ; undefined
     594:	344c6573 	cbz	w19, 99240 <_start-0x166dc0>
     598:	5043565f 	adr	xzr, 87062 <_start-0x178f9e>
     59c:	67655255 	.inst	0x67655255 ; undefined
     5a0:	4150435f 	.inst	0x4150435f ; undefined
     5a4:	77005243 	.inst	0x77005243 ; undefined
     5a8:	7364726f 	.inst	0x7364726f ; undefined
     5ac:	4c657300 	.inst	0x4c657300 ; undefined
     5b0:	43565f34 	.inst	0x43565f34 ; undefined
     5b4:	65525550 	fcmgt	p0.h, p5/z, z10.h, z18.h
     5b8:	46415f67 	.inst	0x46415f67 ; undefined
     5bc:	00305253 	.inst	0x00305253 ; NYI
     5c0:	344c6573 	cbz	w19, 9926c <_start-0x166d94>
     5c4:	5043565f 	adr	xzr, 8708e <_start-0x178f72>
     5c8:	67655255 	.inst	0x67655255 ; undefined
     5cc:	5346415f 	.inst	0x5346415f ; undefined
     5d0:	73003152 	.inst	0x73003152 ; undefined
     5d4:	5f344c65 	.inst	0x5f344c65 ; undefined
     5d8:	72657355 	.inst	0x72657355 ; undefined
     5dc:	746e6f43 	.inst	0x746e6f43 ; undefined
     5e0:	00747865 	.inst	0x00747865 ; undefined
     5e4:	504d5241 	adr	x1, 9b02e <_start-0x164fd2>
     5e8:	47656761 	.inst	0x47656761 ; undefined
     5ec:	64417465 	fcmla	z5.h, p5/m, z3.h, z1.h, #270
     5f0:	73657264 	.inst	0x73657264 ; undefined
     5f4:	70740073 	adr	x19, e8603 <_start-0x1179fd>
     5f8:	5f726469 	.inst	0x5f726469 ; undefined
     5fc:	00306c65 	.inst	0x00306c65 ; NYI
     600:	344c6573 	cbz	w19, 992ac <_start-0x166d54>
     604:	7465475f 	.inst	0x7465475f ; undefined
     608:	7300524d 	.inst	0x7300524d ; undefined
     60c:	5f344c65 	.inst	0x5f344c65 ; undefined
     610:	55504356 	.inst	0x55504356 ; undefined
     614:	5f676552 	.inst	0x5f676552 ; undefined
     618:	4c544353 	.inst	0x4c544353 ; undefined
     61c:	65730052 	fmla	z18.h, p0/m, z2.h, z19.h
     620:	565f344c 	.inst	0x565f344c ; undefined
     624:	52555043 	.inst	0x52555043 ; undefined
     628:	435f6765 	.inst	0x435f6765 ; undefined
     62c:	5f56544e 	shl	d14, d2, #22
     630:	4c415643 	.inst	0x4c415643 ; undefined
     634:	63696d00 	.inst	0x63696d00 ; undefined
     638:	696b6f72 	ldpsw	x18, x27, [x27, #-168]
     63c:	736d5f74 	.inst	0x736d5f74 ; undefined
     640:	666e6967 	.inst	0x666e6967 ; undefined
     644:	656e5f6f 	fnmla	z15.h, p7/m, z27.h, z14.h
     648:	65640077 	fmla	z23.h, p0/m, z3.h, z4.h
     64c:	74707473 	.inst	0x74707473 ; undefined
     650:	70610072 	adr	x18, c265f <_start-0x13d9a1>
     654:	626f5f69 	.inst	0x626f5f69 ; undefined
     658:	7463656a 	.inst	0x7463656a ; undefined
     65c:	4c657300 	.inst	0x4c657300 ; undefined
     660:	79535f34 	ldrh	w20, [x25, #2478]
     664:	62654473 	.inst	0x62654473 ; undefined
     668:	61486775 	.inst	0x61486775 ; undefined
     66c:	7300746c 	.inst	0x7300746c ; undefined
     670:	5f344c65 	.inst	0x5f344c65 ; undefined
     674:	5f4d5241 	.inst	0x5f4d5241 ; undefined
     678:	55504356 	.inst	0x55504356 ; undefined
     67c:	6165525f 	.inst	0x6165525f ; undefined
     680:	67655264 	.inst	0x67655264 ; undefined
     684:	65730073 	fmla	z19.h, p0/m, z3.h, z19.h
     688:	415f344c 	.inst	0x415f344c ; undefined
     68c:	636e7973 	.inst	0x636e7973 ; undefined
     690:	70646e45 	adr	x5, c945b <_start-0x136ba5>
     694:	746e696f 	.inst	0x746e696f ; undefined
     698:	656a624f 	fnmls	z15.h, p0/m, z18.h, z10.h
     69c:	76007463 	.inst	0x76007463 ; undefined
     6a0:	5f757063 	sqdmlsl	s3, h3, v5.h[3]
     6a4:	73006469 	.inst	0x73006469 ; undefined
     6a8:	5f344c65 	.inst	0x5f344c65 ; undefined
     6ac:	7373654d 	.inst	0x7373654d ; undefined
     6b0:	49656761 	.inst	0x49656761 ; undefined
     6b4:	006f666e 	.inst	0x006f666e ; undefined
     6b8:	344c6573 	cbz	w19, 99364 <_start-0x166c9c>
     6bc:	5043565f 	adr	xzr, 87186 <_start-0x178e7a>
     6c0:	67655255 	.inst	0x67655255 ; undefined
     6c4:	5253495f 	.inst	0x5253495f ; undefined
     6c8:	4c657300 	.inst	0x4c657300 ; undefined
     6cc:	43565f34 	.inst	0x43565f34 ; undefined
     6d0:	65525550 	fcmgt	p0.h, p5/z, z10.h, z18.h
     6d4:	414d5f67 	.inst	0x414d5f67 ; undefined
     6d8:	41005249 	.inst	0x41005249 ; undefined
     6dc:	43564d52 	.inst	0x43564d52 ; undefined
     6e0:	72575550 	.inst	0x72575550 ; undefined
     6e4:	52657469 	.inst	0x52657469 ; undefined
     6e8:	41006765 	.inst	0x41006765 ; undefined
     6ec:	43564d52 	.inst	0x43564d52 ; undefined
     6f0:	6e495550 	.inst	0x6e495550 ; undefined
     6f4:	7463656a 	.inst	0x7463656a ; undefined
     6f8:	00515249 	.inst	0x00515249 ; undefined
     6fc:	344c6573 	cbz	w19, 993a8 <_start-0x166c58>
     700:	5043565f 	adr	xzr, 871ca <_start-0x178e36>
     704:	67655255 	.inst	0x67655255 ; undefined
     708:	544e435f 	.inst	0x544e435f ; undefined
     70c:	54435f56 	.inst	0x54435f56 ; undefined
     710:	696d004c 	ldpsw	x12, x0, [x2, #-152]
     714:	6b6f7263 	.inst	0x6b6f7263 ; undefined
     718:	6d5f7469 	ldp	d9, d29, [x3, #496]
     71c:	65735f72 	fnmla	z18.h, p7/m, z27.h, z19.h
     720:	52410074 	.inst	0x52410074 ; undefined
     724:	6761504d 	.inst	0x6761504d ; undefined
     728:	6d6e5565 	ldp	d5, d21, [x11, #-288]
     72c:	73007061 	.inst	0x73007061 ; undefined
     730:	5f344c65 	.inst	0x5f344c65 ; undefined
     734:	55504356 	.inst	0x55504356 ; undefined
     738:	5f676552 	.inst	0x5f676552 ; undefined
     73c:	52535053 	.inst	0x52535053 ; undefined
     740:	314c455f 	cmn	w10, #0x311, lsl #12
     744:	4c657300 	.inst	0x4c657300 ; undefined
     748:	79535f34 	ldrh	w20, [x25, #2478]
     74c:	53424e73 	.inst	0x53424e73 ; undefined
     750:	57646e65 	.inst	0x57646e65 ; undefined
     754:	00746961 	.inst	0x00746961 ; undefined
     758:	756e655f 	.inst	0x756e655f ; undefined
     75c:	61705f6d 	.inst	0x61705f6d ; undefined
     760:	65735f64 	fnmla	z4.h, p7/m, z27.h, z19.h
     764:	565f344c 	.inst	0x565f344c ; undefined
     768:	52555043 	.inst	0x52555043 ; undefined
     76c:	75006765 	.inst	0x75006765 ; undefined
     770:	38746e69 	.inst	0x38746e69 ; undefined
     774:	7300745f 	.inst	0x7300745f ; undefined
     778:	5f344c65 	.inst	0x5f344c65 ; undefined
     77c:	49746547 	.inst	0x49746547 ; undefined
     780:	75424350 	.inst	0x75424350 ; undefined
     784:	72656666 	.inst	0x72656666 ; undefined
     788:	4c657300 	.inst	0x4c657300 ; undefined
     78c:	69555f34 	ldpsw	x20, x23, [x25, #168]
     790:	3436746e 	cbz	w14, 6d61c <_start-0x1929e4>
     794:	4c657300 	.inst	0x4c657300 ; undefined
     798:	43565f34 	.inst	0x43565f34 ; undefined
     79c:	65525550 	fcmgt	p0.h, p5/z, z10.h, z18.h
     7a0:	42565f67 	.inst	0x42565f67 ; undefined
     7a4:	73005241 	.inst	0x73005241 ; undefined
     7a8:	5f344c65 	.inst	0x5f344c65 ; undefined
     7ac:	72657355 	.inst	0x72657355 ; undefined
     7b0:	746e6f43 	.inst	0x746e6f43 ; undefined
     7b4:	5f747865 	sqdmlsl	s5, h3, v4.h[7]
     7b8:	70616300 	adr	x0, c341b <_start-0x13cbe5>
     7bc:	726f5f73 	.inst	0x726f5f73 ; undefined
     7c0:	6461625f 	.inst	0x6461625f ; undefined
     7c4:	00736567 	.inst	0x00736567 ; undefined
     7c8:	344c6573 	cbz	w19, 99474 <_start-0x166b8c>
     7cc:	5043565f 	adr	xzr, 87296 <_start-0x178d6a>
     7d0:	67655255 	.inst	0x67655255 ; undefined
     7d4:	4449435f 	.inst	0x4449435f ; undefined
     7d8:	72700052 	.inst	0x72700052 ; undefined
     7dc:	5f746e69 	.inst	0x5f746e69 ; undefined
     7e0:	5f626374 	.inst	0x5f626374 ; undefined
     7e4:	73676572 	.inst	0x73676572 ; undefined
     7e8:	4c657300 	.inst	0x4c657300 ; undefined
     7ec:	6c495f34 	ldnp	d20, d23, [x25, #144]
     7f0:	6167656c 	.inst	0x6167656c ; undefined
     7f4:	65704f6c 	fnmla	z12.h, p3/m, z27.h, z16.h
     7f8:	69746172 	ldpsw	x18, x24, [x11, #-96]
     7fc:	73006e6f 	.inst	0x73006e6f ; undefined
     800:	5f344c65 	.inst	0x5f344c65 ; undefined
     804:	5f4d5241 	.inst	0x5f4d5241 ; undefined
     808:	55504356 	.inst	0x55504356 ; undefined
     80c:	4c657300 	.inst	0x4c657300 ; undefined
     810:	50435f34 	adr	x20, 873f6 <_start-0x178c0a>
     814:	73007274 	.inst	0x73007274 ; undefined
     818:	5f344c65 	.inst	0x5f344c65 ; undefined
     81c:	55504356 	.inst	0x55504356 ; undefined
     820:	5f676552 	.inst	0x5f676552 ; undefined
     824:	44495054 	.inst	0x44495054 ; undefined
     828:	4c455f52 	.inst	0x4c455f52 ; undefined
     82c:	65730031 	fmla	z17.h, p0/m, z1.h, z19.h
     830:	415f344c 	.inst	0x415f344c ; undefined
     834:	565f4d52 	.inst	0x565f4d52 ; undefined
     838:	5f555043 	.inst	0x5f555043 ; undefined
     83c:	64616552 	.inst	0x64616552 ; undefined
     840:	73676552 	.inst	0x73676552 ; undefined
     844:	7300745f 	.inst	0x7300745f ; undefined
     848:	5f344c65 	.inst	0x5f344c65 ; undefined
     84c:	4e737953 	.inst	0x4e737953 ; undefined
     850:	63655242 	.inst	0x63655242 ; undefined
     854:	655f0076 	fadd	z22.h, z3.h, z31.h
     858:	5f6d756e 	sqshl	d14, d11, #45
     85c:	5f646170 	.inst	0x5f646170 ; undefined
     860:	344c6573 	cbz	w19, 9950c <_start-0x166af4>
     864:	7379535f 	.inst	0x7379535f ; undefined
     868:	6c6c6163 	ldnp	d3, d24, [x11, #-320]
     86c:	0044495f 	.inst	0x0044495f ; undefined
     870:	7263696d 	.inst	0x7263696d ; undefined
     874:	74696b6f 	.inst	0x74696b6f ; undefined
     878:	7063765f 	adr	xzr, c7743 <_start-0x1388bd>
     87c:	72615f75 	.inst	0x72615f75 ; undefined
     880:	65725f6d 	fnmla	z13.h, p7/m, z27.h, z18.h
     884:	725f6461 	.inst	0x725f6461 ; undefined
     888:	73006765 	.inst	0x73006765 ; undefined
     88c:	5f344c65 	.inst	0x5f344c65 ; undefined
     890:	6c6c6143 	ldnp	d3, d24, [x10, #-320]
     894:	68746957 	.inst	0x68746957 ; undefined
     898:	0073524d 	.inst	0x0073524d ; undefined
     89c:	504d5241 	adr	x1, 9b2e6 <_start-0x164d1a>
     8a0:	43656761 	.inst	0x43656761 ; undefined
     8a4:	6e61656c 	umax	v12.8h, v11.8h, v1.8h
     8a8:	61766e49 	.inst	0x61766e49 ; undefined
     8ac:	6164696c 	.inst	0x6164696c ; undefined
     8b0:	445f6574 	.inst	0x445f6574 ; undefined
     8b4:	00617461 	.inst	0x00617461 ; undefined
     8b8:	564d5241 	.inst	0x564d5241 ; undefined
     8bc:	52555043 	.inst	0x52555043 ; undefined
     8c0:	52646165 	.inst	0x52646165 ; undefined
     8c4:	73006765 	.inst	0x73006765 ; undefined
     8c8:	5f344c65 	.inst	0x5f344c65 ; undefined
     8cc:	456d754e 	.inst	0x456d754e ; undefined
     8d0:	726f7272 	.inst	0x726f7272 ; undefined
     8d4:	65730073 	fmla	z19.h, p0/m, z3.h, z19.h
     8d8:	4e5f344c 	fmax	v12.8h, v2.8h, v31.8h
     8dc:	7272456f 	.inst	0x7272456f ; undefined
     8e0:	7200726f 	ands	w15, w19, #0x1fffffff
     8e4:	69656365 	ldpsw	x5, x24, [x27, #-216]
     8e8:	4e436576 	.inst	0x4e436576 ; undefined
     8ec:	0065646f 	.inst	0x0065646f ; undefined
     8f0:	504d5241 	adr	x1, 9b33a <_start-0x164cc6>
     8f4:	55656761 	.inst	0x55656761 ; undefined
     8f8:	7966696e 	ldrh	w14, [x11, #4916]
     8fc:	736e495f 	.inst	0x736e495f ; undefined
     900:	63757274 	.inst	0x63757274 ; undefined
     904:	6e6f6974 	.inst	0x6e6f6974 ; undefined
     908:	4c657300 	.inst	0x4c657300 ; undefined
     90c:	61465f34 	.inst	0x61465f34 ; undefined
     910:	64656c69 	.inst	0x64656c69 ; undefined
     914:	6b6f6f4c 	.inst	0x6b6f6f4c ; undefined
     918:	73007075 	.inst	0x73007075 ; undefined
     91c:	5f344c65 	.inst	0x5f344c65 ; undefined
     920:	55504356 	.inst	0x55504356 ; undefined
     924:	5f676552 	.inst	0x5f676552 ; undefined
     928:	4c544341 	.inst	0x4c544341 ; undefined
     92c:	65730052 	fmla	z18.h, p0/m, z2.h, z19.h
     930:	4d5f344c 	.inst	0x4d5f344c ; undefined
     934:	61737365 	.inst	0x61737365 ; undefined
     938:	6e496567 	.inst	0x6e496567 ; undefined
     93c:	675f6f66 	.inst	0x675f6f66 ; undefined
     940:	6c5f7465 	ldnp	d5, d29, [x3, #496]
     944:	74676e65 	.inst	0x74676e65 ; undefined
     948:	65730068 	fmla	z8.h, p0/m, z3.h, z19.h
     94c:	535f344c 	.inst	0x535f344c ; undefined
     950:	61577379 	.inst	0x61577379 ; undefined
     954:	73007469 	.inst	0x73007469 ; undefined
     958:	5f344c65 	.inst	0x5f344c65 ; undefined
     95c:	69746f4e 	ldpsw	x14, x27, [x26, #-96]
     960:	61636966 	.inst	0x61636966 ; undefined
     964:	6e6f6974 	.inst	0x6e6f6974 ; undefined
     968:	656a624f 	fnmls	z15.h, p0/m, z18.h, z10.h
     96c:	73007463 	.inst	0x73007463 ; undefined
     970:	5f344c65 	.inst	0x5f344c65 ; undefined
     974:	55504356 	.inst	0x55504356 ; undefined
     978:	5f676552 	.inst	0x5f676552 ; undefined
     97c:	006d754e 	.inst	0x006d754e ; undefined
     980:	344c6573 	cbz	w19, 9962c <_start-0x1669d4>
     984:	5043565f 	adr	xzr, 8744e <_start-0x178bb2>
     988:	67655255 	.inst	0x67655255 ; undefined
     98c:	414d415f 	.inst	0x414d415f ; undefined
     990:	5f005249 	fmls	h9, h18, v0.h[0]
     994:	76726573 	.inst	0x76726573 ; undefined
     998:	00656369 	.inst	0x00656369 ; undefined
     99c:	64697074 	.inst	0x64697074 ; undefined
     9a0:	5f6f7272 	sqdmlsl	s18, h19, v15.h[2]
     9a4:	00306c65 	.inst	0x00306c65 ; NYI
     9a8:	7074756f 	adr	x15, e9857 <_start-0x1167a9>
     9ac:	745f7475 	.inst	0x745f7475 ; undefined
     9b0:	6d006761 	stp	d1, d25, [x27]
     9b4:	6f726369 	umlsl2	v9.4s, v27.8h, v2.h[3]
     9b8:	5f74696b 	.inst	0x5f74696b ; undefined
     9bc:	675f726d 	.inst	0x675f726d ; undefined
     9c0:	73007465 	.inst	0x73007465 ; undefined
     9c4:	5f344c65 	.inst	0x5f344c65 ; undefined
     9c8:	44737953 	.inst	0x44737953 ; undefined
     9cc:	67756265 	.inst	0x67756265 ; undefined
     9d0:	49706143 	.inst	0x49706143 ; undefined
     9d4:	746e6564 	.inst	0x746e6564 ; undefined
     9d8:	00796669 	.inst	0x00796669 ; undefined
     9dc:	344c6573 	cbz	w19, 99688 <_start-0x166978>
     9e0:	6e65535f 	uabal2	v31.4s, v26.8h, v5.8h
     9e4:	65720064 	fmla	z4.h, p0/m, z3.h, z18.h
     9e8:	76696563 	.inst	0x76696563 ; undefined
     9ec:	646e4965 	.inst	0x646e4965 ; undefined
     9f0:	73007865 	.inst	0x73007865 ; undefined
     9f4:	5f344c65 	.inst	0x5f344c65 ; undefined
     9f8:	70646e45 	adr	x5, c97c3 <_start-0x13683d>
     9fc:	746e696f 	.inst	0x746e696f ; undefined
     a00:	656a624f 	fnmls	z15.h, p0/m, z18.h, z10.h
     a04:	73007463 	.inst	0x73007463 ; undefined
     a08:	5f344c65 	.inst	0x5f344c65 ; undefined
     a0c:	65686353 	fnmls	z19.h, p0/m, z26.h, z8.h
     a10:	6e6f4364 	raddhn2	v4.8h, v27.4s, v15.4s
     a14:	74786574 	.inst	0x74786574 ; undefined
     a18:	656a624f 	fnmls	z15.h, p0/m, z18.h, z10.h
     a1c:	73007463 	.inst	0x73007463 ; undefined
     a20:	5f344c65 	.inst	0x5f344c65 ; undefined
     a24:	44737953 	.inst	0x44737953 ; undefined
     a28:	67756265 	.inst	0x67756265 ; undefined
     a2c:	43747550 	.inst	0x43747550 ; undefined
     a30:	00726168 	.inst	0x00726168 ; undefined
     a34:	344c6573 	cbz	w19, 996e0 <_start-0x166920>
     a38:	5043565f 	adr	xzr, 87502 <_start-0x178afe>
     a3c:	67655255 	.inst	0x67655255 ; undefined
     a40:	5243545f 	.inst	0x5243545f ; undefined
     a44:	4c657300 	.inst	0x4c657300 ; undefined
     a48:	43565f34 	.inst	0x43565f34 ; undefined
     a4c:	65525550 	fcmgt	p0.h, p5/z, z10.h, z18.h
     a50:	50535f67 	adr	x7, a763e <_start-0x1589c2>
     a54:	314c455f 	cmn	w10, #0x311, lsl #12
     a58:	63696d00 	.inst	0x63696d00 ; undefined
     a5c:	696b6f72 	ldpsw	x18, x27, [x27, #-168]
     a60:	6e695f74 	uqrshl	v20.8h, v27.8h, v9.8h
     a64:	6e726574 	umax	v20.8h, v11.8h, v18.8h
     a68:	635f6c61 	.inst	0x635f6c61 ; undefined
     a6c:	68736172 	.inst	0x68736172 ; undefined
     a70:	4c657300 	.inst	0x4c657300 ; undefined
     a74:	43565f34 	.inst	0x43565f34 ; undefined
     a78:	65525550 	fcmgt	p0.h, p5/z, z10.h, z18.h
     a7c:	4e435f67 	.inst	0x4e435f67 ; undefined
     a80:	54434b54 	.inst	0x54434b54 ; undefined
     a84:	4c455f4c 	.inst	0x4c455f4c ; undefined
     a88:	65730031 	fmla	z17.h, p0/m, z1.h, z19.h
     a8c:	565f344c 	.inst	0x565f344c ; undefined
     a90:	52555043 	.inst	0x52555043 ; undefined
     a94:	435f6765 	.inst	0x435f6765 ; undefined
     a98:	4f56544e 	shl	v14.2d, v2.2d, #22
     a9c:	67004646 	.inst	0x67004646 ; undefined
     aa0:	765f7465 	.inst	0x765f7465 ; undefined
     aa4:	695f6d6d 	ldpsw	x13, x27, [x11, #248]
     aa8:	65730064 	fmla	z4.h, p0/m, z3.h, z19.h
     aac:	4d5f344c 	.inst	0x4d5f344c ; undefined
     ab0:	61737365 	.inst	0x61737365 ; undefined
     ab4:	6e496567 	.inst	0x6e496567 ; undefined
     ab8:	675f6f66 	.inst	0x675f6f66 ; undefined
     abc:	6c5f7465 	ldnp	d5, d29, [x3, #496]
     ac0:	6c656261 	ldnp	d1, d24, [x19, #-432]
     ac4:	6d726100 	ldp	d0, d24, [x8, #-224]
     ac8:	7379735f 	.inst	0x7379735f ; undefined
     acc:	6e65735f 	uabdl2	v31.4s, v26.8h, v5.8h
     ad0:	65730064 	fmla	z4.h, p0/m, z3.h, z19.h
     ad4:	545f344c 	b.gt	bf15c <_start-0x140ea4>
     ad8:	636e7572 	.inst	0x636e7572 ; undefined
     adc:	64657461 	.inst	0x64657461 ; undefined
     ae0:	7373654d 	.inst	0x7373654d ; undefined
     ae4:	00656761 	.inst	0x00656761 ; undefined
     ae8:	344c6573 	cbz	w19, 99794 <_start-0x16686c>
     aec:	5043565f 	adr	xzr, 875b6 <_start-0x178a4a>
     af0:	67655255 	.inst	0x67655255 ; undefined
     af4:	504d565f 	adr	xzr, 9b5be <_start-0x164a42>
     af8:	5f524449 	.inst	0x5f524449 ; undefined
     afc:	00324c45 	.inst	0x00324c45 ; NYI
     b00:	73706163 	.inst	0x73706163 ; undefined
     b04:	72776e55 	.inst	0x72776e55 ; undefined
     b08:	65707061 	fnmls	z1.h, p4/m, z3.h, z16.h
     b0c:	5f5f0064 	.inst	0x5f5f0064 ; undefined
     b10:	65737361 	fnmls	z1.h, p4/m, z27.h, z19.h
     b14:	665f7472 	.inst	0x665f7472 ; undefined
     b18:	006c6961 	.inst	0x006c6961 ; undefined
     b1c:	344c6573 	cbz	w19, 997c8 <_start-0x166838>
     b20:	5043565f 	adr	xzr, 875ea <_start-0x178a16>
     b24:	67655255 	.inst	0x67655255 ; undefined
     b28:	5253455f 	.inst	0x5253455f ; undefined
     b2c:	4d524100 	.inst	0x4d524100 ; undefined
     b30:	55504356 	.inst	0x55504356 ; undefined
     b34:	54746553 	.inst	0x54746553 ; undefined
     b38:	69004243 	.inst	0x69004243 ; undefined
     b3c:	756f5f6e 	.inst	0x756f5f6e ; undefined
     b40:	726d5f74 	.inst	0x726d5f74 ; undefined
     b44:	696d0030 	ldpsw	x16, x0, [x1, #-152]
     b48:	6b6f7263 	.inst	0x6b6f7263 ; undefined
     b4c:	645f7469 	fcmla	z9.h, p5/m, z3.h, z31.h, #270
     b50:	705f6762 	adr	x2, bf83f <_start-0x1407c1>
     b54:	00637475 	.inst	0x00637475 ; undefined
     b58:	344c6573 	cbz	w19, 99804 <_start-0x1667fc>
     b5c:	7379535f 	.inst	0x7379535f ; undefined
     b60:	6553424e 	fcmge	p14.h, p0/z, z18.h, z19.h
     b64:	6d00646e 	stp	d14, d25, [x3]
     b68:	00316773 	.inst	0x00316773 ; NYI
     b6c:	6f666e69 	.inst	0x6f666e69 ; undefined
     b70:	6772615f 	.inst	0x6772615f ; undefined
     b74:	6e756600 	umax	v0.8h, v16.8h, v21.8h
     b78:	6f697463 	uqshl	v3.2d, v3.2d, #41
     b7c:	6373006e 	.inst	0x6373006e ; undefined
     b80:	6c006f6e 	stnp	d14, d27, [x27]
     b84:	00656e69 	.inst	0x00656e69 ; undefined
     b88:	344c6573 	cbz	w19, 99834 <_start-0x1667cc>
     b8c:	6e6f4e5f 	uqshl	v31.8h, v18.8h, v15.8h
     b90:	68637241 	.inst	0x68637241 ; undefined
     b94:	656a624f 	fnmls	z15.h, p0/m, z18.h, z10.h
     b98:	79547463 	ldrh	w3, [x3, #2618]
     b9c:	6f436570 	sqshlu	v16.2d, v11.2d, #3
     ba0:	00746e75 	.inst	0x00746e75 ; undefined
     ba4:	7263696d 	.inst	0x7263696d ; undefined
     ba8:	74696b6f 	.inst	0x74696b6f ; undefined
     bac:	6762645f 	.inst	0x6762645f ; undefined
     bb0:	7475705f 	.inst	0x7475705f ; undefined
     bb4:	65730073 	fmla	z19.h, p0/m, z3.h, z19.h
     bb8:	495f344c 	.inst	0x495f344c ; undefined
     bbc:	6c61766e 	ldnp	d14, d29, [x19, #-496]
     bc0:	61436469 	.inst	0x61436469 ; undefined
     bc4:	69626170 	ldpsw	x16, x24, [x11, #-240]
     bc8:	7974696c 	ldrh	w12, [x11, #6708]
     bcc:	4d524100 	.inst	0x4d524100 ; undefined
     bd0:	65676150 	fnmls	z16.h, p0/m, z10.h, z7.h
     bd4:	6c626154 	ldnp	d20, d24, [x10, #-480]
     bd8:	70614d65 	adr	x5, c3587 <_start-0x13ca79>
     bdc:	67736d00 	.inst	0x67736d00 ; undefined
     be0:	52410030 	.inst	0x52410030 ; undefined
     be4:	5152494d 	sub	w13, w10, #0x492, lsl #12
     be8:	75737349 	.inst	0x75737349 ; undefined
     bec:	51524965 	sub	w5, w11, #0x492, lsl #12
     bf0:	646e6148 	.inst	0x646e6148 ; undefined
     bf4:	5472656c 	b.gt	e58a0 <_start-0x11a760>
     bf8:	67676972 	.inst	0x67676972 ; undefined
     bfc:	6d007265 	stp	d5, d28, [x19]
     c00:	00326773 	.inst	0x00326773 ; NYI
     c04:	3367736d 	.inst	0x3367736d ; undefined
     c08:	70657200 	adr	x0, cba4b <_start-0x1345b5>
     c0c:	725f796c 	.inst	0x725f796c ; undefined
     c10:	64006765 	.inst	0x64006765 ; undefined
     c14:	68636365 	.inst	0x68636365 ; undefined
     c18:	73007261 	.inst	0x73007261 ; undefined
     c1c:	00727370 	.inst	0x00727370 ; undefined
     c20:	344c6573 	cbz	w19, 998cc <_start-0x166734>
     c24:	766e495f 	.inst	0x766e495f ; undefined
     c28:	64696c61 	.inst	0x64696c61 ; undefined
     c2c:	75677241 	.inst	0x75677241 ; undefined
     c30:	746e656d 	.inst	0x746e656d ; undefined
     c34:	4c657300 	.inst	0x4c657300 ; undefined
     c38:	654d5f34 	fcmgt	p4.h, p7/z, z25.h, z13.h
     c3c:	67617373 	.inst	0x67617373 ; undefined
     c40:	666e4965 	.inst	0x666e4965 ; undefined
     c44:	656e5f6f 	fnmla	z15.h, p7/m, z27.h, z14.h
     c48:	65730077 	fmla	z23.h, p0/m, z3.h, z19.h
     c4c:	535f344c 	.inst	0x535f344c ; undefined
     c50:	424e7379 	.inst	0x424e7379 ; undefined
     c54:	646e6553 	.inst	0x646e6553 ; undefined
     c58:	76636552 	.inst	0x76636552 ; undefined
     c5c:	6d726100 	ldp	d0, d24, [x8, #-224]
     c60:	7379735f 	.inst	0x7379735f ; undefined
     c64:	6e65735f 	uabdl2	v31.4s, v26.8h, v5.8h
     c68:	65725f64 	fnmla	z4.h, p7/m, z27.h, z18.h
     c6c:	73007663 	.inst	0x73007663 ; undefined
     c70:	5f344c65 	.inst	0x5f344c65 ; undefined
     c74:	746e6955 	.inst	0x746e6955 ; undefined
     c78:	73750038 	.inst	0x73750038 ; undefined
     c7c:	61447265 	.inst	0x61447265 ; undefined
     c80:	6d006174 	stp	d20, d24, [x11]
     c84:	70636d65 	adr	x5, c7a33 <_start-0x1385cd>
     c88:	5f5f0079 	.inst	0x5f5f0079 ; undefined
     c8c:	636e7566 	.inst	0x636e7566 ; undefined
     c90:	73005f5f 	.inst	0x73005f5f ; undefined
     c94:	5f344c65 	.inst	0x5f344c65 ; undefined
     c98:	52737953 	.inst	0x52737953 ; undefined
     c9c:	00766365 	.inst	0x00766365 ; undefined
     ca0:	5f74756f 	sqshl	d15, d11, #52
     ca4:	67646162 	.inst	0x67646162 ; undefined
     ca8:	52410065 	.inst	0x52410065 ; undefined
     cac:	6761504d 	.inst	0x6761504d ; undefined
     cb0:	70614d65 	adr	x5, c365f <_start-0x13c9a1>
     cb4:	4c657300 	.inst	0x4c657300 ; undefined
     cb8:	6e555f34 	.inst	0x6e555f34 ; undefined
     cbc:	65707974 	fnmls	z20.h, p6/m, z11.h, z16.h
     cc0:	6a624f64 	bics	w4, w27, w2, lsr #19
     cc4:	00746365 	.inst	0x00746365 ; undefined
     cc8:	344c6573 	cbz	w19, 99974 <_start-0x16668c>
     ccc:	7061435f 	adr	xzr, c3537 <_start-0x13cac9>
     cd0:	6c626154 	ldnp	d20, d24, [x10, #-480]
     cd4:	6a624f65 	bics	w5, w27, w2, lsr #19
     cd8:	00746365 	.inst	0x00746365 ; undefined
     cdc:	6e697270 	uabdl2	v16.4s, v19.8h, v9.8h
     ce0:	63765f74 	.inst	0x63765f74 ; undefined
     ce4:	725f7570 	.inst	0x725f7570 ; undefined
     ce8:	00736765 	.inst	0x00736765 ; undefined
     cec:	7263696d 	.inst	0x7263696d ; undefined
     cf0:	74696b6f 	.inst	0x74696b6f ; undefined
     cf4:	6d616e5f 	ldp	d31, d27, [x18, #-496]
     cf8:	65720065 	fmla	z5.h, p0/m, z3.h, z18.h
     cfc:	76696563 	.inst	0x76696563 ; undefined
     d00:	70654465 	adr	x5, cb58f <_start-0x134a71>
     d04:	73006874 	.inst	0x73006874 ; undefined
     d08:	5f344c65 	.inst	0x5f344c65 ; undefined
     d0c:	44737953 	.inst	0x44737953 ; undefined
     d10:	67756265 	.inst	0x67756265 ; undefined
     d14:	706d7544 	adr	x4, dbbbf <_start-0x124441>
     d18:	65686353 	fnmls	z19.h, p0/m, z26.h, z8.h
     d1c:	656c7564 	fnmls	z4.h, p5/m, z11.h, z12.h
     d20:	65730072 	fmla	z18.h, p0/m, z3.h, z19.h
     d24:	4f5f344c 	srsra	v12.2d, v2.2d, #33
     d28:	63656a62 	.inst	0x63656a62 ; undefined
     d2c:	70795474 	adr	x20, f37bb <_start-0x10c845>
     d30:	696d0065 	ldpsw	x5, x0, [x3, #-152]
     d34:	6b6f7263 	.inst	0x6b6f7263 ; undefined
     d38:	6d5f7469 	ldp	d9, d29, [x3, #496]
     d3c:	6e696773 	umax	v19.8h, v27.8h, v9.8h
     d40:	73006f66 	.inst	0x73006f66 ; undefined
     d44:	5f344c65 	.inst	0x5f344c65 ; undefined
     d48:	656c6544 	fnmls	z4.h, p1/m, z10.h, z12.h
     d4c:	69466574 	ldpsw	x20, x25, [x11, #48]
     d50:	00747372 	.inst	0x00747372 ; undefined
     d54:	74736564 	.inst	0x74736564 ; undefined
     d58:	63696d00 	.inst	0x63696d00 ; undefined
     d5c:	696b6f72 	ldpsw	x18, x27, [x27, #-168]
     d60:	68635f74 	.inst	0x68635f74 ; undefined
     d64:	00646c69 	.inst	0x00646c69 ; undefined
     d68:	344c6573 	cbz	w19, 99a14 <_start-0x1665ec>
     d6c:	7272455f 	.inst	0x7272455f ; undefined
     d70:	7300726f 	.inst	0x7300726f ; undefined
     d74:	5f344c65 	.inst	0x5f344c65 ; undefined
     d78:	55504356 	.inst	0x55504356 ; undefined
     d7c:	5f676552 	.inst	0x5f676552 ; undefined
     d80:	5f524c45 	.inst	0x5f524c45 ; undefined
     d84:	00314c45 	.inst	0x00314c45 ; NYI
     d88:	54494e49 	b.ls	93750 <_start-0x16c8b0>  // b.plast
     d8c:	43455200 	.inst	0x43455200 ; undefined
     d90:	5245564f 	.inst	0x5245564f ; undefined
     d94:	544f4e00 	b.eq	9f754 <_start-0x1608ac>  // b.none
     d98:	4145525f 	.inst	0x4145525f ; undefined
     d9c:	50005944 	adr	x4, 18c6 <_start-0x1fe73a>
     da0:	49545241 	.inst	0x49545241 ; undefined
     da4:	4e4f4954 	.inst	0x4e4f4954 ; undefined
     da8:	4148535f 	.inst	0x4148535f ; undefined
     dac:	5f444552 	.inst	0x5f444552 ; undefined
     db0:	564f0074 	.inst	0x564f0074 ; undefined
     db4:	55525245 	.inst	0x55525245 ; undefined
     db8:	6573004e 	fmla	z14.h, p0/m, z2.h, z19.h
     dbc:	61705f74 	.inst	0x61705f74 ; undefined
     dc0:	74697472 	.inst	0x74697472 ; undefined
     dc4:	5f6e6f69 	.inst	0x5f6e6f69 ; undefined
     dc8:	74617473 	.inst	0x74617473 ; undefined
     dcc:	41500065 	.inst	0x41500065 ; undefined
     dd0:	54495452 	.inst	0x54495452 ; undefined
     dd4:	5f4e4f49 	.inst	0x5f4e4f49 ; undefined
     dd8:	54415453 	.inst	0x54415453 ; undefined
     ddc:	59545f45 	.inst	0x59545f45 ; undefined
     de0:	52004550 	eor	w16, w10, #0x3ffff
     de4:	494e4e55 	.inst	0x494e4e55 ; undefined
     de8:	2e00474e 	.inst	0x2e00474e ; undefined
     dec:	61702f2e 	.inst	0x61702f2e ; undefined
     df0:	74697472 	.inst	0x74697472 ; undefined
     df4:	2e6e6f69 	umin	v9.4h, v27.4h, v14.4h
     df8:	496e0063 	.inst	0x496e0063 ; undefined
     dfc:	636f766e 	.inst	0x636f766e ; undefined
     e00:	6f697461 	uqshl	v1.2d, v3.2d, #41
     e04:	62614c6e 	.inst	0x62614c6e ; undefined
     e08:	00736c65 	.inst	0x00736c65 ; undefined
     e0c:	7263696d 	.inst	0x7263696d ; undefined
     e10:	74696b6f 	.inst	0x74696b6f ; undefined
     e14:	6168635f 	.inst	0x6168635f ; undefined
     e18:	6c656e6e 	ldnp	d14, d27, [x19, #-432]
     e1c:	68635300 	.inst	0x68635300 ; undefined
     e20:	6f436465 	sqshlu	v5.2d, v3.2d, #3
     e24:	7865746e 	.inst	0x7865746e ; undefined
     e28:	65695974 	fnmla	z20.h, p6/m, z11.h, z9.h
     e2c:	6f54646c 	sqshlu	v12.2d, v3.2d, #20
     e30:	4c657300 	.inst	0x4c657300 ; undefined
     e34:	734d5f34 	.inst	0x734d5f34 ; undefined
     e38:	6e654c67 	uqshl	v7.8h, v3.8h, v5.8h
     e3c:	42687467 	.inst	0x42687467 ; undefined
     e40:	00737469 	.inst	0x00737469 ; undefined
     e44:	534d5241 	.inst	0x534d5241 ; undefined
     e48:	6143434d 	.inst	0x6143434d ; undefined
     e4c:	54006c6c 	b.gt	1bd8 <_start-0x1fe428>
     e50:	65534243 	fcmge	p3.h, p0/z, z18.h, z19.h
     e54:	43504974 	.inst	0x43504974 ; undefined
     e58:	66667542 	.inst	0x66667542 ; undefined
     e5c:	41007265 	.inst	0x41007265 ; undefined
     e60:	53564d52 	.inst	0x53564d52 ; undefined
     e64:	65636170 	fnmls	z16.h, p0/m, z11.h, z3.h
     e68:	61656c43 	.inst	0x61656c43 ; undefined
     e6c:	766e496e 	.inst	0x766e496e ; undefined
     e70:	64696c61 	.inst	0x64696c61 ; undefined
     e74:	5f657461 	sqshl	d1, d3, #37
     e78:	61746144 	.inst	0x61746144 ; undefined
     e7c:	6f4e4300 	mls	v0.8h, v24.8h, v14.h[0]
     e80:	6f4d6564 	sqshlu	v4.2d, v11.2d, #13
     e84:	6e006576 	.inst	0x6e006576 ; undefined
     e88:	6669746f 	.inst	0x6669746f ; undefined
     e8c:	00646569 	.inst	0x00646569 ; undefined
     e90:	53424354 	.inst	0x53424354 ; undefined
     e94:	63537465 	.inst	0x63537465 ; undefined
     e98:	50646568 	adr	x8, c9b46 <_start-0x1364ba>
     e9c:	6d617261 	ldp	d1, d28, [x19, #-496]
     ea0:	33700073 	.inst	0x33700073 ; undefined
     ea4:	6174735f 	.inst	0x6174735f ; undefined
     ea8:	49006574 	.inst	0x49006574 ; undefined
     eac:	6c61766e 	ldnp	d14, d29, [x19, #-496]
     eb0:	6e496469 	.inst	0x6e496469 ; undefined
     eb4:	61636f76 	.inst	0x61636f76 ; undefined
     eb8:	6e6f6974 	.inst	0x6e6f6974 ; undefined
     ebc:	4e454c00 	.inst	0x4e454c00 ; undefined
     ec0:	00485447 	.inst	0x00485447 ; undefined
     ec4:	746e6975 	.inst	0x746e6975 ; undefined
     ec8:	745f3233 	.inst	0x745f3233 ; undefined
     ecc:	42435400 	.inst	0x42435400 ; undefined
     ed0:	666e6f43 	.inst	0x666e6f43 ; undefined
     ed4:	72756769 	.inst	0x72756769 ; undefined
     ed8:	696d0065 	ldpsw	x5, x0, [x3, #-152]
     edc:	6b6f7263 	.inst	0x6b6f7263 ; undefined
     ee0:	6e5f7469 	.inst	0x6e5f7469 ; undefined
     ee4:	6669746f 	.inst	0x6669746f ; undefined
     ee8:	31700079 	adds	w25, w3, #0xc00, lsl #12
     eec:	7474615f 	.inst	0x7474615f ; undefined
     ef0:	43540072 	.inst	0x43540072 ; undefined
     ef4:	74655342 	.inst	0x74655342 ; undefined
     ef8:	7250434d 	.inst	0x7250434d ; undefined
     efc:	69726f69 	ldpsw	x9, x27, [x27, #-112]
     f00:	43007974 	.inst	0x43007974 ; undefined
     f04:	65646f4e 	fnmls	z14.h, p3/m, z26.h, z4.h
     f08:	746e694d 	.inst	0x746e694d ; undefined
     f0c:	4d524100 	.inst	0x4d524100 ; undefined
     f10:	61705356 	.inst	0x61705356 ; undefined
     f14:	6c436563 	ldnp	d3, d25, [x11, #48]
     f18:	5f6e6165 	.inst	0x5f6e6165 ; undefined
     f1c:	61746144 	.inst	0x61746144 ; undefined
     f20:	42435400 	.inst	0x42435400 ; undefined
     f24:	64616552 	.inst	0x64616552 ; undefined
     f28:	69676552 	ldpsw	x18, x25, [x10, #-200]
     f2c:	72657473 	.inst	0x72657473 ; undefined
     f30:	65730073 	fmla	z19.h, p0/m, z3.h, z19.h
     f34:	4d5f344c 	.inst	0x4d5f344c ; undefined
     f38:	4f65646f 	.inst	0x4f65646f ; undefined
     f3c:	63656a62 	.inst	0x63656a62 ; undefined
     f40:	70795474 	adr	x20, f39cf <_start-0x10c631>
     f44:	756f4365 	.inst	0x756f4365 ; undefined
     f48:	4300746e 	.inst	0x4300746e ; undefined
     f4c:	65646f4e 	fnmls	z14.h, p3/m, z26.h, z4.h
     f50:	656c6544 	fnmls	z4.h, p1/m, z10.h, z12.h
     f54:	54006574 	.inst	0x54006574 ; undefined
     f58:	65534243 	fcmge	p3.h, p0/z, z18.h, z19.h
     f5c:	6d695474 	ldp	d20, d21, [x3, #-368]
     f60:	74756f65 	.inst	0x74756f65 ; undefined
     f64:	70646e45 	adr	x5, c9d2f <_start-0x1362d1>
     f68:	746e696f 	.inst	0x746e696f ; undefined
     f6c:	4c455200 	.inst	0x4c455200 ; undefined
     f70:	56495441 	.inst	0x56495441 ; undefined
     f74:	54535f45 	b.pl	a7b5c <_start-0x1584a4>  // b.nfrst
     f78:	00545241 	.inst	0x00545241 ; undefined
     f7c:	646f4e43 	.inst	0x646f4e43 ; undefined
     f80:	746f5265 	.inst	0x746f5265 ; undefined
     f84:	00657461 	.inst	0x00657461 ; undefined
     f88:	732f2e2e 	.inst	0x732f2e2e ; undefined
     f8c:	64656863 	.inst	0x64656863 ; undefined
     f90:	72656c75 	.inst	0x72656c75 ; undefined
     f94:	7300632e 	.inst	0x7300632e ; undefined
     f98:	5f344c65 	.inst	0x5f344c65 ; undefined
     f9c:	5f4d5241 	.inst	0x5f4d5241 ; undefined
     fa0:	65677548 	fnmls	z8.h, p5/m, z10.h, z7.h
     fa4:	65676150 	fnmls	z16.h, p0/m, z10.h, z7.h
     fa8:	656a624f 	fnmls	z15.h, p0/m, z18.h, z10.h
     fac:	49007463 	.inst	0x49007463 ; undefined
     fb0:	65535152 	fcmgt	p2.h, p4/z, z10.h, z19.h
     fb4:	51524974 	sub	w20, w11, #0x492, lsl #12
     fb8:	646e6148 	.inst	0x646e6148 ; undefined
     fbc:	0072656c 	.inst	0x0072656c ; undefined
     fc0:	49515249 	.inst	0x49515249 ; undefined
     fc4:	65757373 	fnmls	z19.h, p4/m, z27.h, z21.h
     fc8:	48515249 	ldxrh	w9, [x18]
     fcc:	6c646e61 	ldnp	d1, d27, [x19, #-448]
     fd0:	6e007265 	ext	v5.16b, v19.16b, v0.16b, #14
     fd4:	5f747865 	sqdmlsl	s5, h3, v4.h[7]
     fd8:	74726170 	.inst	0x74726170 ; undefined
     fdc:	6f697469 	uqshl	v9.2d, v3.2d, #41
     fe0:	5241006e 	.inst	0x5241006e ; undefined
     fe4:	7053564d 	adr	x13, a7aaf <_start-0x158551>
     fe8:	55656361 	.inst	0x55656361 ; undefined
     fec:	7966696e 	ldrh	w14, [x11, #4916]
     ff0:	736e495f 	.inst	0x736e495f ; undefined
     ff4:	63757274 	.inst	0x63757274 ; undefined
     ff8:	6e6f6974 	.inst	0x6e6f6974 ; undefined
     ffc:	42435400 	.inst	0x42435400 ; undefined
    1000:	70737553 	adr	x19, e7eab <_start-0x118155>
    1004:	00646e65 	.inst	0x00646e65 ; undefined
    1008:	615f3370 	.inst	0x615f3370 ; undefined
    100c:	00727474 	.inst	0x00727474 ; undefined
    1010:	65686353 	fnmls	z19.h, p0/m, z26.h, z8.h
    1014:	6e6f4364 	raddhn2	v4.8h, v27.4s, v15.4s
    1018:	6c6f7274 	ldnp	d20, d28, [x19, #-272]
    101c:	666e6f43 	.inst	0x666e6f43 ; undefined
    1020:	72756769 	.inst	0x72756769 ; undefined
    1024:	616c4665 	.inst	0x616c4665 ; undefined
    1028:	73007367 	.inst	0x73007367 ; undefined
    102c:	5f344c65 	.inst	0x5f344c65 ; undefined
    1030:	4c67734d 	.inst	0x4c67734d ; undefined
    1034:	74696d69 	.inst	0x74696d69 ; undefined
    1038:	64730073 	fmla	z19.h, z3.h, z3.h[6]
    103c:	745f6664 	.inst	0x745f6664 ; undefined
    1040:	72656d69 	.inst	0x72656d69 ; undefined
    1044:	7465735f 	.inst	0x7465735f ; undefined
    1048:	6d69745f 	ldp	d31, d29, [x2, #-368]
    104c:	74756f65 	.inst	0x74756f65 ; undefined
    1050:	68635300 	.inst	0x68635300 ; undefined
    1054:	6f436465 	sqshlu	v5.2d, v3.2d, #3
    1058:	7865746e 	.inst	0x7865746e ; undefined
    105c:	6e6f4374 	raddhn2	v20.8h, v27.4s, v15.4s
    1060:	656d7573 	fnmls	z19.h, p5/m, z11.h, z13.h
    1064:	65730064 	fmla	z4.h, p0/m, z3.h, z19.h
    1068:	4d5f344c 	.inst	0x4d5f344c ; undefined
    106c:	614d6773 	.inst	0x614d6773 ; undefined
    1070:	6e654c78 	uqshl	v24.8h, v3.8h, v5.8h
    1074:	00687467 	.inst	0x00687467 ; undefined
    1078:	735f3270 	.inst	0x735f3270 ; undefined
    107c:	65746174 	fnmls	z20.h, p0/m, z11.h, z20.h
    1080:	6d726100 	ldp	d0, d24, [x8, #-224]
    1084:	7379735f 	.inst	0x7379735f ; undefined
    1088:	6e65735f 	uabdl2	v31.4s, v26.8h, v5.8h
    108c:	756e5f64 	.inst	0x756e5f64 ; undefined
    1090:	6d006c6c 	stp	d12, d27, [x3]
    1094:	6f726369 	umlsl2	v9.4s, v27.8h, v2.h[3]
    1098:	5f74696b 	.inst	0x5f74696b ; undefined
    109c:	61637070 	.inst	0x61637070 ; undefined
    10a0:	44006c6c 	.inst	0x44006c6c ; undefined
    10a4:	69616d6f 	ldpsw	x15, x27, [x11, #-248]
    10a8:	7465536e 	.inst	0x7465536e ; undefined
    10ac:	00746553 	.inst	0x00746553 ; undefined
    10b0:	646f4e43 	.inst	0x646f4e43 ; undefined
    10b4:	6e614365 	raddhn2	v5.8h, v27.4s, v1.4s
    10b8:	426c6563 	.inst	0x426c6563 ; undefined
    10bc:	65676461 	fnmls	z1.h, p1/m, z3.h, z7.h
    10c0:	6e655364 	uabal2	v4.4s, v27.8h, v5.8h
    10c4:	5f007364 	.inst	0x5f007364 ; undefined
    10c8:	65646f6d 	fnmls	z13.h, p3/m, z27.h, z4.h
    10cc:	6a626f5f 	bics	wzr, w26, w2, lsr #27
    10d0:	00746365 	.inst	0x00746365 ; undefined
    10d4:	344c6573 	cbz	w19, 99d80 <_start-0x166280>
    10d8:	67734d5f 	.inst	0x67734d5f ; undefined
    10dc:	72747845 	.inst	0x72747845 ; undefined
    10e0:	70614361 	adr	x1, c394f <_start-0x13c6b1>
    10e4:	73746942 	.inst	0x73746942 ; undefined
    10e8:	42435400 	.inst	0x42435400 ; undefined
    10ec:	53746553 	.inst	0x53746553 ; undefined
    10f0:	65636170 	fnmls	z16.h, p0/m, z11.h, z3.h
    10f4:	6e697500 	uabd	v0.8h, v8.8h, v9.8h
    10f8:	5f363174 	.inst	0x5f363174 ; undefined
    10fc:	65670074 	fmla	z20.h, p0/m, z3.h, z7.h
    1100:	656e5f74 	fnmla	z20.h, p7/m, z27.h, z14.h
    1104:	705f7478 	adr	x24, bff93 <_start-0x14006d>
    1108:	69747261 	ldpsw	x1, x28, [x19, #-96]
    110c:	6e6f6974 	.inst	0x6e6f6974 ; undefined
    1110:	7864695f 	ldrh	wzr, [x10, x4]
    1114:	72756300 	.inst	0x72756300 ; undefined
    1118:	6e695f72 	uqrshl	v18.8h, v27.8h, v9.8h
    111c:	70007469 	adr	x9, 1fab <_start-0x1fe055>
    1120:	7473696c 	.inst	0x7473696c ; undefined
    1124:	6165685f 	.inst	0x6165685f ; undefined
    1128:	52490064 	.inst	0x52490064 ; undefined
    112c:	656c4351 	fnmla	z17.h, p0/m, z26.h, z12.h
    1130:	52497261 	.inst	0x52497261 ; undefined
    1134:	6e614851 	uqxtn2	v17.8h, v2.4s
    1138:	72656c64 	.inst	0x72656c64 ; undefined
    113c:	42435400 	.inst	0x42435400 ; undefined
    1140:	74697257 	.inst	0x74697257 ; undefined
    1144:	67655265 	.inst	0x67655265 ; undefined
    1148:	65747369 	fnmls	z9.h, p4/m, z27.h, z20.h
    114c:	54007372 	.inst	0x54007372 ; undefined
    1150:	65534243 	fcmge	p3.h, p0/z, z18.h, z19.h
    1154:	69725074 	.inst	0x69725074 ; undefined
    1158:	7469726f 	.inst	0x7469726f ; undefined
    115c:	43540079 	.inst	0x43540079 ; undefined
    1160:	6e694242 	raddhn2	v2.8h, v18.4s, v9.4s
    1164:	746f4e64 	.inst	0x746f4e64 ; undefined
    1168:	63696669 	.inst	0x63696669 ; undefined
    116c:	6f697461 	uqshl	v1.2d, v3.2d, #41
    1170:	4e43006e 	.inst	0x4e43006e ; undefined
    1174:	4d65646f 	.inst	0x4d65646f ; undefined
    1178:	74617475 	.inst	0x74617475 ; undefined
    117c:	65730065 	fmla	z5.h, p0/m, z3.h, z19.h
    1180:	615f346c 	.inst	0x615f346c ; undefined
    1184:	5f686372 	.inst	0x5f686372 ; undefined
    1188:	6f766e69 	.inst	0x6f766e69 ; undefined
    118c:	69746163 	ldpsw	x3, x24, [x11, #-96]
    1190:	6c5f6e6f 	ldnp	d15, d27, [x19, #496]
    1194:	6c656261 	ldnp	d1, d24, [x19, #-432]
    1198:	68635300 	.inst	0x68635300 ; undefined
    119c:	6f436465 	sqshlu	v5.2d, v3.2d, #3
    11a0:	7865746e 	.inst	0x7865746e ; undefined
    11a4:	626e5574 	.inst	0x626e5574 ; undefined
    11a8:	4f646e69 	.inst	0x4f646e69 ; undefined
    11ac:	63656a62 	.inst	0x63656a62 ; undefined
    11b0:	65730074 	fmla	z20.h, p0/m, z3.h, z19.h
    11b4:	435f344c 	.inst	0x435f344c ; undefined
    11b8:	006c6c61 	.inst	0x006c6c61 ; undefined
    11bc:	344c6573 	cbz	w19, 99e68 <_start-0x166198>
    11c0:	6769535f 	.inst	0x6769535f ; undefined
    11c4:	006c616e 	.inst	0x006c616e ; undefined
    11c8:	615f3270 	.inst	0x615f3270 ; undefined
    11cc:	00727474 	.inst	0x00727474 ; undefined
    11d0:	52424354 	.inst	0x52424354 ; undefined
    11d4:	6d757365 	ldp	d5, d28, [x27, #-176]
    11d8:	43540065 	.inst	0x43540065 ; undefined
    11dc:	706f4342 	adr	x2, dfa47 <_start-0x1205b9>
    11e0:	67655279 	.inst	0x67655279 ; undefined
    11e4:	65747369 	fnmls	z9.h, p4/m, z27.h, z20.h
    11e8:	73007372 	.inst	0x73007372 ; undefined
    11ec:	5f344c65 	.inst	0x5f344c65 ; undefined
    11f0:	5f4d5241 	.inst	0x5f4d5241 ; undefined
    11f4:	61705356 	.inst	0x61705356 ; undefined
    11f8:	624f6563 	.inst	0x624f6563 ; undefined
    11fc:	7463656a 	.inst	0x7463656a ; undefined
    1200:	696e6900 	ldpsw	x0, x26, [x8, #-144]
    1204:	65645f74 	fnmla	z20.h, p7/m, z27.h, z4.h
    1208:	6d657263 	ldp	d3, d28, [x19, #-432]
    120c:	00746e65 	.inst	0x00746e65 ; undefined
    1210:	55424354 	.inst	0x55424354 ; undefined
    1214:	6e69626e 	rsubhn2	v14.8h, v19.4s, v9.4s
    1218:	746f4e64 	.inst	0x746f4e64 ; undefined
    121c:	63696669 	.inst	0x63696669 ; undefined
    1220:	6f697461 	uqshl	v1.2d, v3.2d, #41
    1224:	6353006e 	.inst	0x6353006e ; undefined
    1228:	43646568 	.inst	0x43646568 ; undefined
    122c:	65746e6f 	fnmls	z15.h, p3/m, z19.h, z20.h
    1230:	69427478 	ldpsw	x24, x29, [x3, #16]
    1234:	5300646e 	ubfx	w14, w3, #0, #26
    1238:	64656863 	.inst	0x64656863 ; undefined
    123c:	746e6f43 	.inst	0x746e6f43 ; undefined
    1240:	55747865 	.inst	0x55747865 ; undefined
    1244:	6e69626e 	rsubhn2	v14.8h, v19.4s, v9.4s
    1248:	41500064 	.inst	0x41500064 ; undefined
    124c:	54495452 	.inst	0x54495452 ; undefined
    1250:	5f4e4f49 	.inst	0x5f4e4f49 ; undefined
    1254:	52545441 	.inst	0x52545441 ; undefined
    1258:	4900745f 	.inst	0x4900745f ; undefined
    125c:	63415152 	.inst	0x63415152 ; undefined
    1260:	5152496b 	sub	w11, w11, #0x492, lsl #12
    1264:	6f4e4300 	mls	v0.8h, v24.8h, v14.h[0]
    1268:	65526564 	fcmeq	p4.h, p1/z, z11.h, z18.h
    126c:	656b6f76 	fnmls	z22.h, p3/m, z27.h, z11.h
    1270:	72617000 	.inst	0x72617000 ; undefined
    1274:	69746974 	ldpsw	x20, x26, [x11, #-96]
    1278:	735f6e6f 	.inst	0x735f6e6f ; undefined
    127c:	65746174 	fnmls	z20.h, p0/m, z11.h, z20.h
    1280:	73696c5f 	.inst	0x73696c5f ; undefined
    1284:	61700074 	.inst	0x61700074 ; undefined
    1288:	74697472 	.inst	0x74697472 ; undefined
    128c:	5f6e6f69 	.inst	0x5f6e6f69 ; undefined
    1290:	6f666e69 	.inst	0x6f666e69 ; undefined
    1294:	73696c5f 	.inst	0x73696c5f ; undefined
    1298:	31700074 	adds	w20, w3, #0xc00, lsl #12
    129c:	6174735f 	.inst	0x6174735f ; undefined
    12a0:	54006574 	.inst	0x54006574 ; undefined
    12a4:	65534243 	fcmge	p3.h, p0/z, z18.h, z19.h
    12a8:	534c5474 	.inst	0x534c5474 ; undefined
    12ac:	65736142 	fnmls	z2.h, p0/m, z10.h, z19.h
    12b0:	6f4e4300 	mls	v0.8h, v24.8h, v14.h[0]
    12b4:	6f436564 	sqshlu	v4.2d, v11.2d, #3
    12b8:	6e007970 	ext	v16.16b, v11.16b, v0.16b, #15
    12bc:	344c6553 	cbz	w19, 99f64 <_start-0x16609c>
    12c0:	68637241 	.inst	0x68637241 ; undefined
    12c4:	6f766e49 	.inst	0x6f766e49 ; undefined
    12c8:	69746163 	ldpsw	x3, x24, [x11, #-96]
    12cc:	614c6e6f 	.inst	0x614c6e6f ; undefined
    12d0:	736c6562 	.inst	0x736c6562 ; undefined
    12d4:	746e5500 	.inst	0x746e5500 ; undefined
    12d8:	64657079 	.inst	0x64657079 ; undefined
    12dc:	79746552 	ldrh	w18, [x10, #6706]
    12e0:	41006570 	.inst	0x41006570 ; undefined
    12e4:	53564d52 	.inst	0x53564d52 ; undefined
    12e8:	65636170 	fnmls	z16.h, p0/m, z11.h, z3.h
    12ec:	61766e49 	.inst	0x61766e49 ; undefined
    12f0:	6164696c 	.inst	0x6164696c ; undefined
    12f4:	445f6574 	.inst	0x445f6574 ; undefined
    12f8:	00617461 	.inst	0x00617461 ; undefined
    12fc:	6c706572 	ldnp	d18, d25, [x11, #-256]
    1300:	736d5f79 	.inst	0x736d5f79 ; undefined
    1304:	666e6967 	.inst	0x666e6967 ; undefined
    1308:	7261006f 	.inst	0x7261006f ; undefined
    130c:	79735f6d 	ldrh	w13, [x27, #6574]
    1310:	626e5f73 	.inst	0x626e5f73 ; undefined
    1314:	646e6573 	.inst	0x646e6573 ; undefined
    1318:	6365725f 	.inst	0x6365725f ; undefined
    131c:	5f5f0076 	.inst	0x5f5f0076 ; undefined
    1320:	74696e69 	.inst	0x74696e69 ; undefined
    1324:	7272615f 	.inst	0x7272615f ; undefined
    1328:	655f7961 	fcmeq	p1.h, p6/z, z11.h, z31.h
    132c:	6900646e 	.inst	0x6900646e ; undefined
    1330:	61665f73 	.inst	0x61665f73 ; undefined
    1334:	00746c75 	.inst	0x00746c75 ; undefined
    1338:	5f6e7572 	sqshl	d18, d11, #46
    133c:	74696e69 	.inst	0x74696e69 ; undefined
    1340:	6e75665f 	umax	v31.8h, v18.8h, v21.8h
    1344:	73007363 	.inst	0x73007363 ; undefined
    1348:	5f344c65 	.inst	0x5f344c65 ; undefined
    134c:	6c706552 	ldnp	d18, d25, [x10, #-256]
    1350:	63655279 	.inst	0x63655279 ; undefined
    1354:	696d0076 	ldpsw	x22, x0, [x3, #-152]
    1358:	6b6f7263 	.inst	0x6b6f7263 ; undefined
    135c:	705f7469 	adr	x9, c01eb <_start-0x13fe15>
    1360:	69737361 	ldpsw	x1, x28, [x27, #-104]
    1364:	6d006576 	stp	d22, d25, [x11]
    1368:	6f726369 	umlsl2	v9.4s, v27.8h, v2.h[3]
    136c:	5f74696b 	.inst	0x5f74696b ; undefined
    1370:	6e676973 	.inst	0x6e676973 ; undefined
    1374:	635f6c61 	.inst	0x635f6c61 ; undefined
    1378:	73007061 	.inst	0x73007061 ; undefined
    137c:	5f344c65 	.inst	0x5f344c65 ; undefined
    1380:	76636552 	.inst	0x76636552 ; undefined
    1384:	70657200 	adr	x0, cc1c7 <_start-0x133e39>
    1388:	745f796c 	.inst	0x745f796c ; undefined
    138c:	5f006761 	.inst	0x5f006761 ; undefined
    1390:	696e695f 	ldpsw	xzr, x26, [x10, #-144]
    1394:	72615f74 	.inst	0x72615f74 ; undefined
    1398:	5f796172 	.inst	0x5f796172 ; undefined
    139c:	72617473 	.inst	0x72617473 ; undefined
    13a0:	696d0074 	ldpsw	x20, x0, [x3, #-152]
    13a4:	6b6f7263 	.inst	0x6b6f7263 ; undefined
    13a8:	735f7469 	.inst	0x735f7469 ; undefined
    13ac:	616e6769 	.inst	0x616e6769 ; undefined
    13b0:	736d5f6c 	.inst	0x736d5f6c ; undefined
    13b4:	65730067 	fmla	z7.h, p0/m, z3.h, z19.h
    13b8:	4e5f344c 	fmax	v12.8h, v2.8h, v31.8h
    13bc:	6e655342 	uabal2	v2.4s, v26.8h, v5.8h
    13c0:	63655264 	.inst	0x63655264 ; undefined
    13c4:	61680076 	.inst	0x61680076 ; undefined
    13c8:	725f6576 	.inst	0x725f6576 ; undefined
    13cc:	796c7065 	ldrh	w5, [x3, #5688]
    13d0:	735f5f00 	.inst	0x735f5f00 ; undefined
    13d4:	5f346c65 	.inst	0x5f346c65 ; undefined
    13d8:	5f637069 	sqdmlsl	s9, h3, v3.h[2]
    13dc:	66667562 	.inst	0x66667562 ; undefined
    13e0:	6f5f7265 	.inst	0x6f5f7265 ; undefined
    13e4:	73006a62 	.inst	0x73006a62 ; undefined
    13e8:	65646e65 	fnmls	z5.h, p3/m, z19.h, z4.h
    13ec:	73690072 	.inst	0x73690072 ; undefined
    13f0:	646e655f 	.inst	0x646e655f ; undefined
    13f4:	6e696f70 	umin	v16.8h, v27.8h, v9.8h
    13f8:	72610074 	.inst	0x72610074 ; undefined
    13fc:	79735f6d 	ldrh	w13, [x27, #6574]
    1400:	65725f73 	fnmla	z19.h, p7/m, z27.h, z18.h
    1404:	6d007663 	stp	d3, d29, [x19]
    1408:	6f726369 	umlsl2	v9.4s, v27.8h, v2.h[3]
    140c:	5f74696b 	.inst	0x5f74696b ; undefined
    1410:	65766168 	fnmls	z8.h, p0/m, z11.h, z22.h
    1414:	6769735f 	.inst	0x6769735f ; undefined
    1418:	006c616e 	.inst	0x006c616e ; undefined
    141c:	646e6168 	.inst	0x646e6168 ; undefined
    1420:	5f72656c 	.inst	0x5f72656c ; undefined
    1424:	706f6f6c 	adr	x12, e0213 <_start-0x11fded>
    1428:	554e4700 	.inst	0x554e4700 ; undefined
    142c:	31314320 	adds	w0, w25, #0xc50
    1430:	2e323120 	usubw	v0.8h, v9.8h, v18.8b
    1434:	20312e32 	.inst	0x20312e32 ; undefined
    1438:	32323032 	orr	w18, w1, #0x7ffc000
    143c:	35303231 	cbnz	w17, 61a80 <_start-0x19e580>
    1440:	636d2d20 	.inst	0x636d2d20 ; undefined
    1444:	633d7570 	.inst	0x633d7570 ; undefined
    1448:	6574726f 	fnmls	z15.h, p4/m, z19.h, z20.h
    144c:	35612d78 	cbnz	w24, c39f8 <_start-0x13c608>
    1450:	6d2d2033 	stp	d19, d8, [x1, #-304]
    1454:	7474696c 	.inst	0x7474696c ; undefined
    1458:	652d656c 	.inst	0x652d656c ; undefined
    145c:	6169646e 	.inst	0x6169646e ; undefined
    1460:	6d2d206e 	stp	d14, d8, [x3, #-304]
    1464:	3d696261 	ldr	b1, [x19, #2648]
    1468:	3436706c 	cbz	w12, 6e274 <_start-0x191d8c>
    146c:	20672d20 	.inst	0x20672d20 ; undefined
    1470:	20334f2d 	.inst	0x20334f2d ; undefined
    1474:	6474732d 	.inst	0x6474732d ; undefined
    1478:	756e673d 	.inst	0x756e673d ; undefined
    147c:	2d203131 	stp	s17, s12, [x9, #-256]
    1480:	65726666 	fnmls	z6.h, p1/m, z19.h, z18.h
    1484:	61747365 	.inst	0x61747365 ; undefined
    1488:	6e69646e 	umax	v14.8h, v3.8h, v9.8h
    148c:	65730067 	fmla	z7.h, p0/m, z3.h, z19.h
    1490:	495f344c 	.inst	0x495f344c ; undefined
    1494:	0038746e 	.inst	0x0038746e ; NYI
    1498:	344c6573 	cbz	w19, 9a144 <_start-0x165ebc>
    149c:	6f6f425f 	mls	v31.8h, v18.8h, v15.h[2]
    14a0:	616d006c 	.inst	0x616d006c ; undefined
    14a4:	73006e69 	.inst	0x73006e69 ; undefined
    14a8:	615f6372 	.inst	0x615f6372 ; undefined
    14ac:	625f646e 	.inst	0x625f646e ; undefined
    14b0:	65676461 	fnmls	z1.h, p1/m, z3.h, z7.h
    14b4:	73656400 	.inst	0x73656400 ; undefined
    14b8:	65725f74 	fnmla	z20.h, p7/m, z27.h, z18.h
    14bc:	72700067 	.inst	0x72700067 ; undefined
    14c0:	6365746f 	.inst	0x6365746f ; undefined
    14c4:	00646574 	.inst	0x00646574 ; undefined
    14c8:	2f637273 	fcmla	v19.4h, v19.4h, v3.h[1], #270
    14cc:	63726161 	.inst	0x63726161 ; undefined
    14d0:	2f343668 	ursra	v8.2s, v19.2s, #12
    14d4:	30747263 	adr	x3, ea321 <_start-0x115cdf>
    14d8:	2f00732e 	.inst	0x2f00732e ; undefined
    14dc:	72657355 	.inst	0x72657355 ; undefined
    14e0:	75722f73 	.inst	0x75722f73 ; undefined
    14e4:	72656e6e 	.inst	0x72656e6e ; undefined
    14e8:	726f772f 	.inst	0x726f772f ; undefined
    14ec:	696d2f6b 	.inst	0x696d2f6b ; undefined
    14f0:	6b6f7263 	.inst	0x6b6f7263 ; undefined
    14f4:	6d2f7469 	stp	d9, d29, [x3, #-272]
    14f8:	6f726369 	umlsl2	v9.4s, v27.8h, v2.h[3]
    14fc:	2f74696b 	umlsl	v11.4s, v11.4h, v4.h[7]
    1500:	6d62696c 	ldp	d12, d26, [x11, #-480]
    1504:	6f726369 	umlsl2	v9.4s, v27.8h, v2.h[3]
    1508:	0074696b 	.inst	0x0074696b ; undefined
    150c:	20554e47 	.inst	0x20554e47 ; undefined
    1510:	32205341 	orr	w1, w26, #0x1fffff
    1514:	2e39332e 	usubw	v14.8h, v25.8h, v25.8b
    1518:	65730030 	fmla	z16.h, p0/m, z1.h, z19.h
    151c:	445f344c 	.inst	0x445f344c ; undefined
    1520:	67756265 	.inst	0x67756265 ; undefined
    1524:	43747550 	.inst	0x43747550 ; undefined
    1528:	00726168 	.inst	0x00726168 ; undefined
    152c:	73756e75 	.inst	0x73756e75 ; undefined
    1530:	00306465 	.inst	0x00306465 ; NYI
    1534:	73756e75 	.inst	0x73756e75 ; undefined
    1538:	00316465 	.inst	0x00316465 ; NYI
    153c:	73756e75 	.inst	0x73756e75 ; undefined
    1540:	00326465 	.inst	0x00326465 ; NYI
    1544:	73756e75 	.inst	0x73756e75 ; undefined
    1548:	00336465 	.inst	0x00336465 ; NYI
    154c:	73756e75 	.inst	0x73756e75 ; undefined
    1550:	00346465 	.inst	0x00346465 ; NYI
    1554:	73756e75 	.inst	0x73756e75 ; undefined
    1558:	00356465 	.inst	0x00356465 ; NYI

Disassembly of section .comment:

0000000000000000 <.comment>:
   0:	3a434347 	ccmn	w26, w3, #0x7, mi  // mi = first
   4:	4e472820 	trn1	v0.8h, v1.8h, v7.8h
   8:	31202955 	adds	w21, w10, #0x80a
   c:	2e332e33 	uqsub	v19.8b, v17.8b, v19.8b
  10:	43470030 	.inst	0x43470030 ; undefined
  14:	28203a43 	stnp	w3, w14, [x18, #-256]
  18:	206d7241 	.inst	0x206d7241 ; undefined
  1c:	20554e47 	.inst	0x20554e47 ; undefined
  20:	6c6f6f54 	ldnp	d20, d27, [x26, #-272]
  24:	69616863 	ldpsw	x3, x26, [x3, #-248]
  28:	3231206e 	orr	w14, w3, #0xff8000
  2c:	522e322e 	eor	w14, w17, #0x7ffc0000
  30:	20316c65 	.inst	0x20316c65 ; undefined
  34:	69754228 	ldpsw	x8, x16, [x17, #-88]
  38:	6120646c 	.inst	0x6120646c ; undefined
  3c:	312d6d72 	adds	w18, w11, #0xb5b
  40:	34322e32 	cbz	w18, 64604 <_start-0x19b9fc>
  44:	31202929 	adds	w9, w9, #0x80a
  48:	2e322e32 	uqsub	v18.8b, v17.8b, v18.8b
  4c:	30322031 	adr	x17, 64451 <_start-0x19bbaf>
  50:	32313232 	orr	w18, w17, #0xfff8000
  54:	Address 0x0000000000000054 is out of bounds.


Disassembly of section .debug_loclists:

0000000000000000 <.debug_loclists>:
       0:	00000786 	.inst	0x00000786 ; undefined
       4:	00080005 	.inst	0x00080005 ; undefined
	...
      10:	203f6406 	.inst	0x203f6406 ; undefined
      14:	00000000 	.inst	0x00000000 ; undefined
      18:	08000400 	stxrb	w0, w0, [x0]
      1c:	33008505 	.inst	0x33008505 ; undefined
      20:	08049f26 	stlxrb	w4, w6, [x25]
      24:	00650120 	.inst	0x00650120 ; undefined
      28:	00000003 	.inst	0x00000003 ; undefined
      2c:	00010100 	.inst	0x00010100 ; undefined
      30:	203f6406 	.inst	0x203f6406 ; undefined
      34:	00000000 	.inst	0x00000000 ; undefined
      38:	0c000400 	st4	{v0.4h-v3.4h}, [x0]
      3c:	049f3002 	.inst	0x049f3002 ; undefined
      40:	6301140c 	.inst	0x6301140c ; undefined
      44:	03181404 	.inst	0x03181404 ; undefined
      48:	049f7f83 	mls	z3.s, p7/m, z28.s, z31.s
      4c:	63012018 	.inst	0x63012018 ; undefined
      50:	00000000 	.inst	0x00000000 ; undefined
      54:	01010700 	.inst	0x01010700 ; undefined
      58:	06000007 	.inst	0x06000007 ; undefined
      5c:	00203fb8 	.inst	0x00203fb8 ; NYI
      60:	00000000 	.inst	0x00000000 ; undefined
      64:	01040004 	.inst	0x01040004 ; undefined
      68:	1c040450 	ldr	s16, 80f0 <_start-0x1f7f10>
      6c:	049f3002 	.inst	0x049f3002 ; undefined
      70:	3002382c 	adr	x12, 4775 <_start-0x1fb88b>
      74:	4438049f 	.inst	0x4438049f ; undefined
      78:	049f3102 	.inst	0x049f3102 ; undefined
      7c:	0201dc68 	.inst	0x0201dc68 ; undefined
      80:	02009f30 	.inst	0x02009f30 ; undefined
	...
      8c:	02000000 	.inst	0x02000000 ; undefined
      90:	3fe40600 	.inst	0x3fe40600 ; undefined
      94:	00000020 	.inst	0x00000020 ; undefined
      98:	00040000 	.inst	0x00040000 ; undefined
      9c:	04500110 	mul	z16.h, p0/m, z16.h, z8.h
      a0:	63011810 	.inst	0x63011810 ; undefined
      a4:	01403c04 	.inst	0x01403c04 ; undefined
      a8:	60400450 	.inst	0x60400450 ; undefined
      ac:	60046301 	.inst	0x60046301 ; undefined
      b0:	04500164 	mul	z4.h, p0/m, z4.h, z11.h
      b4:	63017864 	.inst	0x63017864 ; undefined
      b8:	b001ac04 	adrp	x4, 3581000 <__sel4_ipc_buffer_obj+0x337a000>
      bc:	00500101 	.inst	0x00500101 ; undefined
      c0:	07000005 	.inst	0x07000005 ; undefined
      c4:	00000000 	.inst	0x00000000 ; undefined
      c8:	e4060000 	.inst	0xe4060000 ; undefined
      cc:	0000203f 	.inst	0x0000203f ; undefined
      d0:	04000000 	add	z0.b, p0/m, z0.b, z0.b
      d4:	70061000 	adr	x0, c2d7 <_start-0x1f3d29>
      d8:	253f0800 	.inst	0x253f0800 ; undefined
      dc:	1810049f 	ldr	wzr, 2016c <_start-0x1dfe94>
      e0:	08008306 	stlxrb	w0, w6, [x24]
      e4:	049f253f 	.inst	0x049f253f ; undefined
      e8:	7006403c 	adr	x28, c8ef <_start-0x1f3711>
      ec:	253f0800 	.inst	0x253f0800 ; undefined
      f0:	6460049f 	fmls	z31.h, z4.h, z0.h[4]
      f4:	08007006 	stxrb	w0, w6, [x0]
      f8:	049f253f 	.inst	0x049f253f ; undefined
      fc:	83067864 	.inst	0x83067864 ; undefined
     100:	253f0800 	.inst	0x253f0800 ; undefined
     104:	0006009f 	.inst	0x0006009f ; undefined
     108:	00000700 	.inst	0x00000700 ; undefined
     10c:	00000000 	.inst	0x00000000 ; undefined
     110:	203fe406 	.inst	0x203fe406 ; undefined
     114:	00000000 	.inst	0x00000000 ; undefined
     118:	10000400 	adr	x0, 198 <_start-0x1ffe68>
     11c:	08007008 	stxrb	w0, w8, [x0]
     120:	1a31253e 	.inst	0x1a31253e ; undefined
     124:	1810049f 	ldr	wzr, 201b4 <_start-0x1dfe4c>
     128:	08008308 	stlxrb	w0, w8, [x24]
     12c:	1a31253e 	.inst	0x1a31253e ; undefined
     130:	403c049f 	.inst	0x403c049f ; undefined
     134:	08007008 	stxrb	w0, w8, [x0]
     138:	1a31253e 	.inst	0x1a31253e ; undefined
     13c:	6460049f 	fmls	z31.h, z4.h, z0.h[4]
     140:	08007008 	stxrb	w0, w8, [x0]
     144:	1a31253e 	.inst	0x1a31253e ; undefined
     148:	7864049f 	.inst	0x7864049f ; undefined
     14c:	08008308 	stlxrb	w0, w8, [x24]
     150:	1a31253e 	.inst	0x1a31253e ; undefined
     154:	0001009f 	.inst	0x0001009f ; undefined
     158:	203fc408 	.inst	0x203fc408 ; undefined
     15c:	00000000 	.inst	0x00000000 ; undefined
     160:	34021000 	cbz	w0, 4360 <_start-0x1fbca0>
     164:	0001009f 	.inst	0x0001009f ; undefined
     168:	203fc408 	.inst	0x203fc408 ; undefined
     16c:	00000000 	.inst	0x00000000 ; undefined
     170:	a0061000 	.inst	0xa0061000 ; undefined
     174:	00003248 	.inst	0x00003248 ; undefined
     178:	00010000 	.inst	0x00010000 ; undefined
     17c:	203fc408 	.inst	0x203fc408 ; undefined
     180:	00000000 	.inst	0x00000000 ; undefined
     184:	31021000 	adds	w0, w0, #0x84
     188:	0300009f 	.inst	0x0300009f ; undefined
     18c:	203fdc08 	.inst	0x203fdc08 ; undefined
     190:	00000000 	.inst	0x00000000 ; undefined
     194:	50010800 	adr	x0, 2296 <_start-0x1fdd6a>
     198:	08030200 	stxrb	w3, w0, [x16]
     19c:	00203fdc 	.inst	0x00203fdc ; NYI
     1a0:	00000000 	.inst	0x00000000 ; undefined
     1a4:	00520108 	.inst	0x00520108 ; undefined
     1a8:	dc080303 	.inst	0xdc080303 ; undefined
     1ac:	0000203f 	.inst	0x0000203f ; undefined
     1b0:	08000000 	stxrb	w0, w0, [x0]
     1b4:	04005301 	mla	z1.b, p4/m, z24.b, z0.b
     1b8:	3fdc0803 	.inst	0x3fdc0803 ; undefined
     1bc:	00000020 	.inst	0x00000020 ; undefined
     1c0:	01080000 	.inst	0x01080000 ; undefined
     1c4:	03050054 	.inst	0x03050054 ; undefined
     1c8:	203fdc08 	.inst	0x203fdc08 ; undefined
     1cc:	00000000 	.inst	0x00000000 ; undefined
     1d0:	55010800 	.inst	0x55010800 ; undefined
     1d4:	08000900 	stxrb	w0, w0, [x8]
     1d8:	00203fc4 	.inst	0x00203fc4 ; NYI
     1dc:	00000000 	.inst	0x00000000 ; undefined
     1e0:	9f340210 	.inst	0x9f340210 ; undefined
     1e4:	08000900 	stxrb	w0, w0, [x8]
     1e8:	00203fc4 	.inst	0x00203fc4 ; NYI
     1ec:	00000000 	.inst	0x00000000 ; undefined
     1f0:	fba00610 	.inst	0xfba00610 ; undefined
     1f4:	00000032 	.inst	0x00000032 ; undefined
     1f8:	08000900 	stxrb	w0, w0, [x8]
     1fc:	00203fc4 	.inst	0x00203fc4 ; NYI
     200:	00000000 	.inst	0x00000000 ; undefined
     204:	eea00610 	.inst	0xeea00610 ; undefined
     208:	00000032 	.inst	0x00000032 ; undefined
     20c:	08000900 	stxrb	w0, w0, [x8]
     210:	00203fc4 	.inst	0x00203fc4 ; NYI
     214:	00000000 	.inst	0x00000000 ; undefined
     218:	e1a00610 	.inst	0xe1a00610 ; undefined
     21c:	00000032 	.inst	0x00000032 ; undefined
     220:	08000900 	stxrb	w0, w0, [x8]
     224:	00203fc4 	.inst	0x00203fc4 ; NYI
     228:	00000000 	.inst	0x00000000 ; undefined
     22c:	d4a00610 	.inst	0xd4a00610 ; undefined
     230:	00000032 	.inst	0x00000032 ; undefined
     234:	08000900 	stxrb	w0, w0, [x8]
     238:	00203fc4 	.inst	0x00203fc4 ; NYI
     23c:	00000000 	.inst	0x00000000 ; undefined
     240:	c2a00610 	.inst	0xc2a00610 ; undefined
     244:	00000032 	.inst	0x00000032 ; undefined
     248:	08000900 	stxrb	w0, w0, [x8]
     24c:	00203fc4 	.inst	0x00203fc4 ; NYI
     250:	00000000 	.inst	0x00000000 ; undefined
     254:	c7a00610 	.inst	0xc7a00610 ; undefined
     258:	00000032 	.inst	0x00000032 ; undefined
     25c:	08000900 	stxrb	w0, w0, [x8]
     260:	00203fc4 	.inst	0x00203fc4 ; NYI
     264:	00000000 	.inst	0x00000000 ; undefined
     268:	9f310210 	.inst	0x9f310210 ; undefined
     26c:	08000900 	stxrb	w0, w0, [x8]
     270:	00203fc4 	.inst	0x00203fc4 ; NYI
     274:	00000000 	.inst	0x00000000 ; undefined
     278:	f9090310 	str	x16, [x24, #4608]
     27c:	0307009f 	.inst	0x0307009f ; undefined
     280:	203fdc08 	.inst	0x203fdc08 ; undefined
     284:	00000000 	.inst	0x00000000 ; undefined
     288:	52010800 	eor	w0, w0, #0x80000003
     28c:	08030700 	stxrb	w3, w0, [x24]
     290:	00203fdc 	.inst	0x00203fdc ; NYI
     294:	00000000 	.inst	0x00000000 ; undefined
     298:	9f300208 	.inst	0x9f300208 ; undefined
     29c:	08030100 	stxrb	w3, w0, [x8]
     2a0:	00203fe0 	.inst	0x00203fe0 ; NYI
     2a4:	00000000 	.inst	0x00000000 ; undefined
     2a8:	00540104 	.inst	0x00540104 ; undefined
     2ac:	e0080301 	.inst	0xe0080301 ; undefined
     2b0:	0000203f 	.inst	0x0000203f ; undefined
     2b4:	04000000 	add	z0.b, p0/m, z0.b, z0.b
     2b8:	009f3202 	.inst	0x009f3202 ; undefined
     2bc:	20080000 	.inst	0x20080000 ; undefined
     2c0:	00002040 	.inst	0x00002040 ; undefined
     2c4:	24000000 	cmphs	p0.b, p0/z, z0.b, z0.b
     2c8:	09006401 	.inst	0x09006401 ; undefined
     2cc:	3ffc0800 	.inst	0x3ffc0800 ; undefined
     2d0:	00000020 	.inst	0x00000020 ; undefined
     2d4:	02240000 	.inst	0x02240000 ; undefined
     2d8:	09009f31 	.inst	0x09009f31 ; undefined
     2dc:	3ffc0800 	.inst	0x3ffc0800 ; undefined
     2e0:	00000020 	.inst	0x00000020 ; undefined
     2e4:	02240000 	.inst	0x02240000 ; undefined
     2e8:	08009f34 	stlxrb	w0, w20, [x25]
     2ec:	3ffc0800 	.inst	0x3ffc0800 ; undefined
     2f0:	00000020 	.inst	0x00000020 ; undefined
     2f4:	06240000 	.inst	0x06240000 ; undefined
     2f8:	003248a0 	.inst	0x003248a0 ; NYI
     2fc:	08000000 	stxrb	w0, w0, [x0]
     300:	3ffc0800 	.inst	0x3ffc0800 ; undefined
     304:	00000020 	.inst	0x00000020 ; undefined
     308:	04240000 	add	z0.b, z0.b, z4.b
     30c:	08937891 	stllrb	w17, [x4]
     310:	00000000 	.inst	0x00000000 ; undefined
     314:	06000000 	.inst	0x06000000 ; undefined
     318:	00204000 	.inst	0x00204000 ; NYI
     31c:	00000000 	.inst	0x00000000 ; undefined
     320:	02180004 	.inst	0x02180004 ; undefined
     324:	18040875 	ldr	w21, 8430 <_start-0x1f7bd0>
     328:	0452011c 	smulh	z28.h, p0/m, z28.h, z8.h
     32c:	030c201c 	.inst	0x030c201c ; undefined
     330:	00206008 	.inst	0x00206008 ; NYI
     334:	00000000 	.inst	0x00000000 ; undefined
     338:	00082306 	.inst	0x00082306 ; undefined
     33c:	00000004 	.inst	0x00000004 ; undefined
     340:	00060000 	.inst	0x00060000 ; undefined
     344:	00002040 	.inst	0x00002040 ; undefined
     348:	04000000 	add	z0.b, p0/m, z0.b, z0.b
     34c:	75021800 	.inst	0x75021800 ; undefined
     350:	1c180410 	ldr	s16, 303d0 <_start-0x1cfc30>
     354:	1c045301 	ldr	s1, 8db4 <_start-0x1f724c>
     358:	08030c20 	stxrb	w3, w0, [x1]
     35c:	00002060 	.inst	0x00002060 ; undefined
     360:	06000000 	.inst	0x06000000 ; undefined
     364:	08001023 	stxrb	w0, w3, [x1]
     368:	06000000 	.inst	0x06000000 ; undefined
     36c:	00204000 	.inst	0x00204000 ; NYI
     370:	00000000 	.inst	0x00000000 ; undefined
     374:	02180004 	.inst	0x02180004 ; undefined
     378:	18041875 	ldr	w21, 8684 <_start-0x1f797c>
     37c:	08030c20 	stxrb	w3, w0, [x1]
     380:	00002060 	.inst	0x00002060 ; undefined
     384:	06000000 	.inst	0x06000000 ; undefined
     388:	0c001823 	.inst	0x0c001823 ; undefined
     38c:	00000000 	.inst	0x00000000 ; undefined
     390:	40000600 	.inst	0x40000600 ; undefined
     394:	00000020 	.inst	0x00000020 ; undefined
     398:	00040000 	.inst	0x00040000 ; undefined
     39c:	20750218 	.inst	0x20750218 ; undefined
     3a0:	011c1804 	.inst	0x011c1804 ; undefined
     3a4:	201c0455 	.inst	0x201c0455 ; undefined
     3a8:	6008030c 	.inst	0x6008030c ; undefined
     3ac:	00000020 	.inst	0x00000020 ; undefined
     3b0:	23060000 	.inst	0x23060000 ; undefined
     3b4:	14100020 	b	400434 <__sel4_ipc_buffer_obj+0x1f9434>
     3b8:	203ffc08 	.inst	0x203ffc08 ; undefined
     3bc:	00000000 	.inst	0x00000000 ; undefined
     3c0:	30020000 	adr	x0, 43c1 <_start-0x1fbc3f>
     3c4:	0402009f 	.inst	0x0402009f ; undefined
     3c8:	20400008 	.inst	0x20400008 ; undefined
     3cc:	00000000 	.inst	0x00000000 ; undefined
     3d0:	31020000 	adds	w0, w0, #0x80
     3d4:	0806009f 	stxrb	w6, wzr, [x4]
     3d8:	20400008 	.inst	0x20400008 ; undefined
     3dc:	00000000 	.inst	0x00000000 ; undefined
     3e0:	32020000 	orr	w0, w0, #0x40000000
     3e4:	0c0a009f 	.inst	0x0c0a009f ; undefined
     3e8:	20400008 	.inst	0x20400008 ; undefined
     3ec:	00000000 	.inst	0x00000000 ; undefined
     3f0:	33020000 	bfi	w0, w0, #30, #1
     3f4:	000e009f 	.inst	0x000e009f ; undefined
     3f8:	20400008 	.inst	0x20400008 ; undefined
     3fc:	00000000 	.inst	0x00000000 ; undefined
     400:	34022000 	cbz	w0, 4800 <_start-0x1fb800>
     404:	000e009f 	.inst	0x000e009f ; undefined
     408:	20400008 	.inst	0x20400008 ; undefined
     40c:	00000000 	.inst	0x00000000 ; undefined
     410:	a0062000 	.inst	0xa0062000 ; undefined
     414:	0000355e 	.inst	0x0000355e ; undefined
     418:	000e0000 	.inst	0x000e0000 ; undefined
     41c:	20400008 	.inst	0x20400008 ; undefined
     420:	00000000 	.inst	0x00000000 ; undefined
     424:	a0062000 	.inst	0xa0062000 ; undefined
     428:	00003551 	.inst	0x00003551 ; undefined
     42c:	000e0000 	.inst	0x000e0000 ; undefined
     430:	20400008 	.inst	0x20400008 ; undefined
     434:	00000000 	.inst	0x00000000 ; undefined
     438:	a0062000 	.inst	0xa0062000 ; undefined
     43c:	00003544 	.inst	0x00003544 ; undefined
     440:	000e0000 	.inst	0x000e0000 ; undefined
     444:	20400008 	.inst	0x20400008 ; undefined
     448:	00000000 	.inst	0x00000000 ; undefined
     44c:	a0062000 	.inst	0xa0062000 ; undefined
     450:	00003537 	.inst	0x00003537 ; undefined
     454:	000e0000 	.inst	0x000e0000 ; undefined
     458:	20400008 	.inst	0x20400008 ; undefined
     45c:	00000000 	.inst	0x00000000 ; undefined
     460:	a0062000 	.inst	0xa0062000 ; undefined
     464:	0000352d 	.inst	0x0000352d ; undefined
     468:	000e0000 	.inst	0x000e0000 ; undefined
     46c:	20400008 	.inst	0x20400008 ; undefined
     470:	00000000 	.inst	0x00000000 ; undefined
     474:	91022000 	add	x0, x0, #0x88
     478:	000e0078 	.inst	0x000e0078 ; undefined
     47c:	20400008 	.inst	0x20400008 ; undefined
     480:	00000000 	.inst	0x00000000 ; undefined
     484:	a0062000 	.inst	0xa0062000 ; undefined
     488:	00003532 	.inst	0x00003532 ; undefined
     48c:	000e0000 	.inst	0x000e0000 ; undefined
     490:	20400008 	.inst	0x20400008 ; undefined
     494:	00000000 	.inst	0x00000000 ; undefined
     498:	31022000 	adds	w0, w0, #0x88
     49c:	000e009f 	.inst	0x000e009f ; undefined
     4a0:	20400008 	.inst	0x20400008 ; undefined
     4a4:	00000000 	.inst	0x00000000 ; undefined
     4a8:	09032000 	.inst	0x09032000 ; undefined
     4ac:	00009ffe 	.inst	0x00009ffe ; undefined
     4b0:	40500800 	.inst	0x40500800 ; undefined
     4b4:	00000020 	.inst	0x00000020 ; undefined
     4b8:	01080000 	.inst	0x01080000 ; undefined
     4bc:	03030050 	.inst	0x03030050 ; undefined
     4c0:	20405c08 	.inst	0x20405c08 ; undefined
     4c4:	00000000 	.inst	0x00000000 ; undefined
     4c8:	31023400 	adds	w0, w0, #0x8d
     4cc:	0303009f 	.inst	0x0303009f ; undefined
     4d0:	20405c08 	.inst	0x20405c08 ; undefined
     4d4:	00000000 	.inst	0x00000000 ; undefined
     4d8:	34023400 	cbz	w0, 4b58 <_start-0x1fb4a8>
     4dc:	0302009f 	.inst	0x0302009f ; undefined
     4e0:	20405c08 	.inst	0x20405c08 ; undefined
     4e4:	00000000 	.inst	0x00000000 ; undefined
     4e8:	a0063400 	.inst	0xa0063400 ; undefined
     4ec:	00003248 	.inst	0x00003248 ; undefined
     4f0:	03020000 	.inst	0x03020000 ; undefined
     4f4:	20405c08 	.inst	0x20405c08 ; undefined
     4f8:	00000000 	.inst	0x00000000 ; undefined
     4fc:	86053400 	.inst	0x86053400 ; undefined
     500:	089300c8 	stllrb	w8, [x6]
     504:	08030200 	stxrb	w3, w0, [x16]
     508:	0020405c 	.inst	0x0020405c ; NYI
     50c:	00000000 	.inst	0x00000000 ; undefined
     510:	d0030934 	adrp	x20, 6126000 <__sel4_ipc_buffer_obj+0x5f1f000>
     514:	00002060 	.inst	0x00002060 ; undefined
     518:	00000000 	.inst	0x00000000 ; undefined
     51c:	84080300 	ld1sb	{z0.s}, p0/z, [x24, z8.s, uxtw]
     520:	00002040 	.inst	0x00002040 ; undefined
     524:	0c000000 	st4	{v0.8b-v3.8b}, [x0]
     528:	00005001 	.inst	0x00005001 ; undefined
     52c:	00000000 	.inst	0x00000000 ; undefined
     530:	06030202 	.inst	0x06030202 ; undefined
     534:	00204060 	.inst	0x00204060 ; NYI
     538:	00000000 	.inst	0x00000000 ; undefined
     53c:	02180004 	.inst	0x02180004 ; undefined
     540:	18040875 	ldr	w21, 864c <_start-0x1f79b4>
     544:	0452011c 	smulh	z28.h, p0/m, z28.h, z8.h
     548:	030c241c 	.inst	0x030c241c ; undefined
     54c:	00206008 	.inst	0x00206008 ; NYI
     550:	00000000 	.inst	0x00000000 ; undefined
     554:	04082306 	smaxv	b6, p0, z24.b
     558:	52013024 	eor	w4, w1, #0x80000fff
     55c:	00000400 	.inst	0x00000400 ; undefined
     560:	03030000 	.inst	0x03030000 ; undefined
     564:	40600603 	.inst	0x40600603 ; undefined
     568:	00000020 	.inst	0x00000020 ; undefined
     56c:	00040000 	.inst	0x00040000 ; undefined
     570:	10750218 	adr	x24, ea5b0 <_start-0x115a50>
     574:	011c1804 	.inst	0x011c1804 ; undefined
     578:	241c0453 	cmphi	p3.b, p1/z, z2.b, z28.b
     57c:	6008030c 	.inst	0x6008030c ; undefined
     580:	00000020 	.inst	0x00000020 ; undefined
     584:	23060000 	.inst	0x23060000 ; undefined
     588:	30240410 	adr	x16, 48609 <_start-0x1b79f7>
     58c:	08005301 	stxrb	w0, w1, [x24]
     590:	04040000 	.inst	0x04040000 ; undefined
     594:	40600603 	.inst	0x40600603 ; undefined
     598:	00000020 	.inst	0x00000020 ; undefined
     59c:	00040000 	.inst	0x00040000 ; undefined
     5a0:	18750218 	ldr	w24, ea5e0 <_start-0x115a20>
     5a4:	0c241804 	.inst	0x0c241804 ; undefined
     5a8:	20600803 	.inst	0x20600803 ; undefined
     5ac:	00000000 	.inst	0x00000000 ; undefined
     5b0:	18230600 	ldr	w0, 46670 <_start-0x1b9990>
     5b4:	01302404 	.inst	0x01302404 ; undefined
     5b8:	000c0054 	.inst	0x000c0054 ; undefined
     5bc:	05000000 	orr	z0.s, z0.s, #0x1
     5c0:	60060305 	.inst	0x60060305 ; undefined
     5c4:	00002040 	.inst	0x00002040 ; undefined
     5c8:	04000000 	add	z0.b, p0/m, z0.b, z0.b
     5cc:	75021800 	.inst	0x75021800 ; undefined
     5d0:	1c180420 	ldr	s0, 30654 <_start-0x1cf9ac>
     5d4:	1c045501 	ldr	s1, 9074 <_start-0x1f6f8c>
     5d8:	08030c24 	stxrb	w3, w4, [x1]
     5dc:	00002060 	.inst	0x00002060 ; undefined
     5e0:	06000000 	.inst	0x06000000 ; undefined
     5e4:	24042023 	cmpeq	p3.b, p0/z, z1.b, z4.d
     5e8:	00550130 	.inst	0x00550130 ; undefined
     5ec:	5c080e0a 	ldr	d10, 107ac <_start-0x1ef854>
     5f0:	00002040 	.inst	0x00002040 ; undefined
     5f4:	00000000 	.inst	0x00000000 ; undefined
     5f8:	009f3002 	.inst	0x009f3002 ; undefined
     5fc:	60080402 	.inst	0x60080402 ; undefined
     600:	00002040 	.inst	0x00002040 ; undefined
     604:	00000000 	.inst	0x00000000 ; undefined
     608:	009f3102 	.inst	0x009f3102 ; undefined
     60c:	60080806 	.inst	0x60080806 ; undefined
     610:	00002040 	.inst	0x00002040 ; undefined
     614:	00000000 	.inst	0x00000000 ; undefined
     618:	009f3202 	.inst	0x009f3202 ; undefined
     61c:	60080c0a 	.inst	0x60080c0a ; undefined
     620:	00002040 	.inst	0x00002040 ; undefined
     624:	00000000 	.inst	0x00000000 ; undefined
     628:	009f3302 	.inst	0x009f3302 ; undefined
     62c:	6008050e 	.inst	0x6008050e ; undefined
     630:	00002040 	.inst	0x00002040 ; undefined
     634:	24000000 	cmphs	p0.b, p0/z, z0.b, z0.b
     638:	009f3402 	.inst	0x009f3402 ; undefined
     63c:	6008050e 	.inst	0x6008050e ; undefined
     640:	00002040 	.inst	0x00002040 ; undefined
     644:	24000000 	cmphs	p0.b, p0/z, z0.b, z0.b
     648:	380ea006 	sturb	w6, [x0, #234]
     64c:	00000000 	.inst	0x00000000 ; undefined
     650:	6008050e 	.inst	0x6008050e ; undefined
     654:	00002040 	.inst	0x00002040 ; undefined
     658:	24000000 	cmphs	p0.b, p0/z, z0.b, z0.b
     65c:	3801a006 	sturb	w6, [x0, #26]
     660:	00000000 	.inst	0x00000000 ; undefined
     664:	6008050e 	.inst	0x6008050e ; undefined
     668:	00002040 	.inst	0x00002040 ; undefined
     66c:	24000000 	cmphs	p0.b, p0/z, z0.b, z0.b
     670:	37f4a006 	tbnz	w6, #30, ffffffffffff9a70 <__sel4_ipc_buffer_obj+0xffffffffffdf2a70>
     674:	00000000 	.inst	0x00000000 ; undefined
     678:	6008050e 	.inst	0x6008050e ; undefined
     67c:	00002040 	.inst	0x00002040 ; undefined
     680:	24000000 	cmphs	p0.b, p0/z, z0.b, z0.b
     684:	37e7a006 	tbnz	w6, #28, fffffffffffffa84 <__sel4_ipc_buffer_obj+0xffffffffffdf8a84>
     688:	00000000 	.inst	0x00000000 ; undefined
     68c:	6008050e 	.inst	0x6008050e ; undefined
     690:	00002040 	.inst	0x00002040 ; undefined
     694:	24000000 	cmphs	p0.b, p0/z, z0.b, z0.b
     698:	37d5a006 	tbnz	w6, #26, ffffffffffffba98 <__sel4_ipc_buffer_obj+0xffffffffffdf4a98>
     69c:	00000000 	.inst	0x00000000 ; undefined
     6a0:	6008050e 	.inst	0x6008050e ; undefined
     6a4:	00002040 	.inst	0x00002040 ; undefined
     6a8:	24000000 	cmphs	p0.b, p0/z, z0.b, z0.b
     6ac:	00c88603 	.inst	0x00c88603 ; undefined
     6b0:	08050e00 	stxrb	w5, w0, [x16]
     6b4:	00204060 	.inst	0x00204060 ; NYI
     6b8:	00000000 	.inst	0x00000000 ; undefined
     6bc:	daa00624 	.inst	0xdaa00624 ; undefined
     6c0:	00000037 	.inst	0x00000037 ; undefined
     6c4:	08050e00 	stxrb	w5, w0, [x16]
     6c8:	00204060 	.inst	0x00204060 ; NYI
     6cc:	00000000 	.inst	0x00000000 ; undefined
     6d0:	9f310224 	.inst	0x9f310224 ; undefined
     6d4:	08050e00 	stxrb	w5, w0, [x16]
     6d8:	00204060 	.inst	0x00204060 ; NYI
     6dc:	00000000 	.inst	0x00000000 ; undefined
     6e0:	d0030924 	adrp	x4, 6126000 <__sel4_ipc_buffer_obj+0x5f1f000>
     6e4:	00002060 	.inst	0x00002060 ; undefined
     6e8:	00000000 	.inst	0x00000000 ; undefined
     6ec:	6008050e 	.inst	0x6008050e ; undefined
     6f0:	00002040 	.inst	0x00002040 ; undefined
     6f4:	24000000 	cmphs	p0.b, p0/z, z0.b, z0.b
     6f8:	9ffd0903 	.inst	0x9ffd0903 ; undefined
     6fc:	08000700 	stxrb	w0, w0, [x24]
     700:	00204084 	.inst	0x00204084 ; NYI
     704:	00000000 	.inst	0x00000000 ; undefined
     708:	00520110 	.inst	0x00520110 ; undefined
     70c:	8c080001 	.inst	0x8c080001 ; undefined
     710:	00002040 	.inst	0x00002040 ; undefined
     714:	08000000 	stxrb	w0, w0, [x0]
     718:	00005401 	.inst	0x00005401 ; undefined
     71c:	06000000 	.inst	0x06000000 ; undefined
     720:	00203f10 	.inst	0x00203f10 ; NYI
     724:	00000000 	.inst	0x00000000 ; undefined
     728:	01080004 	.inst	0x01080004 ; undefined
     72c:	2c080450 	stnp	s16, s1, [x2, #64]
     730:	5001a304 	adr	x4, 3b92 <_start-0x1fc46e>
     734:	0000009f 	.inst	0x0000009f ; undefined
     738:	203f1008 	.inst	0x203f1008 ; undefined
     73c:	00000000 	.inst	0x00000000 ; undefined
     740:	51011300 	sub	w0, w24, #0x44
     744:	00000000 	.inst	0x00000000 ; undefined
     748:	3f100600 	.inst	0x3f100600 ; undefined
     74c:	00000020 	.inst	0x00000020 ; undefined
     750:	00040000 	.inst	0x00040000 ; undefined
     754:	04520113 	smulh	z19.h, p0/m, z19.h, z8.h
     758:	a3042c13 	.inst	0xa3042c13 ; undefined
     75c:	009f5201 	.inst	0x009f5201 ; undefined
     760:	00000000 	.inst	0x00000000 ; undefined
     764:	203ee006 	.inst	0x203ee006 ; undefined
     768:	00000000 	.inst	0x00000000 ; undefined
     76c:	08000400 	stxrb	w0, w0, [x0]
     770:	08045001 	stxrb	w4, w1, [x0]
     774:	01a3042c 	.inst	0x01a3042c ; undefined
     778:	00009f50 	.inst	0x00009f50 ; undefined
     77c:	3ee00800 	.inst	0x3ee00800 ; undefined
     780:	00000020 	.inst	0x00000020 ; undefined
     784:	01130000 	.inst	0x01130000 ; undefined
     788:	0a500051 	and	w17, w2, w16, lsr #0
     78c:	00050000 	.inst	0x00050000 ; undefined
     790:	00000008 	.inst	0x00000008 ; undefined
	...
     79c:	01887004 	.inst	0x01887004 ; undefined
     7a0:	88045001 	stxr	w4, w1, [x0]
     7a4:	0101b801 	.inst	0x0101b801 ; undefined
     7a8:	01b8045a 	.inst	0x01b8045a ; undefined
     7ac:	a30403b8 	.inst	0xa30403b8 ; undefined
     7b0:	009f5001 	.inst	0x009f5001 ; undefined
     7b4:	00000000 	.inst	0x00000000 ; undefined
     7b8:	70040000 	adr	x0, 87bb <_start-0x1f7845>
     7bc:	51010188 	sub	w8, w12, #0x40
     7c0:	8c018804 	.inst	0x8c018804 ; undefined
     7c4:	04590102 	eor	z2.h, p0/m, z2.h, z8.h
     7c8:	03b8028c 	.inst	0x03b8028c ; undefined
     7cc:	5101a304 	sub	w4, w24, #0x68
     7d0:	0000009f 	.inst	0x0000009f ; undefined
     7d4:	70040000 	adr	x0, 87d7 <_start-0x1f7829>
     7d8:	52010188 	eor	w8, w12, #0x80000000
     7dc:	b8018804 	sttr	w4, [x0, #24]
     7e0:	01a30403 	.inst	0x01a30403 ; undefined
     7e4:	00009f52 	.inst	0x00009f52 ; undefined
     7e8:	00000000 	.inst	0x00000000 ; undefined
     7ec:	88700400 	ldxp	w0, w1, [x0]
     7f0:	04530101 	umulh	z1.h, p0/m, z1.h, z8.h
     7f4:	02e40188 	.inst	0x02e40188 ; undefined
     7f8:	e4045801 	st1b	{z1.b}, p6, [x0, x4]
     7fc:	0403b802 	.inst	0x0403b802 ; undefined
     800:	9f5301a3 	.inst	0x9f5301a3 ; undefined
     804:	00000200 	.inst	0x00000200 ; undefined
     808:	00000808 	.inst	0x00000808 ; undefined
     80c:	88700400 	ldxp	w0, w1, [x0]
     810:	58030a01 	ldr	x1, 6950 <_start-0x1f96b0>
     814:	00002053 	.inst	0x00002053 ; undefined
     818:	9f000000 	.inst	0x9f000000 ; undefined
     81c:	a8018804 	stnp	x4, x2, [x0, #24]
     820:	045b0101 	bic	z1.h, p0/m, z1.h, z8.h
     824:	01ac01a8 	.inst	0x01ac01a8 ; undefined
     828:	9f017b03 	.inst	0x9f017b03 ; undefined
     82c:	b001ac04 	adrp	x4, 3581000 <__sel4_ipc_buffer_obj+0x337a000>
     830:	005b0101 	.inst	0x005b0101 ; undefined
     834:	88040001 	stxr	w4, w1, [x0]
     838:	0601a801 	.inst	0x0601a801 ; undefined
     83c:	ff080070 	.inst	0xff080070 ; undefined
     840:	03009f1a 	.inst	0x03009f1a ; undefined
     844:	01880400 	.inst	0x01880400 ; undefined
     848:	500101a8 	adr	x8, 287e <_start-0x1fd782>
     84c:	02020500 	.inst	0x02020500 ; undefined
     850:	01880406 	.inst	0x01880406 ; undefined
     854:	300201a8 	adr	x8, 4889 <_start-0x1fb777>
     858:	01a8049f 	.inst	0x01a8049f ; undefined
     85c:	500101a8 	adr	x8, 2892 <_start-0x1fd76e>
     860:	01010600 	.inst	0x01010600 ; undefined
     864:	01880406 	.inst	0x01880406 ; undefined
     868:	300201a8 	adr	x8, 489d <_start-0x1fb763>
     86c:	01a8049f 	.inst	0x01a8049f ; undefined
     870:	510101a8 	sub	w8, w13, #0x40
     874:	03030700 	.inst	0x03030700 ; undefined
     878:	01880406 	.inst	0x01880406 ; undefined
     87c:	300201a8 	adr	x8, 48b1 <_start-0x1fb74f>
     880:	01a8049f 	.inst	0x01a8049f ; undefined
     884:	520101a8 	eor	w8, w13, #0x80000000
     888:	04040800 	.inst	0x04040800 ; undefined
     88c:	01880406 	.inst	0x01880406 ; undefined
     890:	300201a8 	adr	x8, 48c5 <_start-0x1fb73b>
     894:	01a8049f 	.inst	0x01a8049f ; undefined
     898:	530101a8 	lsl	w8, w13, #31
     89c:	05050900 	.inst	0x05050900 ; undefined
     8a0:	01880406 	.inst	0x01880406 ; undefined
     8a4:	300201a8 	adr	x8, 48d9 <_start-0x1fb727>
     8a8:	01a8049f 	.inst	0x01a8049f ; undefined
     8ac:	540101a8 	b.hi	28e0 <_start-0x1fd720>  // b.pmore
     8b0:	04060a00 	.inst	0x04060a00 ; undefined
     8b4:	01a80188 	.inst	0x01a80188 ; undefined
     8b8:	009f3002 	.inst	0x009f3002 ; undefined
     8bc:	8804060b 	stxr	w4, w11, [x16]
     8c0:	0201a801 	.inst	0x0201a801 ; undefined
     8c4:	0b009f30 	.inst	0x0b009f30 ; undefined
     8c8:	01880406 	.inst	0x01880406 ; undefined
     8cc:	a00601a8 	.inst	0xa00601a8 ; undefined
     8d0:	00004515 	.inst	0x00004515 ; undefined
     8d4:	060b0000 	.inst	0x060b0000 ; undefined
     8d8:	a8018804 	stnp	x4, x2, [x0, #24]
     8dc:	08a00601 	.inst	0x08a00601 ; undefined
     8e0:	00000045 	.inst	0x00000045 ; undefined
     8e4:	04060b00 	.inst	0x04060b00 ; undefined
     8e8:	01a80188 	.inst	0x01a80188 ; undefined
     8ec:	44fba006 	.inst	0x44fba006 ; undefined
     8f0:	00000000 	.inst	0x00000000 ; undefined
     8f4:	8804060b 	stxr	w4, w11, [x16]
     8f8:	0601a801 	.inst	0x0601a801 ; undefined
     8fc:	0044eea0 	.inst	0x0044eea0 ; undefined
     900:	0b000000 	add	w0, w0, w0
     904:	01880406 	.inst	0x01880406 ; undefined
     908:	a00601a8 	.inst	0xa00601a8 ; undefined
     90c:	000044e1 	.inst	0x000044e1 ; undefined
     910:	060b0000 	.inst	0x060b0000 ; undefined
     914:	a8018804 	stnp	x4, x2, [x0, #24]
     918:	d4a00601 	dcps1	#0x30
     91c:	00000044 	.inst	0x00000044 ; undefined
     920:	04000b00 	add	z0.b, p2/m, z0.b, z24.b
     924:	01a80188 	.inst	0x01a80188 ; undefined
     928:	08007006 	stxrb	w0, w6, [x0]
     92c:	009f1aff 	.inst	0x009f1aff ; undefined
     930:	8804060b 	stxr	w4, w11, [x16]
     934:	0301a801 	.inst	0x0301a801 ; undefined
     938:	009ff409 	.inst	0x009ff409 ; undefined
     93c:	00080800 	.inst	0x00080800 ; undefined
     940:	b0040000 	adrp	x0, 8001000 <__sel4_ipc_buffer_obj+0x7dfa000>
     944:	0101d801 	.inst	0x0101d801 ; undefined
     948:	01d8045a 	.inst	0x01d8045a ; undefined
     94c:	7a0301dc 	sbcs	w28, w14, w3
     950:	dc049f01 	.inst	0xdc049f01 ; undefined
     954:	0101e001 	.inst	0x0101e001 ; undefined
     958:	0001005a 	.inst	0x0001005a ; undefined
     95c:	d801b804 	prfm	pldl3keep, 405c <_start-0x1fbfa4>
     960:	00700601 	.inst	0x00700601 ; undefined
     964:	9f1aff08 	.inst	0x9f1aff08 ; undefined
     968:	04000300 	add	z0.b, p0/m, z0.b, z24.b
     96c:	01d801b8 	.inst	0x01d801b8 ; undefined
     970:	05005001 	orr	z1.s, z1.s, #0x400000
     974:	04060202 	.inst	0x04060202 ; undefined
     978:	01d801b8 	.inst	0x01d801b8 ; undefined
     97c:	049f3002 	.inst	0x049f3002 ; undefined
     980:	01d801d8 	.inst	0x01d801d8 ; undefined
     984:	06005001 	.inst	0x06005001 ; undefined
     988:	04060101 	.inst	0x04060101 ; undefined
     98c:	01d801b8 	.inst	0x01d801b8 ; undefined
     990:	049f3002 	.inst	0x049f3002 ; undefined
     994:	01d801d8 	.inst	0x01d801d8 ; undefined
     998:	07005101 	.inst	0x07005101 ; undefined
     99c:	04060303 	.inst	0x04060303 ; undefined
     9a0:	01d801b8 	.inst	0x01d801b8 ; undefined
     9a4:	049f3002 	.inst	0x049f3002 ; undefined
     9a8:	01d801d8 	.inst	0x01d801d8 ; undefined
     9ac:	08005201 	stxrb	w0, w1, [x16]
     9b0:	04060404 	.inst	0x04060404 ; undefined
     9b4:	01d801b8 	.inst	0x01d801b8 ; undefined
     9b8:	049f3002 	.inst	0x049f3002 ; undefined
     9bc:	01d801d8 	.inst	0x01d801d8 ; undefined
     9c0:	09005301 	.inst	0x09005301 ; undefined
     9c4:	04060505 	.inst	0x04060505 ; undefined
     9c8:	01d801b8 	.inst	0x01d801b8 ; undefined
     9cc:	049f3002 	.inst	0x049f3002 ; undefined
     9d0:	01d801d8 	.inst	0x01d801d8 ; undefined
     9d4:	0a005401 	and	w1, w0, w0, lsl #21
     9d8:	01b80406 	.inst	0x01b80406 ; undefined
     9dc:	300201d8 	adr	x24, 4a15 <_start-0x1fb5eb>
     9e0:	060b009f 	.inst	0x060b009f ; undefined
     9e4:	d801b804 	prfm	pldl3keep, 40e4 <_start-0x1fbf1c>
     9e8:	9f300201 	.inst	0x9f300201 ; undefined
     9ec:	04060b00 	.inst	0x04060b00 ; undefined
     9f0:	01d801b8 	.inst	0x01d801b8 ; undefined
     9f4:	46c3a006 	.inst	0x46c3a006 ; undefined
     9f8:	00000000 	.inst	0x00000000 ; undefined
     9fc:	b804060b 	str	w11, [x16], #64
     a00:	0601d801 	.inst	0x0601d801 ; undefined
     a04:	0046b6a0 	.inst	0x0046b6a0 ; undefined
     a08:	0b000000 	add	w0, w0, w0
     a0c:	01b80406 	.inst	0x01b80406 ; undefined
     a10:	a00601d8 	.inst	0xa00601d8 ; undefined
     a14:	000046a9 	.inst	0x000046a9 ; undefined
     a18:	060b0000 	.inst	0x060b0000 ; undefined
     a1c:	d801b804 	prfm	pldl3keep, 411c <_start-0x1fbee4>
     a20:	9ca00601 	ldr	q1, fffffffffff40ae0 <__sel4_ipc_buffer_obj+0xffffffffffd39ae0>
     a24:	00000046 	.inst	0x00000046 ; undefined
     a28:	04060b00 	.inst	0x04060b00 ; undefined
     a2c:	01d801b8 	.inst	0x01d801b8 ; undefined
     a30:	468fa006 	.inst	0x468fa006 ; undefined
     a34:	00000000 	.inst	0x00000000 ; undefined
     a38:	b804060b 	str	w11, [x16], #64
     a3c:	0601d801 	.inst	0x0601d801 ; undefined
     a40:	004682a0 	.inst	0x004682a0 ; undefined
     a44:	0b000000 	add	w0, w0, w0
     a48:	01b80400 	.inst	0x01b80400 ; undefined
     a4c:	700601d8 	adr	x24, ca87 <_start-0x1f3579>
     a50:	1aff0800 	.inst	0x1aff0800 ; undefined
     a54:	060b009f 	.inst	0x060b009f ; undefined
     a58:	d801b804 	prfm	pldl3keep, 4158 <_start-0x1fbea8>
     a5c:	f4090301 	.inst	0xf4090301 ; undefined
     a60:	0800009f 	stxrb	w0, wzr, [x4]
     a64:	8401e004 	prfb	pldl3keep, p0, [z0.s, #1]
     a68:	a4a00602 	.inst	0xa4a00602 ; undefined
     a6c:	00000054 	.inst	0x00000054 ; undefined
     a70:	04060300 	.inst	0x04060300 ; undefined
     a74:	028401e0 	.inst	0x028401e0 ; undefined
     a78:	9f200803 	.inst	0x9f200803 ; undefined
     a7c:	04060500 	.inst	0x04060500 ; undefined
     a80:	028401e0 	.inst	0x028401e0 ; undefined
     a84:	9f200803 	.inst	0x9f200803 ; undefined
     a88:	02020700 	.inst	0x02020700 ; undefined
     a8c:	01e00406 	.inst	0x01e00406 ; undefined
     a90:	30020284 	adr	x4, 4ae1 <_start-0x1fb51f>
     a94:	0284049f 	.inst	0x0284049f ; undefined
     a98:	50010284 	adr	x4, 2aea <_start-0x1fd516>
     a9c:	01010800 	.inst	0x01010800 ; undefined
     aa0:	01e00406 	.inst	0x01e00406 ; undefined
     aa4:	30020284 	adr	x4, 4af5 <_start-0x1fb50b>
     aa8:	0284049f 	.inst	0x0284049f ; undefined
     aac:	51010284 	sub	w4, w20, #0x40
     ab0:	03030900 	.inst	0x03030900 ; undefined
     ab4:	01e00406 	.inst	0x01e00406 ; undefined
     ab8:	30020284 	adr	x4, 4b09 <_start-0x1fb4f7>
     abc:	0284049f 	.inst	0x0284049f ; undefined
     ac0:	52010284 	eor	w4, w20, #0x80000000
     ac4:	04040a00 	.inst	0x04040a00 ; undefined
     ac8:	01e00406 	.inst	0x01e00406 ; undefined
     acc:	30020284 	adr	x4, 4b1d <_start-0x1fb4e3>
     ad0:	0284049f 	.inst	0x0284049f ; undefined
     ad4:	53010284 	lsl	w4, w20, #31
     ad8:	05050b00 	.inst	0x05050b00 ; undefined
     adc:	01e00406 	.inst	0x01e00406 ; undefined
     ae0:	30020284 	adr	x4, 4b31 <_start-0x1fb4cf>
     ae4:	0284049f 	.inst	0x0284049f ; undefined
     ae8:	54010284 	b.mi	2b38 <_start-0x1fd4c8>  // b.first
     aec:	04060c00 	.inst	0x04060c00 ; undefined
     af0:	028401e0 	.inst	0x028401e0 ; undefined
     af4:	009f3002 	.inst	0x009f3002 ; undefined
     af8:	e004060d 	.inst	0xe004060d ; undefined
     afc:	02028401 	.inst	0x02028401 ; undefined
     b00:	0d009f30 	.inst	0x0d009f30 ; undefined
     b04:	01e00406 	.inst	0x01e00406 ; undefined
     b08:	a0060284 	.inst	0xa0060284 ; undefined
     b0c:	00004871 	.inst	0x00004871 ; undefined
     b10:	060d0000 	.inst	0x060d0000 ; undefined
     b14:	8401e004 	prfb	pldl3keep, p0, [z0.s, #1]
     b18:	64a00602 	fmls	z2.s, z16.s, z0.s[0]
     b1c:	00000048 	.inst	0x00000048 ; undefined
     b20:	04060d00 	.inst	0x04060d00 ; undefined
     b24:	028401e0 	.inst	0x028401e0 ; undefined
     b28:	4857a006 	ldaxrh	w6, [x0]
     b2c:	00000000 	.inst	0x00000000 ; undefined
     b30:	e004060d 	.inst	0xe004060d ; undefined
     b34:	06028401 	.inst	0x06028401 ; undefined
     b38:	00484aa0 	.inst	0x00484aa0 ; undefined
     b3c:	0d000000 	st1	{v0.b}[0], [x0]
     b40:	01e00406 	.inst	0x01e00406 ; undefined
     b44:	a0060284 	.inst	0xa0060284 ; undefined
     b48:	0000483d 	.inst	0x0000483d ; undefined
     b4c:	060d0000 	.inst	0x060d0000 ; undefined
     b50:	8401e004 	prfb	pldl3keep, p0, [z0.s, #1]
     b54:	30a00602 	adr	x2, fffffffffff40c15 <__sel4_ipc_buffer_obj+0xffffffffffd39c15>
     b58:	00000048 	.inst	0x00000048 ; undefined
     b5c:	04060d00 	.inst	0x04060d00 ; undefined
     b60:	028401e0 	.inst	0x028401e0 ; undefined
     b64:	9f200803 	.inst	0x9f200803 ; undefined
     b68:	04060d00 	.inst	0x04060d00 ; undefined
     b6c:	028401e0 	.inst	0x028401e0 ; undefined
     b70:	9ff40903 	.inst	0x9ff40903 ; undefined
     b74:	08080900 	stxrb	w8, w0, [x8]
     b78:	04000000 	add	z0.b, p0/m, z0.b, z0.b
     b7c:	02b00284 	.inst	0x02b00284 ; undefined
     b80:	b0045901 	adrp	x1, 8b21000 <__sel4_ipc_buffer_obj+0x891a000>
     b84:	0302b402 	.inst	0x0302b402 ; undefined
     b88:	049f0179 	.inst	0x049f0179 ; undefined
     b8c:	02b802b4 	.inst	0x02b802b4 ; undefined
     b90:	01005901 	.inst	0x01005901 ; undefined
     b94:	028c0400 	.inst	0x028c0400 ; undefined
     b98:	700602b0 	adr	x16, cbef <_start-0x1f3411>
     b9c:	1aff0800 	.inst	0x1aff0800 ; undefined
     ba0:	0003009f 	.inst	0x0003009f ; undefined
     ba4:	b0028c04 	adrp	x4, 5181000 <__sel4_ipc_buffer_obj+0x4f7a000>
     ba8:	00500102 	.inst	0x00500102 ; undefined
     bac:	06020205 	.inst	0x06020205 ; undefined
     bb0:	b0028c04 	adrp	x4, 5181000 <__sel4_ipc_buffer_obj+0x4f7a000>
     bb4:	9f300202 	.inst	0x9f300202 ; undefined
     bb8:	b002b004 	adrp	x4, 5601000 <__sel4_ipc_buffer_obj+0x53fa000>
     bbc:	00500102 	.inst	0x00500102 ; undefined
     bc0:	06010106 	.inst	0x06010106 ; undefined
     bc4:	b0028c04 	adrp	x4, 5181000 <__sel4_ipc_buffer_obj+0x4f7a000>
     bc8:	9f300202 	.inst	0x9f300202 ; undefined
     bcc:	b002b004 	adrp	x4, 5601000 <__sel4_ipc_buffer_obj+0x53fa000>
     bd0:	00510102 	.inst	0x00510102 ; undefined
     bd4:	06030307 	.inst	0x06030307 ; undefined
     bd8:	b0028c04 	adrp	x4, 5181000 <__sel4_ipc_buffer_obj+0x4f7a000>
     bdc:	9f300202 	.inst	0x9f300202 ; undefined
     be0:	b002b004 	adrp	x4, 5601000 <__sel4_ipc_buffer_obj+0x53fa000>
     be4:	00520102 	.inst	0x00520102 ; undefined
     be8:	06040408 	.inst	0x06040408 ; undefined
     bec:	b0028c04 	adrp	x4, 5181000 <__sel4_ipc_buffer_obj+0x4f7a000>
     bf0:	9f300202 	.inst	0x9f300202 ; undefined
     bf4:	b002b004 	adrp	x4, 5601000 <__sel4_ipc_buffer_obj+0x53fa000>
     bf8:	00530102 	.inst	0x00530102 ; undefined
     bfc:	06050509 	.inst	0x06050509 ; undefined
     c00:	b0028c04 	adrp	x4, 5181000 <__sel4_ipc_buffer_obj+0x4f7a000>
     c04:	9f300202 	.inst	0x9f300202 ; undefined
     c08:	b002b004 	adrp	x4, 5601000 <__sel4_ipc_buffer_obj+0x53fa000>
     c0c:	00540102 	.inst	0x00540102 ; undefined
     c10:	8c04060a 	.inst	0x8c04060a ; undefined
     c14:	0202b002 	.inst	0x0202b002 ; undefined
     c18:	0b009f30 	.inst	0x0b009f30 ; undefined
     c1c:	028c0406 	.inst	0x028c0406 ; undefined
     c20:	300202b0 	adr	x16, 4c75 <_start-0x1fb38b>
     c24:	060b009f 	.inst	0x060b009f ; undefined
     c28:	b0028c04 	adrp	x4, 5181000 <__sel4_ipc_buffer_obj+0x4f7a000>
     c2c:	1fa00602 	.inst	0x1fa00602 ; undefined
     c30:	0000004a 	.inst	0x0000004a ; undefined
     c34:	04060b00 	.inst	0x04060b00 ; undefined
     c38:	02b0028c 	.inst	0x02b0028c ; undefined
     c3c:	4a12a006 	.inst	0x4a12a006 ; undefined
     c40:	00000000 	.inst	0x00000000 ; undefined
     c44:	8c04060b 	.inst	0x8c04060b ; undefined
     c48:	0602b002 	.inst	0x0602b002 ; undefined
     c4c:	004a05a0 	.inst	0x004a05a0 ; undefined
     c50:	0b000000 	add	w0, w0, w0
     c54:	028c0406 	.inst	0x028c0406 ; undefined
     c58:	a00602b0 	.inst	0xa00602b0 ; undefined
     c5c:	000049f8 	.inst	0x000049f8 ; undefined
     c60:	060b0000 	.inst	0x060b0000 ; undefined
     c64:	b0028c04 	adrp	x4, 5181000 <__sel4_ipc_buffer_obj+0x4f7a000>
     c68:	eba00602 	.inst	0xeba00602 ; undefined
     c6c:	00000049 	.inst	0x00000049 ; undefined
     c70:	04060b00 	.inst	0x04060b00 ; undefined
     c74:	02b0028c 	.inst	0x02b0028c ; undefined
     c78:	49dea006 	.inst	0x49dea006 ; undefined
     c7c:	00000000 	.inst	0x00000000 ; undefined
     c80:	8c04000b 	.inst	0x8c04000b ; undefined
     c84:	0602b002 	.inst	0x0602b002 ; undefined
     c88:	ff080070 	.inst	0xff080070 ; undefined
     c8c:	0b009f1a 	.inst	0x0b009f1a ; undefined
     c90:	028c0406 	.inst	0x028c0406 ; undefined
     c94:	090302b0 	.inst	0x090302b0 ; undefined
     c98:	00009ff4 	.inst	0x00009ff4 ; undefined
     c9c:	02b80408 	.inst	0x02b80408 ; undefined
     ca0:	a00602dc 	.inst	0xa00602dc ; undefined
     ca4:	000054a4 	.inst	0x000054a4 ; undefined
     ca8:	06030000 	.inst	0x06030000 ; undefined
     cac:	dc02b804 	.inst	0xdc02b804 ; undefined
     cb0:	20080302 	.inst	0x20080302 ; undefined
     cb4:	0605009f 	.inst	0x0605009f ; undefined
     cb8:	dc02b804 	.inst	0xdc02b804 ; undefined
     cbc:	20080302 	.inst	0x20080302 ; undefined
     cc0:	0207009f 	.inst	0x0207009f ; undefined
     cc4:	b8040602 	str	w2, [x16], #64
     cc8:	0202dc02 	.inst	0x0202dc02 ; undefined
     ccc:	dc049f30 	.inst	0xdc049f30 ; undefined
     cd0:	0102dc02 	.inst	0x0102dc02 ; undefined
     cd4:	01080050 	.inst	0x01080050 ; undefined
     cd8:	b8040601 	str	w1, [x16], #64
     cdc:	0202dc02 	.inst	0x0202dc02 ; undefined
     ce0:	dc049f30 	.inst	0xdc049f30 ; undefined
     ce4:	0102dc02 	.inst	0x0102dc02 ; undefined
     ce8:	03090051 	.inst	0x03090051 ; undefined
     cec:	b8040603 	str	w3, [x16], #64
     cf0:	0202dc02 	.inst	0x0202dc02 ; undefined
     cf4:	dc049f30 	.inst	0xdc049f30 ; undefined
     cf8:	0102dc02 	.inst	0x0102dc02 ; undefined
     cfc:	040a0052 	smin	z18.b, p0/m, z18.b, z2.b
     d00:	b8040604 	str	w4, [x16], #64
     d04:	0202dc02 	.inst	0x0202dc02 ; undefined
     d08:	dc049f30 	.inst	0xdc049f30 ; undefined
     d0c:	0102dc02 	.inst	0x0102dc02 ; undefined
     d10:	050b0053 	.inst	0x050b0053 ; undefined
     d14:	b8040605 	str	w5, [x16], #64
     d18:	0202dc02 	.inst	0x0202dc02 ; undefined
     d1c:	dc049f30 	.inst	0xdc049f30 ; undefined
     d20:	0102dc02 	.inst	0x0102dc02 ; undefined
     d24:	060c0054 	.inst	0x060c0054 ; undefined
     d28:	dc02b804 	.inst	0xdc02b804 ; undefined
     d2c:	9f300202 	.inst	0x9f300202 ; undefined
     d30:	04060d00 	.inst	0x04060d00 ; undefined
     d34:	02dc02b8 	.inst	0x02dc02b8 ; undefined
     d38:	009f3002 	.inst	0x009f3002 ; undefined
     d3c:	b804060d 	str	w13, [x16], #64
     d40:	0602dc02 	.inst	0x0602dc02 ; undefined
     d44:	004bcda0 	.inst	0x004bcda0 ; undefined
     d48:	0d000000 	st1	{v0.b}[0], [x0]
     d4c:	02b80406 	.inst	0x02b80406 ; undefined
     d50:	a00602dc 	.inst	0xa00602dc ; undefined
     d54:	00004bc0 	.inst	0x00004bc0 ; undefined
     d58:	060d0000 	.inst	0x060d0000 ; undefined
     d5c:	dc02b804 	.inst	0xdc02b804 ; undefined
     d60:	b3a00602 	.inst	0xb3a00602 ; undefined
     d64:	0000004b 	.inst	0x0000004b ; undefined
     d68:	04060d00 	.inst	0x04060d00 ; undefined
     d6c:	02dc02b8 	.inst	0x02dc02b8 ; undefined
     d70:	4ba6a006 	.inst	0x4ba6a006 ; undefined
     d74:	00000000 	.inst	0x00000000 ; undefined
     d78:	b804060d 	str	w13, [x16], #64
     d7c:	0602dc02 	.inst	0x0602dc02 ; undefined
     d80:	004b99a0 	.inst	0x004b99a0 ; undefined
     d84:	0d000000 	st1	{v0.b}[0], [x0]
     d88:	02b80406 	.inst	0x02b80406 ; undefined
     d8c:	a00602dc 	.inst	0xa00602dc ; undefined
     d90:	00004b8c 	.inst	0x00004b8c ; undefined
     d94:	060d0000 	.inst	0x060d0000 ; undefined
     d98:	dc02b804 	.inst	0xdc02b804 ; undefined
     d9c:	20080302 	.inst	0x20080302 ; undefined
     da0:	060d009f 	.inst	0x060d009f ; undefined
     da4:	dc02b804 	.inst	0xdc02b804 ; undefined
     da8:	f4090302 	.inst	0xf4090302 ; undefined
     dac:	0809009f 	stxrb	w9, wzr, [x4]
     db0:	00000008 	.inst	0x00000008 ; undefined
     db4:	8802dc04 	stlxr	w2, w4, [x0]
     db8:	04580103 	orr	z3.h, p0/m, z3.h, z8.h
     dbc:	038c0388 	.inst	0x038c0388 ; undefined
     dc0:	9f017803 	.inst	0x9f017803 ; undefined
     dc4:	90038c04 	adrp	x4, 7180000 <__sel4_ipc_buffer_obj+0x6f79000>
     dc8:	00580103 	.inst	0x00580103 ; undefined
     dcc:	e4040001 	.inst	0xe4040001 ; undefined
     dd0:	06038802 	.inst	0x06038802 ; undefined
     dd4:	ff080070 	.inst	0xff080070 ; undefined
     dd8:	03009f1a 	.inst	0x03009f1a ; undefined
     ddc:	02e40400 	.inst	0x02e40400 ; undefined
     de0:	50010388 	adr	x8, 2e52 <_start-0x1fd1ae>
     de4:	02020500 	.inst	0x02020500 ; undefined
     de8:	02e40406 	.inst	0x02e40406 ; undefined
     dec:	30020388 	adr	x8, 4e5d <_start-0x1fb1a3>
     df0:	0388049f 	.inst	0x0388049f ; undefined
     df4:	50010388 	adr	x8, 2e66 <_start-0x1fd19a>
     df8:	01010600 	.inst	0x01010600 ; undefined
     dfc:	02e40406 	.inst	0x02e40406 ; undefined
     e00:	30020388 	adr	x8, 4e71 <_start-0x1fb18f>
     e04:	0388049f 	.inst	0x0388049f ; undefined
     e08:	51010388 	sub	w8, w28, #0x40
     e0c:	03030700 	.inst	0x03030700 ; undefined
     e10:	02e40406 	.inst	0x02e40406 ; undefined
     e14:	30020388 	adr	x8, 4e85 <_start-0x1fb17b>
     e18:	0388049f 	.inst	0x0388049f ; undefined
     e1c:	52010388 	eor	w8, w28, #0x80000000
     e20:	04040800 	.inst	0x04040800 ; undefined
     e24:	02e40406 	.inst	0x02e40406 ; undefined
     e28:	30020388 	adr	x8, 4e99 <_start-0x1fb167>
     e2c:	0388049f 	.inst	0x0388049f ; undefined
     e30:	53010388 	lsl	w8, w28, #31
     e34:	05050900 	.inst	0x05050900 ; undefined
     e38:	02e40406 	.inst	0x02e40406 ; undefined
     e3c:	30020388 	adr	x8, 4ead <_start-0x1fb153>
     e40:	0388049f 	.inst	0x0388049f ; undefined
     e44:	54010388 	b.hi	2eb4 <_start-0x1fd14c>  // b.pmore
     e48:	04060a00 	.inst	0x04060a00 ; undefined
     e4c:	038802e4 	.inst	0x038802e4 ; undefined
     e50:	009f3002 	.inst	0x009f3002 ; undefined
     e54:	e404060b 	.inst	0xe404060b ; undefined
     e58:	02038802 	.inst	0x02038802 ; undefined
     e5c:	0b009f30 	.inst	0x0b009f30 ; undefined
     e60:	02e40406 	.inst	0x02e40406 ; undefined
     e64:	a0060388 	.inst	0xa0060388 ; undefined
     e68:	00004d7b 	.inst	0x00004d7b ; undefined
     e6c:	060b0000 	.inst	0x060b0000 ; undefined
     e70:	8802e404 	stlxr	w2, w4, [x0]
     e74:	6ea00603 	uhadd	v3.4s, v16.4s, v0.4s
     e78:	0000004d 	.inst	0x0000004d ; undefined
     e7c:	04060b00 	.inst	0x04060b00 ; undefined
     e80:	038802e4 	.inst	0x038802e4 ; undefined
     e84:	4d61a006 	.inst	0x4d61a006 ; undefined
     e88:	00000000 	.inst	0x00000000 ; undefined
     e8c:	e404060b 	.inst	0xe404060b ; undefined
     e90:	06038802 	.inst	0x06038802 ; undefined
     e94:	004d54a0 	.inst	0x004d54a0 ; undefined
     e98:	0b000000 	add	w0, w0, w0
     e9c:	02e40406 	.inst	0x02e40406 ; undefined
     ea0:	a0060388 	.inst	0xa0060388 ; undefined
     ea4:	00004d47 	.inst	0x00004d47 ; undefined
     ea8:	060b0000 	.inst	0x060b0000 ; undefined
     eac:	8802e404 	stlxr	w2, w4, [x0]
     eb0:	3aa00603 	.inst	0x3aa00603 ; undefined
     eb4:	0000004d 	.inst	0x0000004d ; undefined
     eb8:	04000b00 	add	z0.b, p2/m, z0.b, z24.b
     ebc:	038802e4 	.inst	0x038802e4 ; undefined
     ec0:	08007006 	stxrb	w0, w6, [x0]
     ec4:	009f1aff 	.inst	0x009f1aff ; undefined
     ec8:	e404060b 	.inst	0xe404060b ; undefined
     ecc:	03038802 	.inst	0x03038802 ; undefined
     ed0:	009ff409 	.inst	0x009ff409 ; undefined
     ed4:	90040800 	adrp	x0, 8100000 <__sel4_ipc_buffer_obj+0x7ef9000>
     ed8:	0603b403 	.inst	0x0603b403 ; undefined
     edc:	0054aaa0 	.inst	0x0054aaa0 ; undefined
     ee0:	03000000 	.inst	0x03000000 ; undefined
     ee4:	03900406 	.inst	0x03900406 ; undefined
     ee8:	3a0203b4 	adcs	w20, w29, w2
     eec:	0605009f 	.inst	0x0605009f ; undefined
     ef0:	b4039004 	cbz	x4, 80f0 <_start-0x1f7f10>
     ef4:	9f3a0203 	.inst	0x9f3a0203 ; undefined
     ef8:	02020700 	.inst	0x02020700 ; undefined
     efc:	03900406 	.inst	0x03900406 ; undefined
     f00:	300203b4 	adr	x20, 4f75 <_start-0x1fb08b>
     f04:	03b4049f 	.inst	0x03b4049f ; undefined
     f08:	500103b4 	adr	x20, 2f7e <_start-0x1fd082>
     f0c:	01010800 	.inst	0x01010800 ; undefined
     f10:	03900406 	.inst	0x03900406 ; undefined
     f14:	300203b4 	adr	x20, 4f89 <_start-0x1fb077>
     f18:	03b4049f 	.inst	0x03b4049f ; undefined
     f1c:	510103b4 	sub	w20, w29, #0x40
     f20:	03030900 	.inst	0x03030900 ; undefined
     f24:	03900406 	.inst	0x03900406 ; undefined
     f28:	300203b4 	adr	x20, 4f9d <_start-0x1fb063>
     f2c:	03b4049f 	.inst	0x03b4049f ; undefined
     f30:	520103b4 	eor	w20, w29, #0x80000000
     f34:	04040a00 	.inst	0x04040a00 ; undefined
     f38:	03900406 	.inst	0x03900406 ; undefined
     f3c:	300203b4 	adr	x20, 4fb1 <_start-0x1fb04f>
     f40:	03b4049f 	.inst	0x03b4049f ; undefined
     f44:	530103b4 	lsl	w20, w29, #31
     f48:	05050b00 	.inst	0x05050b00 ; undefined
     f4c:	03900406 	.inst	0x03900406 ; undefined
     f50:	300203b4 	adr	x20, 4fc5 <_start-0x1fb03b>
     f54:	03b4049f 	.inst	0x03b4049f ; undefined
     f58:	540103b4 	.inst	0x540103b4 ; undefined
     f5c:	04060c00 	.inst	0x04060c00 ; undefined
     f60:	03b40390 	.inst	0x03b40390 ; undefined
     f64:	009f3002 	.inst	0x009f3002 ; undefined
     f68:	9004060d 	adrp	x13, 80c0000 <__sel4_ipc_buffer_obj+0x7eb9000>
     f6c:	0203b403 	.inst	0x0203b403 ; undefined
     f70:	0d009f30 	.inst	0x0d009f30 ; undefined
     f74:	03900406 	.inst	0x03900406 ; undefined
     f78:	a00603b4 	.inst	0xa00603b4 ; undefined
     f7c:	00004f27 	.inst	0x00004f27 ; undefined
     f80:	060d0000 	.inst	0x060d0000 ; undefined
     f84:	b4039004 	cbz	x4, 8184 <_start-0x1f7e7c>
     f88:	1aa00603 	.inst	0x1aa00603 ; undefined
     f8c:	0000004f 	.inst	0x0000004f ; undefined
     f90:	04060d00 	.inst	0x04060d00 ; undefined
     f94:	03b40390 	.inst	0x03b40390 ; undefined
     f98:	4f0da006 	.inst	0x4f0da006 ; undefined
     f9c:	00000000 	.inst	0x00000000 ; undefined
     fa0:	9004060d 	adrp	x13, 80c0000 <__sel4_ipc_buffer_obj+0x7eb9000>
     fa4:	0603b403 	.inst	0x0603b403 ; undefined
     fa8:	004f00a0 	.inst	0x004f00a0 ; undefined
     fac:	0d000000 	st1	{v0.b}[0], [x0]
     fb0:	03900406 	.inst	0x03900406 ; undefined
     fb4:	a00603b4 	.inst	0xa00603b4 ; undefined
     fb8:	00004ef3 	.inst	0x00004ef3 ; undefined
     fbc:	060d0000 	.inst	0x060d0000 ; undefined
     fc0:	b4039004 	cbz	x4, 81c0 <_start-0x1f7e40>
     fc4:	e6a00603 	.inst	0xe6a00603 ; undefined
     fc8:	0000004e 	.inst	0x0000004e ; undefined
     fcc:	04060d00 	.inst	0x04060d00 ; undefined
     fd0:	03b40390 	.inst	0x03b40390 ; undefined
     fd4:	009f3a02 	.inst	0x009f3a02 ; undefined
     fd8:	9004060d 	adrp	x13, 80c0000 <__sel4_ipc_buffer_obj+0x7eb9000>
     fdc:	0303b403 	.inst	0x0303b403 ; undefined
     fe0:	009ff409 	.inst	0x009ff409 ; undefined
     fe4:	00000000 	.inst	0x00000000 ; undefined
     fe8:	01080004 	.inst	0x01080004 ; undefined
     fec:	28080450 	stnp	w16, w1, [x2, #64]
     ff0:	5001a304 	adr	x4, 4452 <_start-0x1fbbae>
     ff4:	0002009f 	.inst	0x0002009f ; undefined
     ff8:	00040600 	.inst	0x00040600 ; undefined
     ffc:	04500124 	mul	z4.h, p0/m, z4.h, z9.h
    1000:	a3042424 	.inst	0xa3042424 ; undefined
    1004:	009f5001 	.inst	0x009f5001 ; undefined
    1008:	06020204 	.inst	0x06020204 ; undefined
    100c:	02240004 	.inst	0x02240004 ; undefined
    1010:	24049f30 	cmpgt	p0.b, p7/z, z25.b, z4.b
    1014:	00500124 	.inst	0x00500124 ; undefined
    1018:	06010105 	.inst	0x06010105 ; undefined
    101c:	02240004 	.inst	0x02240004 ; undefined
    1020:	24049f30 	cmpgt	p0.b, p7/z, z25.b, z4.b
    1024:	00510124 	.inst	0x00510124 ; undefined
    1028:	06030306 	.inst	0x06030306 ; undefined
    102c:	02240004 	.inst	0x02240004 ; undefined
    1030:	24049f30 	cmpgt	p0.b, p7/z, z25.b, z4.b
    1034:	00520124 	.inst	0x00520124 ; undefined
    1038:	06040407 	.inst	0x06040407 ; undefined
    103c:	02240004 	.inst	0x02240004 ; undefined
    1040:	24049f30 	cmpgt	p0.b, p7/z, z25.b, z4.b
    1044:	00530124 	.inst	0x00530124 ; undefined
    1048:	06050508 	.inst	0x06050508 ; undefined
    104c:	02240004 	.inst	0x02240004 ; undefined
    1050:	24049f30 	cmpgt	p0.b, p7/z, z25.b, z4.b
    1054:	00540124 	.inst	0x00540124 ; undefined
    1058:	00040609 	.inst	0x00040609 ; undefined
    105c:	9f300224 	.inst	0x9f300224 ; undefined
    1060:	04060a00 	.inst	0x04060a00 ; undefined
    1064:	30022400 	adr	x0, 54e5 <_start-0x1fab1b>
    1068:	060a009f 	.inst	0x060a009f ; undefined
    106c:	06240004 	.inst	0x06240004 ; undefined
    1070:	00520ea0 	.inst	0x00520ea0 ; undefined
    1074:	0a000000 	and	w0, w0, w0
    1078:	24000406 	cmphs	p6.b, p1/z, z0.b, z0.b
    107c:	5201a006 	eor	w6, w0, #0x80ff80ff
    1080:	00000000 	.inst	0x00000000 ; undefined
    1084:	0004060a 	.inst	0x0004060a ; undefined
    1088:	f4a00624 	.inst	0xf4a00624 ; undefined
    108c:	00000051 	.inst	0x00000051 ; undefined
    1090:	04060a00 	.inst	0x04060a00 ; undefined
    1094:	a0062400 	.inst	0xa0062400 ; undefined
    1098:	000051e7 	.inst	0x000051e7 ; undefined
    109c:	060a0000 	.inst	0x060a0000 ; undefined
    10a0:	06240004 	.inst	0x06240004 ; undefined
    10a4:	0051daa0 	.inst	0x0051daa0 ; undefined
    10a8:	0a000000 	and	w0, w0, w0
    10ac:	24000406 	cmphs	p6.b, p1/z, z0.b, z0.b
    10b0:	51cda006 	.inst	0x51cda006 ; undefined
    10b4:	00000000 	.inst	0x00000000 ; undefined
    10b8:	0000000a 	.inst	0x0000000a ; undefined
    10bc:	00040600 	.inst	0x00040600 ; undefined
    10c0:	00700608 	.inst	0x00700608 ; undefined
    10c4:	9f1aff08 	.inst	0x9f1aff08 ; undefined
    10c8:	01240804 	.inst	0x01240804 ; undefined
    10cc:	24240450 	cmphi	p0.b, p1/z, z2.b, #16
    10d0:	5001a307 	adr	x7, 4532 <_start-0x1fbace>
    10d4:	9f1aff08 	.inst	0x9f1aff08 ; undefined
    10d8:	04060a00 	.inst	0x04060a00 ; undefined
    10dc:	09032400 	.inst	0x09032400 ; undefined
    10e0:	00009ff4 	.inst	0x00009ff4 ; undefined
    10e4:	08080000 	stxrb	w8, w0, [x0]
    10e8:	04000000 	add	z0.b, p0/m, z0.b, z0.b
    10ec:	50013830 	adr	x16, 37f2 <_start-0x1fc80e>
    10f0:	01603804 	.inst	0x01603804 ; undefined
    10f4:	64600458 	fmls	z24.h, z2.h, z0.h[4]
    10f8:	9f017803 	.inst	0x9f017803 ; undefined
    10fc:	016c6404 	.inst	0x016c6404 ; undefined
    1100:	00010058 	.inst	0x00010058 ; undefined
    1104:	06604004 	.inst	0x06604004 ; undefined
    1108:	ff080070 	.inst	0xff080070 ; undefined
    110c:	03009f1a 	.inst	0x03009f1a ; undefined
    1110:	60400400 	.inst	0x60400400 ; undefined
    1114:	05005001 	orr	z1.s, z1.s, #0x400000
    1118:	04060202 	.inst	0x04060202 ; undefined
    111c:	30026040 	adr	x0, 5d25 <_start-0x1fa2db>
    1120:	6060049f 	.inst	0x6060049f ; undefined
    1124:	06005001 	.inst	0x06005001 ; undefined
    1128:	04060101 	.inst	0x04060101 ; undefined
    112c:	30026040 	adr	x0, 5d35 <_start-0x1fa2cb>
    1130:	6060049f 	.inst	0x6060049f ; undefined
    1134:	07005101 	.inst	0x07005101 ; undefined
    1138:	04060303 	.inst	0x04060303 ; undefined
    113c:	30026040 	adr	x0, 5d45 <_start-0x1fa2bb>
    1140:	6060049f 	.inst	0x6060049f ; undefined
    1144:	08005201 	stxrb	w0, w1, [x16]
    1148:	04060404 	.inst	0x04060404 ; undefined
    114c:	30026040 	adr	x0, 5d55 <_start-0x1fa2ab>
    1150:	6060049f 	.inst	0x6060049f ; undefined
    1154:	09005301 	.inst	0x09005301 ; undefined
    1158:	04060505 	.inst	0x04060505 ; undefined
    115c:	30026040 	adr	x0, 5d65 <_start-0x1fa29b>
    1160:	6060049f 	.inst	0x6060049f ; undefined
    1164:	0a005401 	and	w1, w0, w0, lsl #21
    1168:	60400406 	.inst	0x60400406 ; undefined
    116c:	009f3002 	.inst	0x009f3002 ; undefined
    1170:	4004060b 	.inst	0x4004060b ; undefined
    1174:	9f300260 	.inst	0x9f300260 ; undefined
    1178:	04060b00 	.inst	0x04060b00 ; undefined
    117c:	a0066040 	.inst	0xa0066040 ; undefined
    1180:	000053ba 	.inst	0x000053ba ; undefined
    1184:	060b0000 	.inst	0x060b0000 ; undefined
    1188:	06604004 	.inst	0x06604004 ; undefined
    118c:	0053ada0 	.inst	0x0053ada0 ; undefined
    1190:	0b000000 	add	w0, w0, w0
    1194:	60400406 	.inst	0x60400406 ; undefined
    1198:	53a0a006 	.inst	0x53a0a006 ; undefined
    119c:	00000000 	.inst	0x00000000 ; undefined
    11a0:	4004060b 	.inst	0x4004060b ; undefined
    11a4:	93a00660 	.inst	0x93a00660 ; undefined
    11a8:	00000053 	.inst	0x00000053 ; undefined
    11ac:	04060b00 	.inst	0x04060b00 ; undefined
    11b0:	a0066040 	.inst	0xa0066040 ; undefined
    11b4:	00005386 	.inst	0x00005386 ; undefined
    11b8:	060b0000 	.inst	0x060b0000 ; undefined
    11bc:	06604004 	.inst	0x06604004 ; undefined
    11c0:	005379a0 	.inst	0x005379a0 ; undefined
    11c4:	0b000000 	add	w0, w0, w0
    11c8:	60400400 	.inst	0x60400400 ; undefined
    11cc:	08007006 	stxrb	w0, w6, [x0]
    11d0:	009f1aff 	.inst	0x009f1aff ; undefined
    11d4:	4004060b 	.inst	0x4004060b ; undefined
    11d8:	f4090360 	.inst	0xf4090360 ; undefined
    11dc:	Address 0x00000000000011dc is out of bounds.


Disassembly of section .debug_rnglists:

0000000000000000 <.debug_rnglists>:
   0:	000000db 	.inst	0x000000db ; undefined
   4:	00080005 	.inst	0x00080005 ; undefined
   8:	00000000 	.inst	0x00000000 ; undefined
   c:	203f4005 	.inst	0x203f4005 ; undefined
  10:	00000000 	.inst	0x00000000 ; undefined
  14:	00000400 	.inst	0x00000400 ; undefined
  18:	040c0404 	sabd	z4.b, p1/m, z4.b, z0.b
  1c:	20041c14 	.inst	0x20041c14 ; undefined
  20:	78700444 	.inst	0x78700444 ; undefined
  24:	3f600500 	.inst	0x3f600500 ; undefined
  28:	00000020 	.inst	0x00000020 ; undefined
  2c:	00040000 	.inst	0x00040000 ; undefined
  30:	24040404 	cmphs	p4.b, p1/z, z0.b, z4.b
  34:	00585004 	.inst	0x00585004 ; undefined
  38:	203fb805 	.inst	0x203fb805 ; undefined
  3c:	00000000 	.inst	0x00000000 ; undefined
  40:	44000400 	.inst	0x44000400 ; undefined
  44:	01dc4404 	.inst	0x01dc4404 ; undefined
  48:	3fc40500 	.inst	0x3fc40500 ; undefined
  4c:	00000020 	.inst	0x00000020 ; undefined
  50:	00040000 	.inst	0x00040000 ; undefined
  54:	18140410 	ldr	w16, 280d4 <_start-0x1d7f2c>
  58:	3fd40500 	.inst	0x3fd40500 ; undefined
  5c:	00000020 	.inst	0x00000020 ; undefined
  60:	00040000 	.inst	0x00040000 ; undefined
  64:	08080404 	stxrb	w8, w4, [x0]
  68:	3fd40500 	.inst	0x3fd40500 ; undefined
  6c:	00000020 	.inst	0x00000020 ; undefined
  70:	00040000 	.inst	0x00040000 ; undefined
  74:	08080404 	stxrb	w8, w4, [x0]
  78:	3fe80500 	.inst	0x3fe80500 ; undefined
  7c:	00000020 	.inst	0x00000020 ; undefined
  80:	00040000 	.inst	0x00040000 ; undefined
  84:	5c380404 	ldr	d4, 70104 <_start-0x18fefc>
  88:	405c0500 	.inst	0x405c0500 ; undefined
  8c:	00000020 	.inst	0x00000020 ; undefined
  90:	00040000 	.inst	0x00040000 ; undefined
  94:	342c0428 	cbz	w8, 58118 <_start-0x1a7ee8>
  98:	40600500 	.inst	0x40600500 ; undefined
  9c:	00000020 	.inst	0x00000020 ; undefined
  a0:	00040000 	.inst	0x00040000 ; undefined
  a4:	2420041c 	cmphi	p12.b, p1/z, z0.b, #0
  a8:	407c0500 	.inst	0x407c0500 ; undefined
  ac:	00000020 	.inst	0x00000020 ; undefined
  b0:	00040000 	.inst	0x00040000 ; undefined
  b4:	08080404 	stxrb	w8, w4, [x0]
  b8:	407c0500 	.inst	0x407c0500 ; undefined
  bc:	00000020 	.inst	0x00000020 ; undefined
  c0:	00040000 	.inst	0x00040000 ; undefined
  c4:	08080404 	stxrb	w8, w4, [x0]
  c8:	3ee00700 	.inst	0x3ee00700 ; undefined
  cc:	00000020 	.inst	0x00000020 ; undefined
  d0:	075c0000 	.inst	0x075c0000 ; undefined
  d4:	00203f40 	.inst	0x00203f40 ; NYI
  d8:	00000000 	.inst	0x00000000 ; undefined
  dc:	180002d4 	ldr	w20, 134 <_start-0x1ffecc>
  e0:	05000000 	orr	z0.s, z0.s, #0x1
  e4:	00000800 	.inst	0x00000800 ; undefined
  e8:	04000000 	add	z0.b, p0/m, z0.b, z0.b
  ec:	08040400 	stxrb	w4, w0, [x0]
  f0:	70040024 	adr	x4, 80f7 <_start-0x1f7f09>
  f4:	01840470 	.inst	0x01840470 ; undefined
  f8:	Address 0x00000000000000f8 is out of bounds.


Disassembly of section .debug_line_str:

0000000000000000 <.debug_line_str>:
   0:	6573552f 	fnmla	z15.h, p5/m, z9.h, z19.h
   4:	722f7372 	ands	w18, w27, #0xfffe3fff
   8:	656e6e75 	fnmls	z21.h, p3/m, z19.h, z14.h
   c:	6f772f72 	.inst	0x6f772f72 ; undefined
  10:	6d2f6b72 	stp	d18, d26, [x27, #-272]
  14:	6f726369 	umlsl2	v9.4s, v27.8h, v2.h[3]
  18:	2f74696b 	umlsl	v11.4s, v11.4h, v4.h[7]
  1c:	7263696d 	.inst	0x7263696d ; undefined
  20:	74696b6f 	.inst	0x74696b6f ; undefined
  24:	62696c2f 	.inst	0x62696c2f ; undefined
  28:	7263696d 	.inst	0x7263696d ; undefined
  2c:	74696b6f 	.inst	0x74696b6f ; undefined
  30:	63727300 	.inst	0x63727300 ; undefined
  34:	69616d2f 	ldpsw	x15, x27, [x9, #-248]
  38:	00632e6e 	.inst	0x00632e6e ; undefined
  3c:	00637273 	.inst	0x00637273 ; undefined
  40:	6573552f 	fnmla	z15.h, p5/m, z9.h, z19.h
  44:	722f7372 	ands	w18, w27, #0xfffe3fff
  48:	656e6e75 	fnmls	z21.h, p3/m, z19.h, z14.h
  4c:	6f772f72 	.inst	0x6f772f72 ; undefined
  50:	6d2f6b72 	stp	d18, d26, [x27, #-272]
  54:	6f726369 	umlsl2	v9.4s, v27.8h, v2.h[3]
  58:	2f74696b 	umlsl	v11.4s, v11.4h, v4.h[7]
  5c:	7263696d 	.inst	0x7263696d ; undefined
  60:	74696b6f 	.inst	0x74696b6f ; undefined
  64:	6c65722f 	ldnp	d15, d28, [x17, #-432]
  68:	65736165 	fnmls	z5.h, p0/m, z11.h, z19.h
  6c:	63696d2f 	.inst	0x63696d2f ; undefined
  70:	696b6f72 	ldpsw	x18, x27, [x27, #-168]
  74:	64732d74 	.inst	0x64732d74 ; undefined
  78:	2e312d6b 	uqsub	v11.8b, v11.8b, v17.8b
  7c:	2d312e34 	stp	s20, s11, [x17, #-120]
  80:	2e766564 	umax	v4.4h, v11.4h, v22.4h
  84:	642b3732 	.inst	0x642b3732 ; undefined
  88:	38306434 	.inst	0x38306434 ; undefined
  8c:	622f3364 	.inst	0x622f3364 ; undefined
  90:	6472616f 	.inst	0x6472616f ; undefined
  94:	6d65712f 	ldp	d15, d28, [x9, #-432]
  98:	69765f75 	ldpsw	x21, x23, [x27, #-80]
  9c:	615f7472 	.inst	0x615f7472 ; undefined
  a0:	68637261 	.inst	0x68637261 ; undefined
  a4:	642f3436 	.inst	0x642f3436 ; undefined
  a8:	67756265 	.inst	0x67756265 ; undefined
  ac:	636e692f 	.inst	0x636e692f ; undefined
  b0:	6564756c 	fnmls	z12.h, p5/m, z11.h, z4.h
  b4:	6c65732f 	ldnp	d15, d28, [x25, #-432]
  b8:	72612f34 	.inst	0x72612f34 ; undefined
  bc:	2f006863 	.inst	0x2f006863 ; undefined
  c0:	72657355 	.inst	0x72657355 ; undefined
  c4:	75722f73 	.inst	0x75722f73 ; undefined
  c8:	72656e6e 	.inst	0x72656e6e ; undefined
  cc:	726f772f 	.inst	0x726f772f ; undefined
  d0:	696d2f6b 	.inst	0x696d2f6b ; undefined
  d4:	6b6f7263 	.inst	0x6b6f7263 ; undefined
  d8:	6d2f7469 	stp	d9, d29, [x3, #-272]
  dc:	6f726369 	umlsl2	v9.4s, v27.8h, v2.h[3]
  e0:	2f74696b 	umlsl	v11.4s, v11.4h, v4.h[7]
  e4:	656c6572 	fnmls	z18.h, p1/m, z11.h, z12.h
  e8:	2f657361 	fcmla	v1.4h, v27.4h, v5.h[1], #270
  ec:	7263696d 	.inst	0x7263696d ; undefined
  f0:	74696b6f 	.inst	0x74696b6f ; undefined
  f4:	6b64732d 	.inst	0x6b64732d ; undefined
  f8:	342e312d 	cbz	w13, 5c71c <_start-0x1a38e4>
  fc:	642d312e 	.inst	0x642d312e ; undefined
 100:	322e7665 	orr	w5, w19, #0xfffcffff
 104:	34642b37 	cbz	w23, c8668 <_start-0x137998>
 108:	64383064 	.inst	0x64383064 ; undefined
 10c:	6f622f33 	.inst	0x6f622f33 ; undefined
 110:	2f647261 	fcmla	v1.4h, v19.4h, v4.h[1], #270
 114:	756d6571 	.inst	0x756d6571 ; undefined
 118:	7269765f 	.inst	0x7269765f ; undefined
 11c:	61615f74 	.inst	0x61615f74 ; undefined
 120:	36686372 	tbz	w18, #13, d8c <_start-0x1ff274>
 124:	65642f34 	fmls	z20.h, p3/m, z25.h, z4.h
 128:	2f677562 	.inst	0x2f677562 ; undefined
 12c:	6c636e69 	ldnp	d9, d27, [x19, #-464]
 130:	2f656475 	.inst	0x2f656475 ; undefined
 134:	346c6573 	cbz	w19, d8de0 <_start-0x127220>
 138:	6c65732f 	ldnp	d15, d28, [x25, #-432]
 13c:	72615f34 	.inst	0x72615f34 ; undefined
 140:	2f006863 	.inst	0x2f006863 ; undefined
 144:	72657355 	.inst	0x72657355 ; undefined
 148:	75722f73 	.inst	0x75722f73 ; undefined
 14c:	72656e6e 	.inst	0x72656e6e ; undefined
 150:	726f772f 	.inst	0x726f772f ; undefined
 154:	696d2f6b 	.inst	0x696d2f6b ; undefined
 158:	6b6f7263 	.inst	0x6b6f7263 ; undefined
 15c:	6d2f7469 	stp	d9, d29, [x3, #-272]
 160:	6f726369 	umlsl2	v9.4s, v27.8h, v2.h[3]
 164:	2f74696b 	umlsl	v11.4s, v11.4h, v4.h[7]
 168:	656c6572 	fnmls	z18.h, p1/m, z11.h, z12.h
 16c:	2f657361 	fcmla	v1.4h, v27.4h, v5.h[1], #270
 170:	7263696d 	.inst	0x7263696d ; undefined
 174:	74696b6f 	.inst	0x74696b6f ; undefined
 178:	6b64732d 	.inst	0x6b64732d ; undefined
 17c:	342e312d 	cbz	w13, 5c7a0 <_start-0x1a3860>
 180:	642d312e 	.inst	0x642d312e ; undefined
 184:	322e7665 	orr	w5, w19, #0xfffcffff
 188:	34642b37 	cbz	w23, c86ec <_start-0x137914>
 18c:	64383064 	.inst	0x64383064 ; undefined
 190:	6f622f33 	.inst	0x6f622f33 ; undefined
 194:	2f647261 	fcmla	v1.4h, v19.4h, v4.h[1], #270
 198:	756d6571 	.inst	0x756d6571 ; undefined
 19c:	7269765f 	.inst	0x7269765f ; undefined
 1a0:	61615f74 	.inst	0x61615f74 ; undefined
 1a4:	36686372 	tbz	w18, #13, e10 <_start-0x1ff1f0>
 1a8:	65642f34 	fmls	z20.h, p3/m, z25.h, z4.h
 1ac:	2f677562 	.inst	0x2f677562 ; undefined
 1b0:	6c636e69 	ldnp	d9, d27, [x19, #-464]
 1b4:	2f656475 	.inst	0x2f656475 ; undefined
 1b8:	346c6573 	cbz	w19, d8e64 <_start-0x12719c>
 1bc:	73552f00 	.inst	0x73552f00 ; undefined
 1c0:	2f737265 	.inst	0x2f737265 ; undefined
 1c4:	6e6e7572 	uabd	v18.8h, v11.8h, v14.8h
 1c8:	772f7265 	.inst	0x772f7265 ; undefined
 1cc:	2f6b726f 	fcmla	v15.4h, v19.4h, v11.h[1], #270
 1d0:	7263696d 	.inst	0x7263696d ; undefined
 1d4:	74696b6f 	.inst	0x74696b6f ; undefined
 1d8:	63696d2f 	.inst	0x63696d2f ; undefined
 1dc:	696b6f72 	ldpsw	x18, x27, [x27, #-168]
 1e0:	72612f74 	.inst	0x72612f74 ; undefined
 1e4:	6e672d6d 	uqsub	v13.8h, v11.8h, v7.8h
 1e8:	6f742d75 	.inst	0x6f742d75 ; undefined
 1ec:	68636c6f 	.inst	0x68636c6f ; undefined
 1f0:	2d6e6961 	ldp	s1, s26, [x11, #-144]
 1f4:	322e3231 	orr	w17, w17, #0x7ffc0000
 1f8:	6c65722e 	ldnp	d14, d28, [x17, #-432]
 1fc:	61642d31 	.inst	0x61642d31 ; undefined
 200:	6e697772 	uabd	v18.8h, v27.8h, v9.8h
 204:	3638782d 	tbz	w13, #7, 1108 <_start-0x1feef8>
 208:	2d34365f 	stp	s31, s13, [x18, #-96]
 20c:	63726161 	.inst	0x63726161 ; undefined
 210:	2d343668 	stp	s8, s13, [x19, #-96]
 214:	656e6f6e 	fnmls	z14.h, p3/m, z27.h, z14.h
 218:	666c652d 	.inst	0x666c652d ; undefined
 21c:	62696c2f 	.inst	0x62696c2f ; undefined
 220:	6363672f 	.inst	0x6363672f ; undefined
 224:	7261612f 	.inst	0x7261612f ; undefined
 228:	34366863 	cbz	w3, 6cf34 <_start-0x1930cc>
 22c:	6e6f6e2d 	umin	v13.8h, v17.8h, v15.8h
 230:	6c652d65 	ldnp	d5, d11, [x11, #-432]
 234:	32312f66 	orr	w6, w27, #0x7ff8000
 238:	312e322e 	adds	w14, w17, #0xb8c
 23c:	636e692f 	.inst	0x636e692f ; undefined
 240:	6564756c 	fnmls	z12.h, p5/m, z11.h, z4.h
 244:	63696d00 	.inst	0x63696d00 ; undefined
 248:	696b6f72 	ldpsw	x18, x27, [x27, #-168]
 24c:	00682e74 	.inst	0x00682e74 ; undefined
 250:	63737973 	.inst	0x63737973 ; undefined
 254:	736c6c61 	.inst	0x736c6c61 ; undefined
 258:	6600682e 	.inst	0x6600682e ; undefined
 25c:	74636e75 	.inst	0x74636e75 ; undefined
 260:	736e6f69 	.inst	0x736e6f69 ; undefined
 264:	7300682e 	.inst	0x7300682e ; undefined
 268:	65646474 	fnmls	z20.h, p1/m, z3.h, z4.h
 26c:	00682e66 	.inst	0x00682e66 ; undefined
 270:	69647473 	ldpsw	x19, x29, [x3, #-224]
 274:	672d746e 	.inst	0x672d746e ; undefined
 278:	682e6363 	.inst	0x682e6363 ; undefined
 27c:	6d697300 	ldp	d0, d28, [x24, #-368]
 280:	5f656c70 	.inst	0x5f656c70 ; undefined
 284:	65707974 	fnmls	z20.h, p6/m, z11.h, z16.h
 288:	00682e73 	.inst	0x00682e73 ; undefined
 28c:	656a626f 	fnmls	z15.h, p0/m, z19.h, z10.h
 290:	79747463 	ldrh	w3, [x3, #6714]
 294:	682e6570 	.inst	0x682e6570 ; undefined
 298:	73797300 	.inst	0x73797300 ; undefined
 29c:	6c6c6163 	ldnp	d3, d24, [x11, #-320]
 2a0:	6500682e 	.inst	0x6500682e ; undefined
 2a4:	726f7272 	.inst	0x726f7272 ; undefined
 2a8:	00682e73 	.inst	0x00682e73 ; undefined
 2ac:	736e6f63 	.inst	0x736e6f63 ; undefined
 2b0:	746e6174 	.inst	0x746e6174 ; undefined
 2b4:	00682e73 	.inst	0x00682e73 ; undefined
 2b8:	72616873 	.inst	0x72616873 ; undefined
 2bc:	745f6465 	.inst	0x745f6465 ; undefined
 2c0:	73657079 	.inst	0x73657079 ; undefined
 2c4:	6e65675f 	umax	v31.8h, v26.8h, v5.8h
 2c8:	7300682e 	.inst	0x7300682e ; undefined
 2cc:	65726168 	fnmls	z8.h, p0/m, z11.h, z18.h
 2d0:	79745f64 	ldrh	w4, [x27, #6702]
 2d4:	2e736570 	umax	v16.4h, v11.4h, v19.4h
 2d8:	6e690068 	uaddl2	v8.4s, v3.8h, v9.8h
 2dc:	61636f76 	.inst	0x61636f76 ; undefined
 2e0:	6e6f6974 	.inst	0x6e6f6974 ; undefined
 2e4:	6100682e 	.inst	0x6100682e ; undefined
 2e8:	72657373 	.inst	0x72657373 ; undefined
 2ec:	00682e74 	.inst	0x00682e74 ; undefined
 2f0:	2f637273 	fcmla	v19.4h, v19.4h, v3.h[1], #270
 2f4:	2e676264 	rsubhn	v4.4h, v19.4s, v7.4s
 2f8:	Address 0x00000000000002f8 is out of bounds.


Disassembly of section .debug_frame:

0000000000000000 <.debug_frame>:
   0:	0000000c 	.inst	0x0000000c ; undefined
   4:	ffffffff 	.inst	0xffffffff ; undefined
   8:	78040001 	sturh	w1, [x0, #64]
   c:	001f0c1e 	.inst	0x001f0c1e ; undefined
  10:	0000001c 	.inst	0x0000001c ; undefined
  14:	00000000 	.inst	0x00000000 ; undefined
  18:	00203ee0 	.inst	0x00203ee0 ; NYI
  1c:	00000000 	.inst	0x00000000 ; undefined
  20:	0000002c 	.inst	0x0000002c ; undefined
  24:	00000000 	.inst	0x00000000 ; undefined
  28:	9d100e41 	.inst	0x9d100e41 ; undefined
  2c:	00019e02 	.inst	0x00019e02 ; undefined
  30:	0000001c 	.inst	0x0000001c ; undefined
  34:	00000000 	.inst	0x00000000 ; undefined
  38:	00203f10 	.inst	0x00203f10 ; NYI
  3c:	00000000 	.inst	0x00000000 ; undefined
  40:	0000002c 	.inst	0x0000002c ; undefined
  44:	00000000 	.inst	0x00000000 ; undefined
  48:	9d100e41 	.inst	0x9d100e41 ; undefined
  4c:	00019e02 	.inst	0x00019e02 ; undefined
  50:	0000002c 	.inst	0x0000002c ; undefined
  54:	00000000 	.inst	0x00000000 ; undefined
  58:	00203f40 	.inst	0x00203f40 ; NYI
  5c:	00000000 	.inst	0x00000000 ; undefined
  60:	00000154 	.inst	0x00000154 ; undefined
  64:	00000000 	.inst	0x00000000 ; undefined
  68:	9d400e41 	.inst	0x9d400e41 ; undefined
  6c:	44079e08 	.inst	0x44079e08 ; undefined
  70:	05940693 	mov	z19.s, p4/z, #52
  74:	96049543 	bl	fffffffff8125580 <__sel4_ipc_buffer_obj+0xfffffffff7f1e580>
  78:	00000003 	.inst	0x00000003 ; undefined
  7c:	00000000 	.inst	0x00000000 ; undefined
  80:	0000000c 	.inst	0x0000000c ; undefined
  84:	ffffffff 	.inst	0xffffffff ; undefined
  88:	78040001 	sturh	w1, [x0, #64]
  8c:	001f0c1e 	.inst	0x001f0c1e ; undefined
  90:	00000014 	.inst	0x00000014 ; undefined
  94:	00000080 	.inst	0x00000080 ; undefined
  98:	002040a0 	.inst	0x002040a0 ; NYI
  9c:	00000000 	.inst	0x00000000 ; undefined
  a0:	00000028 	.inst	0x00000028 ; undefined
  a4:	00000000 	.inst	0x00000000 ; undefined
  a8:	00000014 	.inst	0x00000014 ; undefined
  ac:	00000080 	.inst	0x00000080 ; undefined
  b0:	002040d0 	.inst	0x002040d0 ; NYI
  b4:	00000000 	.inst	0x00000000 ; undefined
  b8:	0000003c 	.inst	0x0000003c ; undefined
  bc:	00000000 	.inst	0x00000000 ; undefined
  c0:	00000014 	.inst	0x00000014 ; undefined
  c4:	00000080 	.inst	0x00000080 ; undefined
  c8:	00204110 	.inst	0x00204110 ; NYI
  cc:	00000000 	.inst	0x00000000 ; undefined
  d0:	00000148 	.inst	0x00000148 ; undefined
  d4:	00000000 	.inst	0x00000000 ; undefined
